0:Math_pow
1:enlargeMemory
2:getTotalMemory
3:abortOnCannotGrowMemory
4:abortStackOverflow
5:nullFunc_d
6:nullFunc_di
7:nullFunc_diddi
8:nullFunc_didi
9:nullFunc_difi
10:nullFunc_dii
11:nullFunc_diii
12:nullFunc_diiii
13:nullFunc_diiiii
14:nullFunc_diji
15:nullFunc_f
16:nullFunc_ff
17:nullFunc_fff
18:nullFunc_fi
19:nullFunc_fidi
20:nullFunc_fif
21:nullFunc_fiff
22:nullFunc_fifffi
23:nullFunc_fiffi
24:nullFunc_fiffifffi
25:nullFunc_fifi
26:nullFunc_fifii
27:nullFunc_fii
28:nullFunc_fiiffi
29:nullFunc_fiifi
30:nullFunc_fiii
31:nullFunc_fiiifi
32:nullFunc_fiiifii
33:nullFunc_fiiii
34:nullFunc_fiiiif
35:nullFunc_fiiiiiifiiiiiif
36:nullFunc_fiiiiiiiifiiiif
37:nullFunc_fiji
38:nullFunc_i
39:nullFunc_ii
40:nullFunc_iiddi
41:nullFunc_iiddii
42:nullFunc_iiddiii
43:nullFunc_iidi
44:nullFunc_iidii
45:nullFunc_iidiii
46:nullFunc_iif
47:nullFunc_iifff
48:nullFunc_iiffffi
49:nullFunc_iifffi
50:nullFunc_iiffi
51:nullFunc_iiffii
52:nullFunc_iiffiii
53:nullFunc_iifi
54:nullFunc_iifii
55:nullFunc_iifiii
56:nullFunc_iifiiii
57:nullFunc_iii
58:nullFunc_iiiddi
59:nullFunc_iiidi
60:nullFunc_iiidii
61:nullFunc_iiidiii
62:nullFunc_iiif
63:nullFunc_iiiffi
64:nullFunc_iiiffii
65:nullFunc_iiiffiii
66:nullFunc_iiifi
67:nullFunc_iiififii
68:nullFunc_iiififiii
69:nullFunc_iiifii
70:nullFunc_iiifiifii
71:nullFunc_iiifiifiii
72:nullFunc_iiifiii
73:nullFunc_iiifiiii
74:nullFunc_iiii
75:nullFunc_iiiifi
76:nullFunc_iiiififiii
77:nullFunc_iiiififiiii
78:nullFunc_iiiifii
79:nullFunc_iiiifiifiii
80:nullFunc_iiiifiii
81:nullFunc_iiiifiiii
82:nullFunc_iiiifiiiii
83:nullFunc_iiiii
84:nullFunc_iiiiifi
85:nullFunc_iiiiifii
86:nullFunc_iiiiifiif
87:nullFunc_iiiiifiii
88:nullFunc_iiiiifiiiif
89:nullFunc_iiiiifiiiiif
90:nullFunc_iiiiifiiiiii
91:nullFunc_iiiiii
92:nullFunc_iiiiiifffiiifiii
93:nullFunc_iiiiiiffiiiiiiiiiffffiii
94:nullFunc_iiiiiiffiiiiiiiiiffffiiii
95:nullFunc_iiiiiiffiiiiiiiiiiiiiii
96:nullFunc_iiiiiifi
97:nullFunc_iiiiiifiif
98:nullFunc_iiiiiii
99:nullFunc_iiiiiiif
100:nullFunc_iiiiiiii
101:nullFunc_iiiiiiiii
102:nullFunc_iiiiiiiiii
103:nullFunc_iiiiiiiiiiffffii
104:nullFunc_iiiiiiiiiii
105:nullFunc_iiiiiiiiiiii
106:nullFunc_iiiiiiiiiiiiffffii
107:nullFunc_iiiiiiiiiiiii
108:nullFunc_iiiiiiiiiiiiii
109:nullFunc_iiiiiiiiiiiiiii
110:nullFunc_iiiiiijii
111:nullFunc_iiiiij
112:nullFunc_iiiiijii
113:nullFunc_iiiij
114:nullFunc_iiij
115:nullFunc_iiiji
116:nullFunc_iiijii
117:nullFunc_iiijjii
118:nullFunc_iiijjiiii
119:nullFunc_iij
120:nullFunc_iiji
121:nullFunc_iijii
122:nullFunc_iijji
123:nullFunc_iijjii
124:nullFunc_iijjji
125:nullFunc_ijj
126:nullFunc_j
127:nullFunc_ji
128:nullFunc_jidi
129:nullFunc_jidji
130:nullFunc_jifi
131:nullFunc_jii
132:nullFunc_jiii
133:nullFunc_jiiii
134:nullFunc_jiiiii
135:nullFunc_jiiiiiii
136:nullFunc_jiiji
137:nullFunc_jiijiii
138:nullFunc_jiji
139:nullFunc_jijii
140:nullFunc_jijji
141:nullFunc_jijjji
142:nullFunc_v
143:nullFunc_vd
144:nullFunc_vdd
145:nullFunc_vdddddd
146:nullFunc_vf
147:nullFunc_vff
148:nullFunc_vfff
149:nullFunc_vffff
150:nullFunc_vfi
151:nullFunc_vfii
152:nullFunc_vi
153:nullFunc_vid
154:nullFunc_vidddi
155:nullFunc_vidi
156:nullFunc_vif
157:nullFunc_viff
158:nullFunc_vifff
159:nullFunc_viffff
160:nullFunc_viffffi
161:nullFunc_viffffii
162:nullFunc_vifffi
163:nullFunc_vifffii
164:nullFunc_viffi
165:nullFunc_viffii
166:nullFunc_vifi
167:nullFunc_vifii
168:nullFunc_vifiii
169:nullFunc_vifiiii
170:nullFunc_vifiiiiiiiiiiiii
171:nullFunc_vifiiiiiiiiiiiiiiiiii
172:nullFunc_vifiiiiiiiiiiiiiiiiiiiiiii
173:nullFunc_vifiiiiiiiiiiiiiiiiiiiiiiiiiiii
174:nullFunc_vii
175:nullFunc_viidi
176:nullFunc_viidii
177:nullFunc_viif
178:nullFunc_viiff
179:nullFunc_viifff
180:nullFunc_viiffffffi
181:nullFunc_viifffi
182:nullFunc_viiffi
183:nullFunc_viiffii
184:nullFunc_viiffiii
185:nullFunc_viifi
186:nullFunc_viifii
187:nullFunc_viifiii
188:nullFunc_viifiiii
189:nullFunc_viii
190:nullFunc_viiiddddi
191:nullFunc_viiif
192:nullFunc_viiiffi
193:nullFunc_viiiffii
194:nullFunc_viiifi
195:nullFunc_viiifii
196:nullFunc_viiifiii
197:nullFunc_viiifiiiii
198:nullFunc_viiii
199:nullFunc_viiiif
200:nullFunc_viiiifi
201:nullFunc_viiiififfi
202:nullFunc_viiiififi
203:nullFunc_viiiifii
204:nullFunc_viiiifiii
205:nullFunc_viiiifiiiiif
206:nullFunc_viiiii
207:nullFunc_viiiiif
208:nullFunc_viiiiiffi
209:nullFunc_viiiiifii
210:nullFunc_viiiiii
211:nullFunc_viiiiiif
212:nullFunc_viiiiiiffii
213:nullFunc_viiiiiii
214:nullFunc_viiiiiiii
215:nullFunc_viiiiiiiii
216:nullFunc_viiiiiiiiii
217:nullFunc_viiiiiiiiiii
218:nullFunc_viiiiiiiiiiii
219:nullFunc_viiiiiiiiiiiii
220:nullFunc_viiiiiiiiiiiiii
221:nullFunc_viiiiiiiiiiiiiii
222:nullFunc_viiiiiiiiiiiiiiiiiiiiii
223:nullFunc_viiiiiiiiiiiiiiiiiiiiiiiiiiiiiiiiii
224:nullFunc_viiiiij
225:nullFunc_viiiiijiiii
226:nullFunc_viiiji
227:nullFunc_viiijiii
228:nullFunc_viiijiiiiii
229:nullFunc_viiijji
230:nullFunc_viiijjii
231:nullFunc_viij
232:nullFunc_viiji
233:nullFunc_viijii
234:nullFunc_viijijiii
235:nullFunc_viijijji
236:nullFunc_viijj
237:nullFunc_viijji
238:nullFunc_viijjii
239:nullFunc_viijjji
240:nullFunc_vij
241:nullFunc_viji
242:nullFunc_vijii
243:nullFunc_vijiii
244:nullFunc_vijiiii
245:nullFunc_vijiijiii
246:nullFunc_vijiji
247:nullFunc_vijj
248:nullFunc_vijji
249:nullFunc_vijjiiiiii
250:nullFunc_vjji
251:invoke_diii
252:invoke_fifffi
253:invoke_fiffi
254:invoke_fii
255:invoke_fiii
256:invoke_i
257:invoke_ii
258:invoke_iidi
259:invoke_iifi
260:invoke_iii
261:invoke_iiii
262:invoke_iiiii
263:invoke_iiiiii
264:invoke_iiiiiii
265:invoke_iiiiiiii
266:invoke_iiiiiiiii
267:invoke_iiiiiiiiii
268:invoke_iiiiiiiiiii
269:invoke_v
270:invoke_vi
271:invoke_vidi
272:invoke_vifffi
273:invoke_vifi
274:invoke_vii
275:invoke_viidi
276:invoke_viiff
277:invoke_viiffi
278:invoke_viifi
279:invoke_viii
280:invoke_viiii
281:invoke_viiiii
282:invoke_viiiiii
283:invoke_viiiiiii
284:invoke_viiiiiiii
285:_JS_Cursor_SetImage
286:_JS_Cursor_SetShow
287:_JS_Eval_ClearTimeout
288:_JS_Eval_SetTimeout
289:_JS_FileSystem_SetSyncInterval
290:_JS_FileSystem_Sync
291:_JS_Log_StackTrace
292:_JS_Profiler_InjectJobs
293:_JS_Sound_Create_Channel
294:_JS_Sound_GetLength
295:_JS_Sound_GetLoadState
296:_JS_Sound_Init
297:_JS_Sound_Load
298:_JS_Sound_Load_PCM
299:_JS_Sound_Play
300:_JS_Sound_ReleaseInstance
301:_JS_Sound_Set3D
302:_JS_Sound_SetListenerOrientation
303:_JS_Sound_SetListenerPosition
304:_JS_Sound_SetLoop
305:_JS_Sound_SetLoopPoints
306:_JS_Sound_SetPitch
307:_JS_Sound_SetPosition
308:_JS_Sound_SetVolume
309:_JS_Sound_Stop
310:_JS_SystemInfo_GetBrowserName
311:_JS_SystemInfo_GetBrowserVersionString
312:_JS_SystemInfo_GetCurrentCanvasHeight
313:_JS_SystemInfo_GetCurrentCanvasWidth
314:_JS_SystemInfo_GetDocumentURL
315:_JS_SystemInfo_GetGPUInfo
316:_JS_SystemInfo_GetHeight
317:_JS_SystemInfo_GetLanguage
318:_JS_SystemInfo_GetMemory
319:_JS_SystemInfo_GetOS
320:_JS_SystemInfo_GetWidth
321:_JS_SystemInfo_HasCursorLock
322:_JS_SystemInfo_HasFullscreen
323:_JS_SystemInfo_HasWebGL
324:_JS_WebGL_InitContextAttributes
325:_JS_WebRequest_Abort
326:_JS_WebRequest_Create
327:_JS_WebRequest_GetResponseHeaders
328:_JS_WebRequest_Release
329:_JS_WebRequest_Send
330:_JS_WebRequest_SetProgressHandler
331:_JS_WebRequest_SetRequestHeader
332:_JS_WebRequest_SetResponseHandler
333:_JS_WebRequest_SetTimeout
334:_SDL_GL_SwapBuffers
335:___cxa_allocate_exception
336:___cxa_begin_catch
337:___cxa_end_catch
338:___cxa_find_matching_catch_2
339:___cxa_find_matching_catch_3
340:___cxa_find_matching_catch_4
341:___cxa_free_exception
342:___cxa_pure_virtual
343:___cxa_rethrow
344:___cxa_throw
345:___lock
346:___map_file
347:___resumeException
348:___setErrNo
349:___syscall10
350:___syscall102
351:___syscall122
352:___syscall140
353:___syscall142
354:___syscall145
355:___syscall146
356:___syscall15
357:___syscall168
358:___syscall183
359:___syscall192
360:___syscall193
361:___syscall194
362:___syscall195
363:___syscall196
364:___syscall197
365:___syscall199
366:___syscall20
367:___syscall220
368:___syscall221
369:___syscall268
370:___syscall3
371:___syscall33
372:___syscall38
373:___syscall39
374:___syscall4
375:___syscall40
376:___syscall41
377:___syscall42
378:___syscall5
379:___syscall54
380:___syscall6
381:___syscall85
382:___syscall91
383:___unlock
384:_abort
385:_atexit
386:_clock
387:_clock_getres
388:_clock_gettime
389:_difftime
390:_dlopen
391:_dlsym
392:_emscripten_asm_const_i
393:_emscripten_asm_const_id
394:_emscripten_asm_const_iii
395:_emscripten_exit_fullscreen
396:_emscripten_exit_pointerlock
397:_emscripten_get_fullscreen_status
398:_emscripten_get_gamepad_status
399:_emscripten_get_main_loop_timing
400:_emscripten_get_now
401:_emscripten_get_num_gamepads
402:_emscripten_glActiveTexture
403:_emscripten_glAttachShader
404:_emscripten_glBindAttribLocation
405:_emscripten_glBindBuffer
406:_emscripten_glBindFramebuffer
407:_emscripten_glBindProgramARB
408:_emscripten_glBindRenderbuffer
409:_emscripten_glBindTexture
410:_emscripten_glBindVertexArray
411:_emscripten_glBlendColor
412:_emscripten_glBlendEquation
413:_emscripten_glBlendEquationSeparate
414:_emscripten_glBlendFunc
415:_emscripten_glBlendFuncSeparate
416:_emscripten_glBufferData
417:_emscripten_glBufferSubData
418:_emscripten_glCheckFramebufferStatus
419:_emscripten_glClear
420:_emscripten_glClearColor
421:_emscripten_glClearDepth
422:_emscripten_glClearDepthf
423:_emscripten_glClearStencil
424:_emscripten_glClientActiveTexture
425:_emscripten_glColorMask
426:_emscripten_glColorPointer
427:_emscripten_glCompileShader
428:_emscripten_glCompressedTexImage2D
429:_emscripten_glCompressedTexSubImage2D
430:_emscripten_glCopyTexImage2D
431:_emscripten_glCopyTexSubImage2D
432:_emscripten_glCreateProgram
433:_emscripten_glCreateShader
434:_emscripten_glCullFace
435:_emscripten_glDeleteBuffers
436:_emscripten_glDeleteFramebuffers
437:_emscripten_glDeleteObjectARB
438:_emscripten_glDeleteProgram
439:_emscripten_glDeleteRenderbuffers
440:_emscripten_glDeleteShader
441:_emscripten_glDeleteTextures
442:_emscripten_glDeleteVertexArrays
443:_emscripten_glDepthFunc
444:_emscripten_glDepthMask
445:_emscripten_glDepthRange
446:_emscripten_glDepthRangef
447:_emscripten_glDetachShader
448:_emscripten_glDisable
449:_emscripten_glDisableVertexAttribArray
450:_emscripten_glDrawArrays
451:_emscripten_glDrawArraysInstanced
452:_emscripten_glDrawBuffers
453:_emscripten_glDrawElements
454:_emscripten_glDrawElementsInstanced
455:_emscripten_glDrawRangeElements
456:_emscripten_glEnable
457:_emscripten_glEnableClientState
458:_emscripten_glEnableVertexAttribArray
459:_emscripten_glFinish
460:_emscripten_glFlush
461:_emscripten_glFramebufferRenderbuffer
462:_emscripten_glFramebufferTexture2D
463:_emscripten_glFrontFace
464:_emscripten_glFrustum
465:_emscripten_glGenBuffers
466:_emscripten_glGenFramebuffers
467:_emscripten_glGenRenderbuffers
468:_emscripten_glGenTextures
469:_emscripten_glGenVertexArrays
470:_emscripten_glGenerateMipmap
471:_emscripten_glGetActiveAttrib
472:_emscripten_glGetActiveUniform
473:_emscripten_glGetAttachedShaders
474:_emscripten_glGetAttribLocation
475:_emscripten_glGetBooleanv
476:_emscripten_glGetBufferParameteriv
477:_emscripten_glGetError
478:_emscripten_glGetFloatv
479:_emscripten_glGetFramebufferAttachmentParameteriv
480:_emscripten_glGetInfoLogARB
481:_emscripten_glGetIntegerv
482:_emscripten_glGetObjectParameterivARB
483:_emscripten_glGetPointerv
484:_emscripten_glGetProgramInfoLog
485:_emscripten_glGetProgramiv
486:_emscripten_glGetRenderbufferParameteriv
487:_emscripten_glGetShaderInfoLog
488:_emscripten_glGetShaderPrecisionFormat
489:_emscripten_glGetShaderSource
490:_emscripten_glGetShaderiv
491:_emscripten_glGetString
492:_emscripten_glGetTexParameterfv
493:_emscripten_glGetTexParameteriv
494:_emscripten_glGetUniformLocation
495:_emscripten_glGetUniformfv
496:_emscripten_glGetUniformiv
497:_emscripten_glGetVertexAttribPointerv
498:_emscripten_glGetVertexAttribfv
499:_emscripten_glGetVertexAttribiv
500:_emscripten_glHint
501:_emscripten_glIsBuffer
502:_emscripten_glIsEnabled
503:_emscripten_glIsFramebuffer
504:_emscripten_glIsProgram
505:_emscripten_glIsRenderbuffer
506:_emscripten_glIsShader
507:_emscripten_glIsTexture
508:_emscripten_glIsVertexArray
509:_emscripten_glLineWidth
510:_emscripten_glLinkProgram
511:_emscripten_glLoadIdentity
512:_emscripten_glLoadMatrixf
513:_emscripten_glMatrixMode
514:_emscripten_glNormalPointer
515:_emscripten_glPixelStorei
516:_emscripten_glPolygonOffset
517:_emscripten_glReadPixels
518:_emscripten_glReleaseShaderCompiler
519:_emscripten_glRenderbufferStorage
520:_emscripten_glRotatef
521:_emscripten_glSampleCoverage
522:_emscripten_glScissor
523:_emscripten_glShaderBinary
524:_emscripten_glShaderSource
525:_emscripten_glStencilFunc
526:_emscripten_glStencilFuncSeparate
527:_emscripten_glStencilMask
528:_emscripten_glStencilMaskSeparate
529:_emscripten_glStencilOp
530:_emscripten_glStencilOpSeparate
531:_emscripten_glTexCoordPointer
532:_emscripten_glTexImage2D
533:_emscripten_glTexParameterf
534:_emscripten_glTexParameterfv
535:_emscripten_glTexParameteri
536:_emscripten_glTexParameteriv
537:_emscripten_glTexSubImage2D
538:_emscripten_glUniform1f
539:_emscripten_glUniform1fv
540:_emscripten_glUniform1i
541:_emscripten_glUniform1iv
542:_emscripten_glUniform2f
543:_emscripten_glUniform2fv
544:_emscripten_glUniform2i
545:_emscripten_glUniform2iv
546:_emscripten_glUniform3f
547:_emscripten_glUniform3fv
548:_emscripten_glUniform3i
549:_emscripten_glUniform3iv
550:_emscripten_glUniform4f
551:_emscripten_glUniform4fv
552:_emscripten_glUniform4i
553:_emscripten_glUniform4iv
554:_emscripten_glUniformMatrix2fv
555:_emscripten_glUniformMatrix3fv
556:_emscripten_glUniformMatrix4fv
557:_emscripten_glUseProgram
558:_emscripten_glValidateProgram
559:_emscripten_glVertexAttrib1f
560:_emscripten_glVertexAttrib1fv
561:_emscripten_glVertexAttrib2f
562:_emscripten_glVertexAttrib2fv
563:_emscripten_glVertexAttrib3f
564:_emscripten_glVertexAttrib3fv
565:_emscripten_glVertexAttrib4f
566:_emscripten_glVertexAttrib4fv
567:_emscripten_glVertexAttribDivisor
568:_emscripten_glVertexAttribPointer
569:_emscripten_glVertexPointer
570:_emscripten_glViewport
571:_emscripten_is_webgl_context_lost
572:_emscripten_memcpy_big
573:_emscripten_request_fullscreen
574:_emscripten_request_pointerlock
575:_emscripten_set_blur_callback
576:_emscripten_set_canvas_size
577:_emscripten_set_devicemotion_callback
578:_emscripten_set_deviceorientation_callback
579:_emscripten_set_focus_callback
580:_emscripten_set_fullscreenchange_callback
581:_emscripten_set_keydown_callback
582:_emscripten_set_keypress_callback
583:_emscripten_set_keyup_callback
584:_emscripten_set_main_loop
585:_emscripten_set_main_loop_timing
586:_emscripten_set_mousedown_callback
587:_emscripten_set_mousemove_callback
588:_emscripten_set_mouseup_callback
589:_emscripten_set_touchcancel_callback
590:_emscripten_set_touchend_callback
591:_emscripten_set_touchmove_callback
592:_emscripten_set_touchstart_callback
593:_emscripten_set_wheel_callback
594:_emscripten_webgl_create_context
595:_emscripten_webgl_destroy_context
596:_emscripten_webgl_enable_extension
597:_emscripten_webgl_get_current_context
598:_emscripten_webgl_make_context_current
599:_exit
600:_flock
601:_getenv
602:_getpwuid
603:_gettimeofday
604:_glActiveTexture
605:_glAttachShader
606:_glBeginQuery
607:_glBeginTransformFeedback
608:_glBindAttribLocation
609:_glBindBuffer
610:_glBindBufferBase
611:_glBindFramebuffer
612:_glBindRenderbuffer
613:_glBindSampler
614:_glBindTexture
615:_glBindTransformFeedback
616:_glBindVertexArray
617:_glBlendEquation
618:_glBlendEquationSeparate
619:_glBlendFuncSeparate
620:_glBlitFramebuffer
621:_glBufferData
622:_glBufferSubData
623:_glCheckFramebufferStatus
624:_glClear
625:_glClearColor
626:_glClearDepthf
627:_glClearStencil
628:_glColorMask
629:_glCompileShader
630:_glCompressedTexImage2D
631:_glCompressedTexSubImage2D
632:_glCompressedTexSubImage3D
633:_glCopyBufferSubData
634:_glCopyTexImage2D
635:_glCopyTexSubImage2D
636:_glCreateProgram
637:_glCreateShader
638:_glCullFace
639:_glDeleteBuffers
640:_glDeleteFramebuffers
641:_glDeleteProgram
642:_glDeleteQueries
643:_glDeleteRenderbuffers
644:_glDeleteSamplers
645:_glDeleteShader
646:_glDeleteSync
647:_glDeleteTextures
648:_glDeleteTransformFeedbacks
649:_glDeleteVertexArrays
650:_glDepthFunc
651:_glDepthMask
652:_glDetachShader
653:_glDisable
654:_glDisableVertexAttribArray
655:_glDrawArrays
656:_glDrawArraysInstanced
657:_glDrawBuffers
658:_glDrawElements
659:_glDrawElementsInstanced
660:_glEnable
661:_glEnableVertexAttribArray
662:_glEndQuery
663:_glEndTransformFeedback
664:_glFenceSync
665:_glFinish
666:_glFlush
667:_glFlushMappedBufferRange
668:_glFramebufferRenderbuffer
669:_glFramebufferTexture2D
670:_glFramebufferTextureLayer
671:_glFrontFace
672:_glGenBuffers
673:_glGenFramebuffers
674:_glGenQueries
675:_glGenRenderbuffers
676:_glGenSamplers
677:_glGenTextures
678:_glGenTransformFeedbacks
679:_glGenVertexArrays
680:_glGenerateMipmap
681:_glGetActiveAttrib
682:_glGetActiveUniform
683:_glGetActiveUniformBlockName
684:_glGetActiveUniformBlockiv
685:_glGetActiveUniformsiv
686:_glGetAttribLocation
687:_glGetError
688:_glGetFramebufferAttachmentParameteriv
689:_glGetIntegeri_v
690:_glGetIntegerv
691:_glGetProgramBinary
692:_glGetProgramInfoLog
693:_glGetProgramiv
694:_glGetRenderbufferParameteriv
695:_glGetShaderInfoLog
696:_glGetShaderPrecisionFormat
697:_glGetShaderSource
698:_glGetShaderiv
699:_glGetString
700:_glGetStringi
701:_glGetTexParameteriv
702:_glGetUniformBlockIndex
703:_glGetUniformIndices
704:_glGetUniformLocation
705:_glGetUniformiv
706:_glGetVertexAttribiv
707:_glInvalidateFramebuffer
708:_glIsEnabled
709:_glIsVertexArray
710:_glLinkProgram
711:_glMapBufferRange
712:_glPixelStorei
713:_glPolygonOffset
714:_glProgramBinary
715:_glProgramParameteri
716:_glReadBuffer
717:_glReadPixels
718:_glRenderbufferStorage
719:_glRenderbufferStorageMultisample
720:_glSamplerParameteri
721:_glScissor
722:_glShaderSource
723:_glStencilFuncSeparate
724:_glStencilMask
725:_glStencilOpSeparate
726:_glTexImage2D
727:_glTexImage3D
728:_glTexParameterf
729:_glTexParameteri
730:_glTexParameteriv
731:_glTexStorage2D
732:_glTexStorage3D
733:_glTexSubImage2D
734:_glTexSubImage3D
735:_glTransformFeedbackVaryings
736:_glUniform1fv
737:_glUniform1i
738:_glUniform1iv
739:_glUniform1uiv
740:_glUniform2fv
741:_glUniform2iv
742:_glUniform2uiv
743:_glUniform3fv
744:_glUniform3iv
745:_glUniform3uiv
746:_glUniform4fv
747:_glUniform4iv
748:_glUniform4uiv
749:_glUniformBlockBinding
750:_glUniformMatrix3fv
751:_glUniformMatrix4fv
752:_glUnmapBuffer
753:_glUseProgram
754:_glValidateProgram
755:_glVertexAttrib4f
756:_glVertexAttrib4fv
757:_glVertexAttribIPointer
758:_glVertexAttribPointer
759:_glViewport
760:_gmtime
761:_inet_addr
762:_llvm_eh_typeid_for
763:_llvm_exp2_f32
764:_llvm_trap
765:_localtime
766:_longjmp
767:_mktime
768:_pthread_attr_destroy
769:_pthread_attr_init
770:_pthread_cond_destroy
771:_pthread_cond_init
772:_pthread_cond_signal
773:_pthread_cond_timedwait
774:_pthread_cond_wait
775:_pthread_create
776:_pthread_detach
777:_pthread_getspecific
778:_pthread_key_create
779:_pthread_key_delete
780:_pthread_mutex_destroy
781:_pthread_mutex_init
782:_pthread_mutexattr_destroy
783:_pthread_mutexattr_init
784:_pthread_mutexattr_settype
785:_pthread_once
786:_pthread_setspecific
787:_sched_yield
788:_setenv
789:_strftime
790:_sysconf
791:_time
792:_unsetenv
793:_utime
794:legalimport$invoke_iiiiij
795:legalimport$invoke_iiijii
796:legalimport$invoke_iij
797:legalimport$invoke_j
798:legalimport$invoke_ji
799:legalimport$invoke_jii
800:legalimport$invoke_jiii
801:legalimport$invoke_jiiji
802:legalimport$invoke_viiiji
803:legalimport$invoke_viij
804:legalimport$invoke_viji
805:legalimport$invoke_vijii
806:legalimport$_glClientWaitSync
807:__growWasmMemory
808:stackAlloc
809:stackSave
810:stackRestore
811:establishStackSpace
812:setThrew
813:setTempRet0
814:getTempRet0
815:__GLOBAL__sub_I_AccessibilityScriptingClasses_cpp
816:__ZL54__ManagedRegistrationHelperFunction_VisionUtilityProxyPv
817:__ZN9Scripting11UnityEngine13Accessibility18VisionUtilityProxy9InitProxyEv
818:__ZN9Scripting11UnityEngine13Accessibility18VisionUtilityProxy12CleanupProxyEv
819:__GLOBAL__sub_I_AIScriptingClasses_cpp
820:___cxx_global_var_init_46
821:___cxx_global_var_init_47
822:__GLOBAL__sub_I_Modules_AI_0_cpp
823:__GLOBAL__sub_I_Modules_AI_Builder_0_cpp
824:__GLOBAL__sub_I_Modules_AI_Crowd_0_cpp
825:__GLOBAL__sub_I_Modules_AI_NavMesh_0_cpp
826:__GLOBAL__sub_I_Modules_AI_Obstacles_0_cpp
827:__ZN9profiling17CallbacksProfilerIZ24InitializeNavMeshManagervE42PreLateUpdateAIUpdatePostScriptRegistratorE12SamplerCache7CleanupEPv
828:__ZL48__ManagedRegistrationHelperFunction_NavMeshProxyPv
829:__ZL59__ManagedRegistrationHelperFunction_NavMeshBuildSourceProxyPv
830:__ZL61__ManagedRegistrationHelperFunction_NavMeshTriangulationProxyPv
831:__ZN9Scripting11UnityEngine2AI25NavMeshTriangulationProxy9InitProxyEv
832:__ZN9Scripting11UnityEngine2AI25NavMeshTriangulationProxy12CleanupProxyEv
833:__ZN9Scripting11UnityEngine2AI23NavMeshBuildSourceProxy9InitProxyEv
834:__ZN9Scripting11UnityEngine2AI23NavMeshBuildSourceProxy12CleanupProxyEv
835:__ZN9Scripting11UnityEngine2AI12NavMeshProxy9InitProxyEv
836:__ZN9Scripting11UnityEngine2AI12NavMeshProxy12CleanupProxyEv
837:__ZN6Object21AwakeFromLoadThreadedEv
838:__ZN6Object17IsAScriptedObjectEv
839:__ZNK16LevelGameManager7GetNameEv
840:__ZN6Object7SetNameEPKc
841:__ZN6Object12SetHideFlagsENS_9HideFlagsE
842:__ZNK9Behaviour10HasEnabledEv
843:__ZNK9Behaviour10GetEnabledEv
844:__ZNSt3__213__tree_removeIPNS_16__tree_node_baseIPvEEEEvT_S5_
845:__Z17CalculateGlobalRS23TransformAccessReadOnly
846:__Z23CalculateGlobalPosition23TransformAccessReadOnly
847:__ZN15EditorExtensionD2Ev
848:__ZN15EditorExtensionD0Ev
849:__ZNK15EditorExtension22GetTypeVirtualInternalEv
850:__ZNK6Object7GetNameEv
851:__ZN8Vector3f8TransferI14SafeBinaryReadEEvRT_
852:__ZN4PPtrI9TransformE8TransferI14SafeBinaryReadEEvRT_
853:__ZN4PPtrI9TransformE8TransferI18StreamedBinaryReadEEvRT_
854:__ZN4PPtrI9TransformE8TransferI19StreamedBinaryWriteEEvRT_
855:__ZNK4PPtrI9TransformEcvPS0_Ev
856:__ZNK4PPtrI9TransformEptEv
857:__ZNK11NamedObject7GetNameEv
858:__ZN4AABB8TransferI14SafeBinaryReadEEvRT_
859:__ZN11Quaternionf8TransferI14SafeBinaryReadEEvRT_
860:__ZN14SafeBinaryRead21TransferSTLStyleArrayI13dynamic_arrayI8Vector3fLj0EEEEvRT_17TransferMetaFlags
861:__ZN14SafeBinaryRead21TransferSTLStyleArrayI13dynamic_arrayIiLj0EEEEvRT_17TransferMetaFlags
862:__ZN14SafeBinaryRead21TransferSTLStyleArrayI13dynamic_arrayIhLj0EEEEvRT_17TransferMetaFlags
863:__ZN7Hash1288TransferI14SafeBinaryReadEEvRT_
864:__ZN11Quaternionf8TransferI24GenerateTypeTreeTransferEEvRT_
865:__ZN7Hash1288TransferI24GenerateTypeTreeTransferEEvRT_
866:__ZN4AABB8TransferI18StreamedBinaryReadEEvRT_
867:__ZN18StreamedBinaryRead8TransferI11QuaternionfEEvRT_PKc17TransferMetaFlags
868:__ZN18StreamedBinaryRead21TransferSTLStyleArrayI13dynamic_arrayI8Vector3fLj0EEEEvRT_17TransferMetaFlags
869:__ZN18StreamedBinaryRead21TransferSTLStyleArrayI13dynamic_arrayIiLj0EEEEvRT_17TransferMetaFlags
870:__ZN18StreamedBinaryRead21TransferSTLStyleArrayI13dynamic_arrayIhLj0EEEEvRT_17TransferMetaFlags
871:__ZN7Hash1288TransferI18StreamedBinaryReadEEvRT_
872:__ZN4AABB8TransferI19StreamedBinaryWriteEEvRT_
873:__ZN7Hash1288TransferI19StreamedBinaryWriteEEvRT_
874:__ZN4core20StringStorageDefaultIcE6assignERKS1_
875:__ZN4core12basic_stringIcNS_20StringStorageDefaultIcEEE6assignEPKc
876:i32s-div
877:__ZN14SafeBinaryRead21TransferSTLStyleArrayINSt3__26vectorIN4core12basic_stringIcNS3_20StringStorageDefaultIcEEEENS1_9allocatorIS7_EEEEEEvRT_17TransferMetaFlags
878:__ZNSt3__26vectorIN4core12basic_stringIcNS1_20StringStorageDefaultIcEEEENS_9allocatorIS5_EEE8__appendEj
879:__Z14resize_trimmedINSt3__26vectorIN4core12basic_stringIcNS2_20StringStorageDefaultIcEEEENS0_9allocatorIS6_EEEEEvRT_j
880:__ZN14SafeBinaryRead21TransferSTLStyleArrayIN4core12basic_stringIcNS1_20StringStorageDefaultIcEEEEEEvRT_17TransferMetaFlags
881:__ZN4core20StringStorageDefaultIcE10reallocateEj
882:__ZNSt3__26vectorIN4core12basic_stringIcNS1_20StringStorageDefaultIcEEEENS_9allocatorIS5_EEE7reserveEj
883:__ZNSt3__26vectorIN4core12basic_stringIcNS1_20StringStorageDefaultIcEEEENS_9allocatorIS5_EEE6assignINS_11__wrap_iterIPS5_EEEENS_9enable_ifIXaasr21__is_forward_iteratorIT_EE5valuesr16is_constructibleIS5_NS_15iterator_traitsISE_E9referenceEEE5valueEvE4typeESE_SE_
884:__ZN18StreamedBinaryRead21TransferSTLStyleArrayIN4core12basic_stringIcNS1_20StringStorageDefaultIcEEEEEEvRT_17TransferMetaFlags
885:__ZN19StreamedBinaryWrite21TransferSTLStyleArrayIN4core12basic_stringIcNS1_20StringStorageDefaultIcEEEEEEvRT_17TransferMetaFlags
886:__ZNK4PPtrI6ObjectEcvPS0_Ev
887:__ZNSt3__227__tree_balance_after_insertIPNS_16__tree_node_baseIPvEEEEvT_S5_
888:__ZNSt3__26vectorIN4core12basic_stringIcNS1_20StringStorageDefaultIcEEEENS_9allocatorIS5_EEE21__push_back_slow_pathIRKS5_EEvOT_
889:__ZN14SharedMeshDataD2Ev
890:__Z18TransformDirection23TransformAccessReadOnlyRKN4math7_float3E
891:__Z24InverseTransformRotationRK23TransformAccessReadOnlyRKN4math7_float4E
892:__Z9SetLocalR15TransformAccessRKN4math7_float4Ey
893:__Z24InverseTransformPosition23TransformAccessReadOnlyRKN4math7_float3E
894:__Z25InverseTransformDirection23TransformAccessReadOnlyRKN4math7_float3Eb
895:__GLOBAL__sub_I_AnimationScriptingClasses_cpp
896:__GLOBAL__sub_I_Runtime_Animation_0_cpp
897:___cxx_global_var_init_31
898:___cxx_global_var_init_32
899:__GLOBAL__sub_I_Runtime_Animation_1_cpp
900:__GLOBAL__sub_I_Runtime_Animation_2_cpp
901:__GLOBAL__sub_I_Runtime_Animation_3_cpp
902:__GLOBAL__sub_I_Runtime_Animation_4_cpp
903:__GLOBAL__sub_I_Runtime_Animation_5_cpp
904:__GLOBAL__sub_I_Runtime_Animation_Director_1_cpp
905:__GLOBAL__sub_I_AnimationClip_cpp
906:__GLOBAL__sub_I_Avatar_cpp
907:__GLOBAL__sub_I_ConstraintJob_cpp
908:___cxx_global_var_init_7
909:__GLOBAL__sub_I_ConstraintManager_cpp
910:__GLOBAL__sub_I_clipmuscle_cpp
911:__ZN13RuntimeStaticI17ConstraintManagerLb0EE16StaticInitializeEPv
912:__ZN13RuntimeStaticI17ConstraintManagerLb0EE13StaticDestroyEPv
913:__ZN13RuntimeStaticI17ConstraintManagerLb0EE10InitializeEv
914:__ZZN17ConstraintManager15InitializeClassEvEN47PreLateUpdateConstraintManagerUpdateRegistrator7ForwardEv
915:__ZN17ConstraintManagerD2Ev
916:__ZN17ConstraintManagerD0Ev
917:__ZN17ConstraintManager6UpdateEv
918:i32u-div
919:__ZN4core8hash_setINS_4pairIKPK10GameObjectiLb0EEENS_9hash_pairINS_4hashIS4_EES5_iEENS_10equal_pairINSt3__28equal_toIS4_EES5_iEEE4growEi
920:__ZN4core8hash_mapIPK10GameObjectiNS_4hashIS3_EENSt3__28equal_toIS3_EEEixERKS3_
921:__ZN4core8hash_setIPN5Unity9ComponentENS_4hashIS3_EENSt3__28equal_toIS3_EEE4growEi
922:__ZL23GetComponentsInChildrenRK10GameObjectPFbRKN5Unity9ComponentEERN4core8hash_setIPS3_NS8_4hashISA_EENSt3__28equal_toISA_EEEE
923:__ZNSt3__26__sortIR23DependencySortPredicatePN4core4pairIiP9BehaviourLb0EEEEEvT0_S9_T_
924:__ZL32GetComponentsInConstraintSourcesRK11IConstraintPFbRKN5Unity9ComponentEERN4core8hash_setIPS3_NS8_4hashISA_EENSt3__28equal_toISA_EEEE
925:__ZN4core4pairIi13dynamic_arrayIP9BehaviourLj0EELb1EEC2ERKiRKS4_RK10MemLabelId
926:__ZN4core4pairIi13dynamic_arrayIP9BehaviourLj0EELb1EEC2IiS4_EERKNS0_IT_T0_Lb1EEERK10MemLabelId
927:__ZN13dynamic_arrayIN4math4trsXELj0EE18resize_initializedEjRKS1_12ResizePolicy
928:f32-to-int
929:__ZN13ConstraintJob18ComputeConstraintsEPNS_17ConstraintJobDataEj
930:__ZN13dynamic_arrayIN13ConstraintJob23ConstraintComponentDataELj0EE9push_backERKS1_
931:__Z10destruct_nIN13ConstraintJob23ConstraintComponentDataEEvPT_j
932:__Z11SetLocalTRS15TransformAccessRKN4math7_float3ERKNS0_7_float4ES3_y
933:__ZN13ConstraintJob23ConstraintComponentDataC2ERK16LookAtConstraint
934:__ZN13dynamic_arrayIN4math14float3_storageELj0EE18resize_initializedEjRKS1_12ResizePolicy
935:__ZN13ConstraintJob23ConstraintComponentDataC2ERK16ParentConstraint
936:__ZNK16ParentConstraint18GetTranslationAxisEv
937:__ZNK16ParentConstraint15GetRotationAxisEv
938:__ZN13ConstraintJob23ConstraintComponentDataC2ERK13AimConstraint
939:__ZNK13AimConstraint15GetRotationAxisEv
940:__ZN13ConstraintJob23ConstraintComponentDataC2ERK15ScaleConstraint
941:__ZNK15ScaleConstraint14GetScalingAxisEv
942:__ZN13ConstraintJob23ConstraintComponentDataC2ERK18RotationConstraint
943:__ZN13ConstraintJob23ConstraintComponentDataC2ERKS0_
944:__ZN13ConstraintJob23ConstraintComponentDataC2ERK18PositionConstraint
945:__Z21InverseTransformScale23TransformAccessReadOnlyRKN4math7_float3E
946:__Z34CalculateGlobalPositionAndRotation23TransformAccessReadOnlyRKN4math7_float3ERKNS0_7_float4E
947:__ZL17quatArcRotateSafeRKN4math7_float3ES2_
948:__ZL22GetComponentsInParentsRK10GameObjectPFbRKN5Unity9ComponentEERN4core8hash_setIPS3_NS8_4hashISA_EENSt3__28equal_toISA_EEEE
949:__ZN4core8hash_setIPN5Unity9ComponentENS_4hashIS3_EENSt3__28equal_toIS3_EEE6insertERKS3_
950:__ZNSt3__27__sort4IR23DependencySortPredicatePN4core4pairIiP9BehaviourLb0EEEEEjT0_S9_S9_S9_T_
951:__ZNSt3__227__insertion_sort_incompleteIR23DependencySortPredicatePN4core4pairIiP9BehaviourLb0EEEEEbT0_S9_T_
952:__ZN13RuntimeStaticI15AnimationBinderLb0EE16StaticInitializeEPv
953:__ZN13RuntimeStaticI15AnimationBinderLb0EE13StaticDestroyEPv
954:__ZN15AnimationBinderD2Ev
955:__ZNSt3__26__treeINS_12__value_typeIPKN5Unity4TypeEPK8TypeTreeEENS_19__map_value_compareIS5_S9_NS_4lessIS5_EELb1EEENS_9allocatorIS9_EEE7destroyEPNS_11__tree_nodeIS9_PvEE
956:__ZN13RuntimeStaticI15AnimationBinderLb0EE10InitializeEv
957:__ZN11UnityEngine9Animation38InitializeGenericAnimationBindingCacheEPv
958:__ZN11UnityEngine9Animation35CleanupGenericAnimationBindingCacheEPv
959:__ZN11UnityEngine9Animation28GenericAnimationBindingCacheD2Ev
960:__ZN11UnityEngine9Animation28GenericAnimationBindingCache15DidReloadDomainE19AssemblyLoadFailure
961:__ZN11UnityEngine9Animation28GenericAnimationBindingCacheC2Ev
962:__ZN13dynamic_arrayIPN11UnityEngine9Animation23CachedComponentBindingsELj0EE18resize_initializedEjRKS3_12ResizePolicy
963:__ZL55__ManagedRegistrationHelperFunction_AnimationEventProxyPv
964:__ZL54__ManagedRegistrationHelperFunction_AimConstraintProxyPv
965:__ZL62__ManagedRegistrationHelperFunction_AnimationClipPlayableProxyPv
966:__ZL68__ManagedRegistrationHelperFunction_AnimationLayerMixerPlayableProxyPv
967:__ZL63__ManagedRegistrationHelperFunction_AnimationMixerPlayableProxyPv
968:__ZL72__ManagedRegistrationHelperFunction_AnimationMotionXToDeltaPlayableProxyPv
969:__ZL64__ManagedRegistrationHelperFunction_AnimationOffsetPlayableProxyPv
970:__ZL64__ManagedRegistrationHelperFunction_AnimationPlayableOutputProxyPv
971:__ZL67__ManagedRegistrationHelperFunction_AnimatorControllerPlayableProxyPv
972:__ZL57__ManagedRegistrationHelperFunction_ConstraintSourceProxyPv
973:__ZL57__ManagedRegistrationHelperFunction_LookAtConstraintProxyPv
974:__ZL57__ManagedRegistrationHelperFunction_ParentConstraintProxyPv
975:__ZL59__ManagedRegistrationHelperFunction_PositionConstraintProxyPv
976:__ZL59__ManagedRegistrationHelperFunction_RotationConstraintProxyPv
977:__ZL56__ManagedRegistrationHelperFunction_ScaleConstraintProxyPv
978:__ZL55__ManagedRegistrationHelperFunction_AnimationStateProxyPv
979:__ZL49__ManagedRegistrationHelperFunction_AnimatorProxyPv
980:__ZL57__ManagedRegistrationHelperFunction_AnimatorClipInfoProxyPv
981:__ZL68__ManagedRegistrationHelperFunction_AnimatorControllerParameterProxyPv
982:__ZL66__ManagedRegistrationHelperFunction_RuntimeAnimatorControllerProxyPv
983:__ZL67__ManagedRegistrationHelperFunction_AnimatorOverrideControllerProxyPv
984:__ZL58__ManagedRegistrationHelperFunction_AnimatorStateInfoProxyPv
985:__ZL63__ManagedRegistrationHelperFunction_AnimatorTransitionInfoProxyPv
986:__ZL47__ManagedRegistrationHelperFunction_AvatarProxyPv
987:__ZL51__ManagedRegistrationHelperFunction_AvatarMaskProxyPv
988:__ZL61__ManagedRegistrationHelperFunction_AnimationHumanStreamProxyPv
989:__ZL64__ManagedRegistrationHelperFunction_AnimationScriptPlayableProxyPv
990:__ZL56__ManagedRegistrationHelperFunction_AnimationStreamProxyPv
991:__ZL50__ManagedRegistrationHelperFunction_HumanBoneProxyPv
992:__ZL72__ManagedRegistrationHelperFunction_SharedBetweenAnimatorsAttributeProxyPv
993:__ZL53__ManagedRegistrationHelperFunction_SkeletonBoneProxyPv
994:__ZL62__ManagedRegistrationHelperFunction_StateMachineBehaviourProxyPv
995:__ZN9Scripting11UnityEngine26StateMachineBehaviourProxy9InitProxyEv
996:__ZN9Scripting11UnityEngine26StateMachineBehaviourProxy12CleanupProxyEv
997:__ZN9Scripting11UnityEngine17SkeletonBoneProxy9InitProxyEv
998:__ZN9Scripting11UnityEngine17SkeletonBoneProxy12CleanupProxyEv
999:__ZN9Scripting11UnityEngine36SharedBetweenAnimatorsAttributeProxy9InitProxyEv
1000:__ZN9Scripting11UnityEngine36SharedBetweenAnimatorsAttributeProxy12CleanupProxyEv
1001:__ZN9Scripting11UnityEngine14HumanBoneProxy9InitProxyEv
1002:__ZN9Scripting11UnityEngine14HumanBoneProxy12CleanupProxyEv
1003:__ZN9Scripting11UnityEngine12Experimental10Animations20AnimationStreamProxy9InitProxyEv
1004:__ZN9Scripting11UnityEngine12Experimental10Animations20AnimationStreamProxy12CleanupProxyEv
1005:__ZN9Scripting11UnityEngine12Experimental10Animations28AnimationScriptPlayableProxy9InitProxyEv
1006:__ZN9Scripting11UnityEngine12Experimental10Animations28AnimationScriptPlayableProxy12CleanupProxyEv
1007:__ZN9Scripting11UnityEngine12Experimental10Animations25AnimationHumanStreamProxy9InitProxyEv
1008:__ZN9Scripting11UnityEngine12Experimental10Animations25AnimationHumanStreamProxy12CleanupProxyEv
1009:__ZN9Scripting11UnityEngine15AvatarMaskProxy9InitProxyEv
1010:__ZN9Scripting11UnityEngine15AvatarMaskProxy12CleanupProxyEv
1011:__ZN9Scripting11UnityEngine11AvatarProxy9InitProxyEv
1012:__ZN9Scripting11UnityEngine11AvatarProxy12CleanupProxyEv
1013:__ZN9Scripting11UnityEngine27AnimatorTransitionInfoProxy9InitProxyEv
1014:__ZN9Scripting11UnityEngine27AnimatorTransitionInfoProxy12CleanupProxyEv
1015:__ZN9Scripting11UnityEngine22AnimatorStateInfoProxy9InitProxyEv
1016:__ZN9Scripting11UnityEngine22AnimatorStateInfoProxy12CleanupProxyEv
1017:__ZN9Scripting11UnityEngine31AnimatorOverrideControllerProxy9InitProxyEv
1018:__ZN9Scripting11UnityEngine31AnimatorOverrideControllerProxy12CleanupProxyEv
1019:__ZN9Scripting11UnityEngine30RuntimeAnimatorControllerProxy9InitProxyEv
1020:__ZN9Scripting11UnityEngine30RuntimeAnimatorControllerProxy12CleanupProxyEv
1021:__ZN9Scripting11UnityEngine32AnimatorControllerParameterProxy9InitProxyEv
1022:__ZN9Scripting11UnityEngine32AnimatorControllerParameterProxy12CleanupProxyEv
1023:__ZN9Scripting11UnityEngine21AnimatorClipInfoProxy9InitProxyEv
1024:__ZN9Scripting11UnityEngine21AnimatorClipInfoProxy12CleanupProxyEv
1025:__ZN9Scripting11UnityEngine13AnimatorProxy9InitProxyEv
1026:__ZN9Scripting11UnityEngine13AnimatorProxy12CleanupProxyEv
1027:__ZN9Scripting11UnityEngine19AnimationStateProxy9InitProxyEv
1028:__ZN9Scripting11UnityEngine19AnimationStateProxy12CleanupProxyEv
1029:__ZN9Scripting11UnityEngine10Animations20ScaleConstraintProxy9InitProxyEv
1030:__ZN9Scripting11UnityEngine10Animations20ScaleConstraintProxy12CleanupProxyEv
1031:__ZN9Scripting11UnityEngine10Animations23RotationConstraintProxy9InitProxyEv
1032:__ZN9Scripting11UnityEngine10Animations23RotationConstraintProxy12CleanupProxyEv
1033:__ZN9Scripting11UnityEngine10Animations23PositionConstraintProxy9InitProxyEv
1034:__ZN9Scripting11UnityEngine10Animations23PositionConstraintProxy12CleanupProxyEv
1035:__ZN9Scripting11UnityEngine10Animations21ParentConstraintProxy9InitProxyEv
1036:__ZN9Scripting11UnityEngine10Animations21ParentConstraintProxy12CleanupProxyEv
1037:__ZN9Scripting11UnityEngine10Animations21LookAtConstraintProxy9InitProxyEv
1038:__ZN9Scripting11UnityEngine10Animations21LookAtConstraintProxy12CleanupProxyEv
1039:__ZN9Scripting11UnityEngine10Animations21ConstraintSourceProxy9InitProxyEv
1040:__ZN9Scripting11UnityEngine10Animations21ConstraintSourceProxy12CleanupProxyEv
1041:__ZN9Scripting11UnityEngine10Animations31AnimatorControllerPlayableProxy9InitProxyEv
1042:__ZN9Scripting11UnityEngine10Animations31AnimatorControllerPlayableProxy12CleanupProxyEv
1043:__ZN9Scripting11UnityEngine10Animations28AnimationPlayableOutputProxy9InitProxyEv
1044:__ZN9Scripting11UnityEngine10Animations28AnimationPlayableOutputProxy12CleanupProxyEv
1045:__ZN9Scripting11UnityEngine10Animations28AnimationOffsetPlayableProxy9InitProxyEv
1046:__ZN9Scripting11UnityEngine10Animations28AnimationOffsetPlayableProxy12CleanupProxyEv
1047:__ZN9Scripting11UnityEngine10Animations36AnimationMotionXToDeltaPlayableProxy9InitProxyEv
1048:__ZN9Scripting11UnityEngine10Animations36AnimationMotionXToDeltaPlayableProxy12CleanupProxyEv
1049:__ZN9Scripting11UnityEngine10Animations27AnimationMixerPlayableProxy9InitProxyEv
1050:__ZN9Scripting11UnityEngine10Animations27AnimationMixerPlayableProxy12CleanupProxyEv
1051:__ZN9Scripting11UnityEngine10Animations32AnimationLayerMixerPlayableProxy9InitProxyEv
1052:__ZN9Scripting11UnityEngine10Animations32AnimationLayerMixerPlayableProxy12CleanupProxyEv
1053:__ZN9Scripting11UnityEngine10Animations26AnimationClipPlayableProxy9InitProxyEv
1054:__ZN9Scripting11UnityEngine10Animations26AnimationClipPlayableProxy12CleanupProxyEv
1055:__ZN9Scripting11UnityEngine10Animations18AimConstraintProxy9InitProxyEv
1056:__ZN9Scripting11UnityEngine10Animations18AimConstraintProxy12CleanupProxyEv
1057:__ZN9Scripting11UnityEngine19AnimationEventProxy9InitProxyEv
1058:__ZN9Scripting11UnityEngine19AnimationEventProxy12CleanupProxyEv
1059:__ZN16MecanimAnimation19PathHashesToIndicesERN5Unity9ComponentEPKjjPt
1060:__ZN16MecanimAnimation25RegisterIAnimationBindingEPKN5Unity4TypeEiP17IAnimationBinding
1061:__ZN16MecanimAnimation40GetReadWriteGlobalSpaceSkeletonPoseFenceEPN5Unity9ComponentE
1062:__ZN16MecanimAnimation23BuildAnimatedPropertiesEPK6Object18ScriptingObjectPtr
1063:__ZN16MecanimAnimation24DeleteAnimatedPropertiesERP26IAnimatedPropertyEvaluator
1064:__ZN16MecanimAnimationD0Ev
1065:__ZN23AnimatedPropertyBuilder5BuildEP13AnimationClip18ScriptingObjectPtr
1066:__ZN25AnimatedPropertyEvaluator25BuildFromScriptableObjectEP13AnimationClip18ScriptingObjectPtr
1067:__ZN25AnimatedPropertyEvaluator29BindCurveToScriptingObjectPtrERKN13AnimationClip10FloatCurveEj18ScriptingObjectPtrb
1068:__ZN16AnimatedPropertyC2ERK16PropertyAccessorRK17AnimationCurveTplIfE
1069:__ZN25AnimatedPropertyEvaluatorC2Ev
1070:__ZN25AnimatedPropertyEvaluatorD2Ev
1071:__ZN25AnimatedPropertyEvaluatorD0Ev
1072:__ZN25AnimatedPropertyEvaluator10UpdateSyncEf18ScriptingObjectPtr
1073:__ZN16AnimatedProperty6UpdateEf18ScriptingObjectPtr
1074:__ZN16AnimatedPropertyD2Ev
1075:__ZN8Animator17GetAvatarConstantEv
1076:__ZN7mecanim8skeleton16SkeletonFindNodeEPKNS0_8SkeletonEj
1077:__ZN8Animator9GetAvatarEv
1078:__ZN6Avatar8GetAssetEv
1079:__ZN8Animator18SetupAvatarDataSetEPKN7mecanim9animation14AvatarConstantERNS_13AvatarDataSetEb
1080:__ZN7mecanim9animation20CreateAvatarConstantEPNS_8skeleton8SkeletonEPNS1_13SkeletonPoseTIN4math4trsXEEES8_PNS_5human5HumanES3_iRKS6_R20RuntimeBaseAllocator
1081:__ZN7mecanim9animation18CreateAvatarMemoryEPKNS0_14AvatarConstantER20RuntimeBaseAllocator
1082:__ZN7mecanim9animation17CreateAvatarInputEPKNS0_14AvatarConstantER20RuntimeBaseAllocator
1083:__ZN7mecanim9animation21CreateAvatarWorkspaceEPKNS0_14AvatarConstantER20RuntimeBaseAllocator
1084:__ZN7mecanim9animation18CreateAvatarOutputEPKNS0_14AvatarConstantEbbR20RuntimeBaseAllocator
1085:__ZN8Animator13GetAvatarRootEv
1086:__ZN11UnityEngine9Animation27CreateAvatarBindingConstantER9TransformPKN7mecanim9animation14AvatarConstantER20RuntimeBaseAllocator
1087:__ZN11UnityEngine9Animation30CreateAvatarBindingConstantOptER9TransformPKN7mecanim9animation14AvatarConstantER20RuntimeBaseAllocator
1088:__Z17CalculateGlobalSM23TransformAccessReadOnlyRKN4math7_float4E
1089:__ZN11UnityEngine9Animation36GenerateTransformBindingMapRecursiveER9TransformRK5crc32R13dynamic_arrayINS0_14BoundTransformELj0EEPKN7mecanim9animation14AvatarConstantEb
1090:__ZN11UnityEngine9Animation28RegisterAvatarBindingObjectsEPNS0_21AvatarBindingConstantE
1091:__ZN11UnityEngine9Animation21AvatarBindingCallbackEPvS1_i
1092:__Z16AppendPathToHashRK5crc32PKc
1093:__ZN7mecanim8skeleton18CreateSkeletonPoseIN4math4trsXEEEPNS0_13SkeletonPoseTIT_EEPKNS0_8SkeletonER20RuntimeBaseAllocator
1094:__Z14FindAvatarRootPKN7mecanim8skeleton8SkeletonEPKjR9Transformb
1095:__Z18BuildTransformListR9TransformR13dynamic_arrayIPS_Lj0EE
1096:i32s-rem
1097:__Z15HiearchyMatchesP9TransformPKN7mecanim8skeleton8SkeletonEiRK5crc32
1098:__ZN7mecanim8skeleton18CreateSkeletonPoseIN4math7affineXEEEPNS0_13SkeletonPoseTIT_EEPKNS0_8SkeletonER20RuntimeBaseAllocator
1099:__ZN7mecanim5human9HumanPoseC2Ev
1100:__ZN7mecanim4hand8HandPoseC2Ev
1101:__ZN7mecanim8skeleton23SkeletonBuildIndexArrayEPiPKNS0_8SkeletonES4_
1102:__ZN7mecanim8skeleton30SkeletonBuildReverseIndexArrayEPiPKiPKNS0_8SkeletonES6_
1103:__ZN25RuntimeAnimatorControllerD2Ev
1104:__ZN25RuntimeAnimatorControllerD0Ev
1105:__ZN25RuntimeAnimatorController17MainThreadCleanupEv
1106:__ZNK25RuntimeAnimatorController22GetTypeVirtualInternalEv
1107:__ZN25RuntimeAnimatorController23VirtualRedirectTransferER19StreamedBinaryWrite
1108:__ZN25RuntimeAnimatorController23VirtualRedirectTransferER18StreamedBinaryRead
1109:__ZN25RuntimeAnimatorController23VirtualRedirectTransferER17RemapPPtrTransfer
1110:__ZN25RuntimeAnimatorController23VirtualRedirectTransferER24GenerateTypeTreeTransfer
1111:__ZN25RuntimeAnimatorController23VirtualRedirectTransferER14SafeBinaryRead
1112:__ZN25RuntimeAnimatorController22RegisterAnimationClipsEv
1113:__ZN6MotionD2Ev
1114:__ZN6Motion17MainThreadCleanupEv
1115:__ZNK6Motion22GetTypeVirtualInternalEv
1116:__ZN6Motion21AddSelfToDependenciesER8UserList
1117:__ZN8AnimatorD2Ev
1118:__ZN8AnimatorD0Ev
1119:__ZN8Animator17MainThreadCleanupEv
1120:__ZN8Animator13AwakeFromLoadE17AwakeFromLoadMode
1121:__ZN8Animator5ResetEv
1122:__ZNK8Animator22GetTypeVirtualInternalEv
1123:__ZN8Animator23VirtualRedirectTransferER19StreamedBinaryWrite
1124:__ZN8Animator23VirtualRedirectTransferER18StreamedBinaryRead
1125:__ZN8Animator23VirtualRedirectTransferER17RemapPPtrTransfer
1126:__ZN8Animator23VirtualRedirectTransferER24GenerateTypeTreeTransfer
1127:__ZN8Animator23VirtualRedirectTransferER14SafeBinaryRead
1128:__ZN8Animator10DeactivateE19DeactivateOperation
1129:__ZN8Animator12AddToManagerEv
1130:__ZN8Animator17RemoveFromManagerEv
1131:__ZN8Animator15SetPrepareStageEv
1132:__ZNK8Animator25GetStateMachineBehavioursEv
1133:__ZN8Animator19CreatePlayableGraphEv
1134:__ZN8Animator32CreateInternalControllerPlayableEv
1135:__ZN26AnimatorControllerPlayable21SetAnimatorControllerEP25RuntimeAnimatorController
1136:__ZN26AnimatorControllerPlayable14AllocateMemoryEv
1137:__ZN26AnimatorControllerPlayable13GenerateGraphEv
1138:__ZN17AnimationPlayable23RequestAllocateBindingsEv
1139:__ZN17AnimationPlayable23ConnectNoTopologyChangeEPS_S0_ii
1140:__ZN34AnimationStateMachineMixerPlayable23SetInterruptedPoseIndexEi
1141:__ZN26AnimationBlendTreePlayable12CreateInputsER13PlayableGraphj
1142:__ZN26AnimatorControllerPlayable18SetLayerAutoWeightEv
1143:__ZN7mecanim12statemachine29SetStateMachineInInitialStateERKNS0_20StateMachineConstantERKNS0_17StateMachineInputERNS0_18StateMachineOutputERNS0_18StateMachineMemoryERNS0_21StateMachineWorkspaceE
1144:__ZNK34AnimationStateMachineMixerPlayable21GetStateMixerPlayableEb
1145:__ZN26AnimationBlendTreePlayable21ConfigureFromConstantEPKN7mecanim9animation17BlendTreeConstantEPKNS0_12statemachine13StateConstantEPKNS1_12AnimationSetE
1146:__ZN7mecanim12statemachine13EvaluateStateERKNS_18ValueArrayConstantERKNS0_13StateConstantERKNS0_17StateMachineInputERNS0_18StateMachineOutputERNS0_18StateMachineMemoryERNS0_11StateOutputERNS0_14StateWorkspaceEbb
1147:__ZN7mecanim12statemachine21EvaluateStateDurationERKNS0_13StateConstantERNS0_11StateOutputERNS0_14StateWorkspaceERKNS_18ValueArrayConstantERKNS0_17StateMachineInputEb
1148:__ZN7mecanim14FindValueIndexEPKNS_18ValueArrayConstantEj
1149:__ZN26AnimationBlendTreePlayable37PropagateStateMachineInfoToChildClipsEfffRfS0_b
1150:__ZN26AnimationBlendTreePlayable18SetUsePosePlayableEb
1151:__ZN26AnimationBlendTreePlayable21DoBlendTreeEvaluationEPKN7mecanim9animation17BlendTreeConstantERKNS0_12statemachine13StateConstantEPNS1_14BlendTreeInputEPNS1_15BlendTreeOutputEPNS1_18BlendTreeWorkspaceERKNS5_17StateMachineInputEfb
1152:__ZN7mecanim9animation17EvaluateBlendTreeERKNS0_17BlendTreeConstantERKNS0_14BlendTreeInputERNS0_15BlendTreeOutputERNS0_18BlendTreeWorkspaceERKNS0_12AnimationSetE
1153:__ZN13AnimationClip15GetRuntimeAssetEv
1154:__ZN7mecanim9animation10GetWeightsERKNS0_21BlendTreeNodeConstantERNS0_18BlendTreeWorkspaceEPfff
1155:__ZN7mecanim9animation27GetWeightsSimpleDirectionalERKNS0_19Blend2dDataConstantEPfPiP8Vector2fffb
1156:__ZN7mecanim9animation29GetWeightsFreeformDirectionalERKNS0_19Blend2dDataConstantEPfPiP8Vector2fffb
1157:__ZN7mecanim9animation27GetWeightsFreeformCartesianERKNS0_19Blend2dDataConstantEPfPiP8Vector2fffb
1158:__ZN7mecanim9animation28GetWeightFreeformDirectionalERKNS0_19Blend2dDataConstantEP8Vector2fiiS4_
1159:__ZN27AnimationLayerMixerPlayable14SetLayerWeightEjf
1160:__ZN27AnimationLayerMixerPlayable16SetLayerAdditiveEjb
1161:__ZN27AnimationLayerMixerPlayable21UpdateLayerParametersEv
1162:__ZN7mecanim5human12FullBodyMaskEv
1163:__ZN13PlayableGraph17ConstructPlayableI21AnimationClipPlayableEEPT_18DirectorPlayerTypePK17JobReflectionData
1164:__ZN17AnimationPlayableC2E18DirectorPlayerType
1165:__ZN21AnimationClipPlayableD2Ev
1166:__ZN21AnimationClipPlayableD0Ev
1167:__ZNK8Playable17IsMultithreadableEv
1168:__ZN8Playable11GetLeadTimeEv
1169:__ZN21AnimationClipPlayable7SetTimeEd
1170:__ZNK8Playable7GetTimeEv
1171:__ZNK21AnimationClipPlayable7GetTypeEv
1172:__ZNK21AnimationClipPlayable11DerivesFromE17ScriptingClassPtr
1173:__ZN8Playable20GetAdditionalPayloadEv
1174:__ZN17AnimationPlayable19DeallocateResourcesEv
1175:__ZN21AnimationClipPlayable13OnAdvanceTimeEd
1176:__ZN17AnimationPlayable18SetInputConnectionEP8Playableii
1177:__ZN17AnimationPlayable25AnimationPlayableAllocateEP35AnimationPlayableEvaluationConstant
1178:__ZN21AnimationClipPlayable17ProcessRootMotionEP35AnimationPlayableEvaluationConstantP32AnimationPlayableEvaluationInputP33AnimationPlayableEvaluationOutput
1179:__ZN21AnimationClipPlayable16ProcessAnimationEP35AnimationPlayableEvaluationConstantP32AnimationPlayableEvaluationInputP33AnimationPlayableEvaluationOutput
1180:__ZN21AnimationClipPlayable17GetAnimationClipsER13dynamic_arrayIP13AnimationClipLj0EE
1181:__ZN17AnimationPlayable19PreProcessAnimationEPK35AnimationPlayableEvaluationConstantPKN7mecanim9animation18AnimationNodeStateE
1182:__ZN21AnimationClipPlayable22PrepareAnimationEventsEfR13dynamic_arrayI22AnimationClipEventInfoLj0EE
1183:__ZN17AnimationPlayable34CollectAnimatorControllerPlayablesER13dynamic_arrayIP26AnimatorControllerPlayableLj0EE
1184:__ZN21AnimationClipPlayable29CollectAnimationClipPlayablesER13dynamic_arrayIPS_Lj0EE
1185:__ZN17AnimationPlayable13AddObjectUserER8UserList
1186:__ZN21AnimationClipPlayable16AllocateBindingsEPK35AnimationPlayableEvaluationConstant
1187:__ZN21AnimationClipPlayable18DeallocateBindingsEv
1188:__ZN17AnimationPlayable28ComputeNeedsBindingRebuildedEv
1189:__ZNK17AnimationPlayable15GetApplyMotionXEv
1190:__ZNK21AnimationClipPlayable8GetAssetEv
1191:__ZN21AnimationClipPlayable17SetInternalWeightEf
1192:__ZNK17AnimationPlayable27GetNextCompatibleDescendantEj
1193:__ZN7mecanim9animation17DestroyClipMemoryEPNS0_10ClipMemoryER20RuntimeBaseAllocator
1194:__ZNK13AnimationClip18IsMecanimDataValidEv
1195:__ZN7mecanim9animation15HasMotionCurvesERKNS0_18ClipMuscleConstantE
1196:__ZN7mecanim9animation13HasRootCurvesERKNS0_18ClipMuscleConstantE
1197:__ZN7mecanim9animation14HasHumanCurvesERKNS0_18ClipMuscleConstantE
1198:__ZN7mecanim9animation17GetClipCurveCountERKNS0_18ClipMuscleConstantE
1199:__ZN7mecanim9animation16CreateClipMemoryEPKNS0_4ClipEiR20RuntimeBaseAllocator
1200:__ZN7mecanim9animation16CreateClipOutputEPKNS0_4ClipER20RuntimeBaseAllocator
1201:__ZN7mecanim9animation15ComputeClipTimeEffffbfRfS1_b
1202:__ZN17AnimationPlayable17GetAnimationClipsER13dynamic_arrayIP13AnimationClipLj0EE
1203:__ZN21AnimationClipPlayable20ProcessAnimationPassEPK35AnimationPlayableEvaluationConstantPK32AnimationPlayableEvaluationInputP33AnimationPlayableEvaluationOutput
1204:__ZN21AnimationClipPlayable16ProcessHumanPassEPK35AnimationPlayableEvaluationConstantPK32AnimationPlayableEvaluationInputP33AnimationPlayableEvaluationOutput
1205:__ZN7mecanim9animation17ClearMotionOutputEPNS0_18AnimationNodeStateE
1206:__ZN7mecanim9animation15ClearHumanPosesEPNS0_18AnimationNodeStateE
1207:__ZN7mecanim9animation16MotionOutputCopyEPNS0_12MotionOutputEPKS1_bbRKNS_6bitsetILj83EEE
1208:__ZN7mecanim9animation13EvaluateHumanEPKNS0_18ClipMuscleConstantEPKNS0_15ClipMuscleInputEPKNS0_10ClipOutputEPNS0_18AnimationNodeStateEb
1209:__ZN7mecanim9animation17EvaluateHumanPoseERKNS0_18ClipMuscleConstantERKNS0_15ClipMuscleInputEPKfRKNS0_12MotionOutputERNS_5human9HumanPoseE
1210:__ZN7mecanim9animation12GetHumanPoseERKNS0_18ClipMuscleConstantEPKfRNS_5human9HumanPoseE
1211:__ZN7mecanim9animation12GetHumanPoseERKNS0_18ClipMuscleConstantEPKNS0_10ValueDeltaERNS_5human9HumanPoseE
1212:__ZN7mecanim5human15HumanPoseMirrorERNS0_9HumanPoseERKS1_
1213:__ZN7mecanim5human12HumanPoseSubERNS0_9HumanPoseERKS1_S4_
1214:__ZN7mecanim5human13HumanPoseCopyERNS0_9HumanPoseERKS1_b
1215:__ZN7mecanim4hand12HandPoseCopyEPKNS0_8HandPoseEPS1_
1216:__ZN7mecanim9animation12GetHumanPoseINS0_10ValueDeltaEEEvRKNS0_18ClipMuscleConstantEPKT_RNS_5human9HumanPoseE
1217:__ZN7mecanim9animation12GetHumanPoseIfEEvRKNS0_18ClipMuscleConstantEPKT_RNS_5human9HumanPoseE
1218:__ZN7mecanim5human15HumanPoseWeightERNS0_9HumanPoseERKS1_f
1219:__ZN7mecanim5human12HumanPoseAddERNS0_9HumanPoseERKS1_S4_
1220:__ZN7mecanim5human19MaskHasLeftFootGoalERKNS_6bitsetILj83EEE
1221:__ZN7mecanim5human20MaskHasRightFootGoalERKNS_6bitsetILj83EEE
1222:__ZN7mecanim5human14HumanPoseClearERNS0_9HumanPoseE
1223:__ZN7mecanim9animation17MotionOutputClearEPNS0_12MotionOutputE
1224:__ZN21AnimationClipPlayable22ProcessAnimationNoClipEPK35AnimationPlayableEvaluationConstantPK32AnimationPlayableEvaluationInputP33AnimationPlayableEvaluationOutput
1225:f32-to-uint
1226:__ZN7mecanim9animation14ValuesFromClipILb0EEEvRKNS_10ValueArrayERKNS0_10ClipOutputERKNS0_12ClipBindingsEiRS2_RNS_14ValueArrayMaskEbPKSC_
1227:__ZN7mecanim9animation14EvaluateValuesEPKNS0_18ClipMuscleConstantEPKNS_18ValueArrayConstantEPKNS0_12ClipBindingsEPKNS0_14AvatarConstantEPKNS0_14SkeletonTQSMapEPKNS0_10ClipOutputEPKNS0_16MotionXReferenceEPNS0_18AnimationNodeStateEfbbb
1228:i32u-rem
1229:__ZN7mecanim16CreateValueArrayEPKNS_18ValueArrayConstantER20RuntimeBaseAllocator
1230:__ZN7mecanim9animation14DeltasFromClipILb0EEEvRKNS0_18ClipMuscleConstantERKNS0_12ClipBindingsERKNS_14ValueArrayMaskERNS_10ValueArrayESC_SC_
1231:__ZN7mecanim9animation23ComputeRootMotionValuesERKNS0_14AvatarConstantERKNS0_14SkeletonTQSMapERKNS0_16MotionXReferenceERNS_10ValueArrayESB_SB_b
1232:__ZN7mecanim13ValueArraySubILb0EEEvRKNS_10ValueArrayEPKNS_14ValueArrayMaskERS1_
1233:__ZN7mecanim14ValueArrayLoopILb0EEEvRKNS_10ValueArrayES3_RKNS_14ValueArrayMaskERS1_f
1234:__ZN7mecanim17DestroyValueArrayEPNS_10ValueArrayER20RuntimeBaseAllocator
1235:__ZN7mecanim9animation19AdjustPoseForMotionERKNS0_14AvatarConstantERKNS0_14SkeletonTQSMapERKN4math4trsXERNS_10ValueArrayERNS_8skeleton13SkeletonPoseTIS8_EESG_
1236:__ZN7mecanim8skeleton19DestroySkeletonPoseIN4math4trsXEEEvPNS0_13SkeletonPoseTIT_EER20RuntimeBaseAllocator
1237:__ZN7mecanim9animation30SkeletonPoseFromValueRecursiveERKNS_8skeleton8SkeletonERKNS1_13SkeletonPoseTIN4math4trsXEEERKNS_10ValueArrayEPKNS0_14SkeletonTQSMapEPKiRS8_ii
1238:__ZN7mecanim8skeleton25SkeletonPoseComputeGlobalIN4math4trsXEEEvPKNS0_8SkeletonEPKNS0_13SkeletonPoseTIT_EEPS9_
1239:__ZN7mecanim8skeleton25SkeletonPoseComputeGlobalIN4math4trsXEEEvPKNS0_8SkeletonEPKNS0_13SkeletonPoseTIT_EEPS9_ii
1240:__ZN7mecanim8skeleton24SkeletonPoseComputeLocalIN4math4trsXEEEvPKNS0_8SkeletonEPKNS0_13SkeletonPoseTIT_EEPS9_ii
1241:__ZN7mecanim9animation30ValueFromSkeletonPoseRecursiveERKNS_8skeleton8SkeletonERKNS1_13SkeletonPoseTIN4math4trsXEEEPKNS0_14SkeletonTQSMapEPKiRNS_10ValueArrayEii
1242:__ZN7mecanim6memory16InPlaceAllocator8AllocateEjj
1243:__ZN7mecanim6memory13HeapAllocator8AllocateEjj
1244:__ZN7mecanim6memory13HeapAllocator10DeallocateEPv
1245:__ZN7mecanim12SetValueMaskILb0EEEvPNS_14ValueArrayMaskEb
1246:__ZN7mecanim21SetTransformValueMaskEiiiPNS_14ValueArrayMaskEb
1247:__ZN7mecanim13CopyValueMaskILb1EEEvPKNS_14ValueArrayMaskEPS1_
1248:__ZN7mecanim14ValueArrayCopyILb0EEEvPKNS_10ValueArrayEPS1_PKNS_14ValueArrayMaskE
1249:__ZN21AnimationClipPlayable30ProcessAnimationRootMotionPassEPK35AnimationPlayableEvaluationConstantPK32AnimationPlayableEvaluationInputP33AnimationPlayableEvaluationOutput
1250:__ZN21AnimationClipPlayable31ProcessAnimationTargetMatchPassEPK35AnimationPlayableEvaluationConstantPK32AnimationPlayableEvaluationInputP33AnimationPlayableEvaluationOutput
1251:__ZN7mecanim9animation15CloneClipMemoryEPKNS0_10ClipMemoryER20RuntimeBaseAllocator
1252:__ZN7mecanim9animation12EvaluateClipEPKNS0_4ClipEPKNS0_9ClipInputEPNS0_10ClipMemoryEPNS0_10ClipOutputE
1253:__ZN7mecanim9animation18EvaluateRootMotionERKNS0_18ClipMuscleConstantERKNS0_15ClipMuscleInputEPKfS8_RNS0_12MotionOutputEbPNS0_16MotionXReferenceE
1254:__ZN7mecanim9animation13GetClipStartXERKNS0_18ClipMuscleConstantEi
1255:__ZN7mecanim9animation12GetClipStopXERKNS0_18ClipMuscleConstantEi
1256:__ZN7mecanim9animation9GetCycleXERKN4math4trsXES4_S4_if
1257:__ZN7mecanim9animation11xformPrePowERKN4math4trsXEi
1258:__ZN7mecanim9animation10SampleClipERKNS0_12StreamedClipERNS0_18StreamedClipMemoryEfPf
1259:__ZN7mecanim9animation10SampleClipERKNS0_12ConstantClipEjPf
1260:__ZN7mecanim9animation8SeekClipERKNS0_12StreamedClipERNS0_18StreamedClipMemoryEf
1261:__ZN21AnimationClipPlayable23ProcessRootMotionNoClipEPK35AnimationPlayableEvaluationConstantPK32AnimationPlayableEvaluationInputP33AnimationPlayableEvaluationOutput
1262:__ZN7mecanim9animation23TransformValuesFromClipEiiiRKNS_10ValueArrayERKNS0_10ClipOutputERKNS0_12ClipBindingsERS1_RNS_14ValueArrayMaskEb
1263:__ZN7mecanim9animation14ValuesFromClipILb1EEEvRKNS_10ValueArrayERKNS0_10ClipOutputERKNS0_12ClipBindingsEiRS2_RNS_14ValueArrayMaskEbPKSC_
1264:__ZN7mecanim9animation30MotionOutputClearAdditiveLayerEPNS0_12MotionOutputE
1265:__ZN7mecanim9animation23TransformDeltasFromClipEiiiRKNS0_18ClipMuscleConstantERKNS0_12ClipBindingsERKNS_14ValueArrayMaskERN4math4trsXESC_SC_
1266:__ZN7mecanim22TransformValueArraySubEiiiRKN4math4trsXERNS_10ValueArrayE
1267:__ZN7mecanim23TransformValueArrayLoopEiiiRKN4math4trsXES3_RNS_10ValueArrayEf
1268:__ZN7mecanim9animation19EvaluateFloatValuesEPKNS0_18ClipMuscleConstantEPKNS_18ValueArrayConstantEPKNS0_12ClipBindingsEPKNS0_10ClipOutputEPNS0_18AnimationNodeStateEfbb
1269:__ZN7mecanim21CreateFloatValueArrayEPKNS_18ValueArrayConstantER20RuntimeBaseAllocator
1270:__ZN7mecanim9animation14DeltasFromClipILb1EEEvRKNS0_18ClipMuscleConstantERKNS0_12ClipBindingsERKNS_14ValueArrayMaskERNS_10ValueArrayESC_SC_
1271:__ZN7mecanim13ValueArraySubILb1EEEvRKNS_10ValueArrayEPKNS_14ValueArrayMaskERS1_
1272:__ZN7mecanim14ValueArrayLoopILb1EEEvRKNS_10ValueArrayES3_RKNS_14ValueArrayMaskERS1_f
1273:__ZN7mecanim23TransformValueArrayCopyEiiiPKNS_10ValueArrayEPS0_
1274:__ZN7mecanim14ValueArrayCopyILb1EEEvPKNS_10ValueArrayEPS1_PKNS_14ValueArrayMaskE
1275:__Z28GetAnimationScriptingClassesv
1276:__ZL35InitializeAnimationScriptingClassesv
1277:__ZL32CleanupAnimationScriptingClassesv
1278:__ZNK17AnimationPlayable11DerivesFromE17ScriptingClassPtr
1279:__ZN17AnimationPlayable17ProcessRootMotionEP35AnimationPlayableEvaluationConstantP32AnimationPlayableEvaluationInputP33AnimationPlayableEvaluationOutput
1280:__ZN17AnimationPlayable16ProcessAnimationEP35AnimationPlayableEvaluationConstantP32AnimationPlayableEvaluationInputP33AnimationPlayableEvaluationOutput
1281:__ZN17AnimationPlayable22PrepareAnimationEventsEfR13dynamic_arrayI22AnimationClipEventInfoLj0EE
1282:__ZN17AnimationPlayable29CollectAnimationClipPlayablesER13dynamic_arrayIP21AnimationClipPlayableLj0EE
1283:__ZN17AnimationPlayable16AllocateBindingsEPK35AnimationPlayableEvaluationConstant
1284:__ZN17AnimationPlayable18DeallocateBindingsEv
1285:__ZN17AnimationPlayable17SetInternalWeightEf
1286:__ZN21AnimationPosePlayableC2E18DirectorPlayerType
1287:__ZN21AnimationPosePlayable17ProcessRootMotionEP35AnimationPlayableEvaluationConstantP32AnimationPlayableEvaluationInputP33AnimationPlayableEvaluationOutput
1288:__ZN21AnimationPosePlayable16ProcessAnimationEP35AnimationPlayableEvaluationConstantP32AnimationPlayableEvaluationInputP33AnimationPlayableEvaluationOutput
1289:__ZN21AnimationPosePlayable19PreProcessAnimationEPK35AnimationPlayableEvaluationConstantPKN7mecanim9animation18AnimationNodeStateE
1290:__ZN21AnimationPosePlayable16AllocateBindingsEPK35AnimationPlayableEvaluationConstant
1291:__ZN21AnimationPosePlayable18DeallocateBindingsEv
1292:__ZN7mecanim9animation25DestroyAnimationNodeStateEPNS0_18AnimationNodeStateER20RuntimeBaseAllocator
1293:__ZN7mecanim9animation24CreateAnimationNodeStateERKNS_18ValueArrayConstantEbbbR20RuntimeBaseAllocator
1294:__ZN7mecanim20CreateValueArrayMaskEPKNS_18ValueArrayConstantER20RuntimeBaseAllocator
1295:__ZN7mecanim9animation22CopyAnimationNodeStateEPKNS0_18AnimationNodeStateEPS1_bbRKNS_6bitsetILj83EEE
1296:__ZN7mecanim14ValueArrayCopyILb0EEEvPKNS_10ValueArrayEPS1_
1297:__ZN7mecanim13CopyValueMaskILb0EEEvPKNS_14ValueArrayMaskEPS1_
1298:__ZN7mecanim5human13HumanPoseCopyERNS0_9HumanPoseERKS1_RKNS_6bitsetILj83EEE
1299:__ZN7mecanim11OrValueMaskILb0EEEvPKNS_14ValueArrayMaskEPS1_
1300:__ZN7mecanim9animation14CopyHumanPosesEPKNS0_18AnimationNodeStateEPS1_RKNS_6bitsetILj83EEE
1301:__ZN7mecanim9animation16CopyMotionOutputEPKNS0_18AnimationNodeStateEPS1_bbRKNS_6bitsetILj83EEE
1302:__ZN7mecanim22CopyTransformValueMaskEiiiPKNS_14ValueArrayMaskEPS0_
1303:__ZN7mecanim11OrValueMaskILb1EEEvPKNS_14ValueArrayMaskEPS1_
1304:__ZN26AnimationBlendTreePlayableC2E18DirectorPlayerType
1305:__ZNK26AnimationBlendTreePlayable7GetTypeEv
1306:__ZNK26AnimationBlendTreePlayable11DerivesFromE17ScriptingClassPtr
1307:__ZN22AnimationMixerPlayable18SetInputConnectionEP8Playableii
1308:__ZN22AnimationMixerPlayable17ProcessRootMotionEP35AnimationPlayableEvaluationConstantP32AnimationPlayableEvaluationInputP33AnimationPlayableEvaluationOutput
1309:__ZN22AnimationMixerPlayable16ProcessAnimationEP35AnimationPlayableEvaluationConstantP32AnimationPlayableEvaluationInputP33AnimationPlayableEvaluationOutput
1310:__Z26ProcessAnimationEmptyMixerP35AnimationPlayableEvaluationConstantP32AnimationPlayableEvaluationInputP33AnimationPlayableEvaluationOutput
1311:__Z24ProcessAnimationMixBeginP35AnimationPlayableEvaluationConstantP32AnimationPlayableEvaluationInputP33AnimationPlayableEvaluationOutput
1312:__Z19ProcessAnimationMixP33AnimationPlayableEvaluationOutputP35AnimationPlayableEvaluationConstantP32AnimationPlayableEvaluationInputS0_PN7mecanim16ValueArrayWeightEf
1313:__Z22ProcessAnimationMixEndP35AnimationPlayableEvaluationConstantP32AnimationPlayableEvaluationInputP33AnimationPlayableEvaluationOutputPN7mecanim16ValueArrayWeightEf
1314:__ZN22AnimationMixerPlayable12MixerProcessEP35AnimationPlayableEvaluationConstantP32AnimationPlayableEvaluationInputP33AnimationPlayableEvaluationOutputM17AnimationPlayableFvS1_S3_S5_EPFvS1_S3_S5_ESA_PFvS5_S1_S3_S5_PN7mecanim16ValueArrayWeightEfEPFvS1_S3_S5_SD_fE
1315:__ZN7mecanim22CreateValueArrayWeightEPKNS_18ValueArrayConstantER20RuntimeBaseAllocator
1316:__ZN7mecanim18ValueArrayBlendEndILb0EEEvPKNS_10ValueArrayERKNS_14ValueArrayMaskERKNS_16ValueArrayWeightERS1_
1317:__ZN7mecanim5human17HumanPoseBlendEndERNS0_9HumanPoseERf
1318:__ZN7mecanim19ValueArrayBlendNodeILb0EEEvRKNS_10ValueArrayERKNS_14ValueArrayMaskERS1_RS4_RNS_16ValueArrayWeightEf
1319:__ZN7mecanim5human18HumanPoseBlendNodeERNS0_9HumanPoseEPS1_f
1320:__ZN7mecanim20ValueArrayBlendBeginILb0EEEvRNS_14ValueArrayMaskE
1321:__ZN7mecanim5human19HumanPoseBlendBeginERNS0_9HumanPoseE
1322:__Z27ProcessRootMotionEmptyMixerP35AnimationPlayableEvaluationConstantP32AnimationPlayableEvaluationInputP33AnimationPlayableEvaluationOutput
1323:__Z25ProcessRootMotionMixBeginP35AnimationPlayableEvaluationConstantP32AnimationPlayableEvaluationInputP33AnimationPlayableEvaluationOutput
1324:__Z20ProcessRootMotionMixP33AnimationPlayableEvaluationOutputP35AnimationPlayableEvaluationConstantP32AnimationPlayableEvaluationInputS0_PN7mecanim16ValueArrayWeightEf
1325:__Z23ProcessRootMotionMixEndP35AnimationPlayableEvaluationConstantP32AnimationPlayableEvaluationInputP33AnimationPlayableEvaluationOutputPN7mecanim16ValueArrayWeightEf
1326:__ZN7mecanim27TransformValueArrayBlendEndEiiiPKNS_10ValueArrayERKNS_14ValueArrayMaskERKNS_16ValueArrayWeightERS0_
1327:__ZN7mecanim18ValueArrayBlendEndILb1EEEvPKNS_10ValueArrayERKNS_14ValueArrayMaskERKNS_16ValueArrayWeightERS1_
1328:__ZN7mecanim9animation20MotionOutputBlendEndEPNS0_12MotionOutputEbbRKNS_6bitsetILj83EEERf
1329:__ZN7mecanim9animation21MotionOutputBlendNodeEPNS0_12MotionOutputES2_fbbRKNS_6bitsetILj83EEE
1330:__ZN7mecanim28TransformValueArrayBlendNodeEiiiRKNS_10ValueArrayERKNS_14ValueArrayMaskERS0_RS3_RNS_16ValueArrayWeightEf
1331:__ZN7mecanim19ValueArrayBlendNodeILb1EEEvRKNS_10ValueArrayERKNS_14ValueArrayMaskERS1_RS4_RNS_16ValueArrayWeightEf
1332:__ZN7mecanim9animation22MotionOutputBlendBeginEPNS0_12MotionOutputEbb
1333:__ZN7mecanim29TransformValueArrayBlendBeginEiiiRNS_14ValueArrayMaskE
1334:__ZN7mecanim20ValueArrayBlendBeginILb1EEEvRNS_14ValueArrayMaskE
1335:__ZN7mecanim12SetValueMaskILb1EEEvPNS_14ValueArrayMaskEb
1336:__ZN34AnimationStateMachineMixerPlayableC2E18DirectorPlayerType
1337:__ZN22AnimationMixerPlayableC2E18DirectorPlayerType
1338:__ZNK22AnimationMixerPlayable11DerivesFromE17ScriptingClassPtr
1339:__ZN27AnimationLayerMixerPlayableC2E18DirectorPlayerType
1340:__ZN27AnimationLayerMixerPlayableD2Ev
1341:__ZN27AnimationLayerMixerPlayableD0Ev
1342:__ZN27AnimationLayerMixerPlayable13SetInputCountEi
1343:__ZN27AnimationLayerMixerPlayable14SetInputWeightEif
1344:__ZNK27AnimationLayerMixerPlayable7GetTypeEv
1345:__ZNK27AnimationLayerMixerPlayable11DerivesFromE17ScriptingClassPtr
1346:__ZN27AnimationLayerMixerPlayable19DeallocateResourcesEv
1347:__ZN27AnimationLayerMixerPlayable18SetInputConnectionEP8Playableii
1348:__ZN27AnimationLayerMixerPlayable17ProcessRootMotionEP35AnimationPlayableEvaluationConstantP32AnimationPlayableEvaluationInputP33AnimationPlayableEvaluationOutput
1349:__ZN27AnimationLayerMixerPlayable16ProcessAnimationEP35AnimationPlayableEvaluationConstantP32AnimationPlayableEvaluationInputP33AnimationPlayableEvaluationOutput
1350:__ZN27AnimationLayerMixerPlayable22PrepareAnimationEventsEfR13dynamic_arrayI22AnimationClipEventInfoLj0EE
1351:__ZN27AnimationLayerMixerPlayable16AllocateBindingsEPK35AnimationPlayableEvaluationConstant
1352:__ZN27AnimationLayerMixerPlayable18DeallocateBindingsEv
1353:__ZN27AnimationLayerMixerPlayable13ClearBindingsEv
1354:__ZN27AnimationLayerMixerPlayable18GetLayerParametersEj
1355:__ZN27AnimationLayerMixerPlayable6Memory20CreateNodeStateArrayEiRKN7mecanim18ValueArrayConstantEbbbR20RuntimeBaseAllocator
1356:__ZN27AnimationLayerMixerPlayable27ProcessAnimationSingleLayerEP35AnimationPlayableEvaluationConstantP32AnimationPlayableEvaluationInputP33AnimationPlayableEvaluationOutput
1357:__ZN27AnimationLayerMixerPlayable26ProcessAnimationLayerBeginEP35AnimationPlayableEvaluationConstantP32AnimationPlayableEvaluationInputP33AnimationPlayableEvaluationOutput
1358:__ZN27AnimationLayerMixerPlayable24ProcessAnimationLayerMixEP33AnimationPlayableEvaluationOutputP35AnimationPlayableEvaluationConstantP32AnimationPlayableEvaluationInputS1_if
1359:__ZN27AnimationLayerMixerPlayable17LayerMixerProcessEP35AnimationPlayableEvaluationConstantP32AnimationPlayableEvaluationInputP33AnimationPlayableEvaluationOutputM17AnimationPlayableFvS1_S3_S5_EMS_FvS1_S3_S5_ESA_MS_FvS5_S1_S3_S5_ifE
1360:__ZN7mecanim12AndValueMaskILb0EEEvPKNS_14ValueArrayMaskEPS1_
1361:__ZN7mecanim13ValueArrayAddILb0EEEvPKNS_10ValueArrayES3_PKNS_14ValueArrayMaskEfbPS1_PS4_
1362:__ZN27AnimationLayerMixerPlayable8MixHumanEP33AnimationPlayableEvaluationOutputP35AnimationPlayableEvaluationConstantP32AnimationPlayableEvaluationInputS1_f
1363:__ZN7mecanim5human25HumanPoseAddAdditiveLayerERNS0_9HumanPoseERKS1_fRKNS_6bitsetILj83EEE
1364:__ZN7mecanim5human25HumanPoseAddOverrideLayerERNS0_9HumanPoseERKS1_fRKNS_6bitsetILj83EEE
1365:__ZN7mecanim5human14HumanPoseClearERNS0_9HumanPoseERKNS_6bitsetILj83EEE
1366:__ZN27AnimationLayerMixerPlayable28ProcessRootMotionSingleLayerEP35AnimationPlayableEvaluationConstantP32AnimationPlayableEvaluationInputP33AnimationPlayableEvaluationOutput
1367:__ZN27AnimationLayerMixerPlayable27ProcessRootMotionLayerBeginEP35AnimationPlayableEvaluationConstantP32AnimationPlayableEvaluationInputP33AnimationPlayableEvaluationOutput
1368:__ZN27AnimationLayerMixerPlayable25ProcessRootMotionLayerMixEP33AnimationPlayableEvaluationOutputP35AnimationPlayableEvaluationConstantP32AnimationPlayableEvaluationInputS1_if
1369:__ZN7mecanim22TransformValueArrayAddEiiiPKNS_10ValueArrayES2_PKNS_14ValueArrayMaskEfbPS0_PS3_
1370:__ZN7mecanim13ValueArrayAddILb1EEEvPKNS_10ValueArrayES3_PKNS_14ValueArrayMaskEfbPS1_PS4_
1371:__ZN7mecanim9animation22MotionAddOverrideLayerEPNS0_12MotionOutputEPKS1_fbbRKNS_6bitsetILj83EEE
1372:__ZN7mecanim14ValueArrayCopyILb1EEEvPKNS_10ValueArrayEPS1_
1373:__ZN7mecanim9animation21CreateControllerInputEPKNS0_18ControllerConstantER20RuntimeBaseAllocator
1374:__ZN7mecanim9animation22CreateControllerMemoryEPKNS0_18ControllerConstantER20RuntimeBaseAllocator
1375:__ZN7mecanim9animation25CreateControllerWorkspaceEPKNS0_18ControllerConstantER20RuntimeBaseAllocator
1376:__ZN7mecanim12statemachine24CreateStateMachineOutputEPKNS0_20StateMachineConstantEjR20RuntimeBaseAllocator
1377:__ZN7mecanim12statemachine27CreateStateMachineWorkspaceEPKNS0_20StateMachineConstantEjR20RuntimeBaseAllocator
1378:__ZN7mecanim12statemachine20GetBlendTreeConstantERKNS0_13StateConstantEi
1379:__ZN7mecanim12statemachine20CreateStateWorkspaceEjjjR20RuntimeBaseAllocator
1380:__ZN7mecanim9animation20CreateBlendTreeInputER20RuntimeBaseAllocator
1381:__ZN7mecanim9animation21CreateBlendTreeOutputEjR20RuntimeBaseAllocator
1382:__ZN7mecanim9animation24CreateBlendTreeWorkspaceEjR20RuntimeBaseAllocator
1383:__ZN7mecanim12statemachine24CreateStateMachineMemoryEPKNS0_20StateMachineConstantER20RuntimeBaseAllocator
1384:__ZN26AnimatorControllerPlayableC2E18DirectorPlayerType
1385:__ZN27StateMachineBehaviourPlayerC2EP28IStateMachineBehaviourSender
1386:__ZN26AnimatorControllerPlayableD2Ev
1387:__ZN26AnimatorControllerPlayableD0Ev
1388:__ZNK26AnimatorControllerPlayable17IsMultithreadableEv
1389:__ZN26AnimatorControllerPlayable12PrepareFrameERK19DirectorVisitorInfo
1390:__ZNK26AnimatorControllerPlayable7GetTypeEv
1391:__ZNK26AnimatorControllerPlayable11DerivesFromE17ScriptingClassPtr
1392:__ZN26AnimatorControllerPlayable19DeallocateResourcesEv
1393:__ZN26AnimatorControllerPlayable17ProcessRootMotionEP35AnimationPlayableEvaluationConstantP32AnimationPlayableEvaluationInputP33AnimationPlayableEvaluationOutput
1394:__ZN26AnimatorControllerPlayable16ProcessAnimationEP35AnimationPlayableEvaluationConstantP32AnimationPlayableEvaluationInputP33AnimationPlayableEvaluationOutput
1395:__ZN26AnimatorControllerPlayable17GetAnimationClipsER13dynamic_arrayIP13AnimationClipLj0EE
1396:__ZN26AnimatorControllerPlayable19PreProcessAnimationEPK35AnimationPlayableEvaluationConstantPKN7mecanim9animation18AnimationNodeStateE
1397:__ZN26AnimatorControllerPlayable22PrepareAnimationEventsEfR13dynamic_arrayI22AnimationClipEventInfoLj0EE
1398:__ZN26AnimatorControllerPlayable34CollectAnimatorControllerPlayablesER13dynamic_arrayIPS_Lj0EE
1399:__ZN26AnimatorControllerPlayable13AddObjectUserER8UserList
1400:__ZN26AnimatorControllerPlayable16AllocateBindingsEPK35AnimationPlayableEvaluationConstant
1401:__ZN26AnimatorControllerPlayable18DeallocateBindingsEv
1402:__ZNK26AnimatorControllerPlayable8GetAssetEv
1403:__ZN26AnimatorControllerPlayable27SetupStateMachineBehavioursEv
1404:__ZN26AnimatorControllerPlayable29CleanupStateMachineBehavioursEv
1405:__ZN26AnimatorControllerPlayable8GetFloatEiRf
1406:__ZN26AnimatorControllerPlayable8SetFloatEiRKf
1407:__ZN26AnimatorControllerPlayable10GetIntegerEiRi
1408:__ZN26AnimatorControllerPlayable10SetIntegerEiRKi
1409:__ZN26AnimatorControllerPlayable7GetBoolEiRb
1410:__ZN26AnimatorControllerPlayable7SetBoolEiRKb
1411:__ZN26AnimatorControllerPlayable12ResetTriggerEi
1412:__ZN26AnimatorControllerPlayable10SetTriggerEi
1413:__ZNK26AnimatorControllerPlayable24HasStateMachineBehaviourEv
1414:__ZNK26AnimatorControllerPlayable25GetStateMachineBehavioursEv
1415:__ZNK26AnimatorControllerPlayable41GetStateMachineBehaviourVectorDescriptionEv
1416:__ZNK26AnimatorControllerPlayable13IsInitializedEv
1417:__ZThn164_NK26AnimatorControllerPlayable13IsInitializedEv
1418:__ZThn164_NK26AnimatorControllerPlayable24HasStateMachineBehaviourEv
1419:__ZThn164_NK26AnimatorControllerPlayable25GetStateMachineBehavioursEv
1420:__ZThn164_NK26AnimatorControllerPlayable41GetStateMachineBehaviourVectorDescriptionEv
1421:__ZN7mecanim9animation22DestroyControllerInputEPNS0_15ControllerInputER20RuntimeBaseAllocator
1422:__ZN7mecanim9animation23DestroyControllerMemoryEPNS0_16ControllerMemoryER20RuntimeBaseAllocator
1423:__ZN7mecanim9animation26DestroyControllerWorkspaceEPNS0_19ControllerWorkspaceER20RuntimeBaseAllocator
1424:__ZN7mecanim12statemachine28DestroyStateMachineWorkspaceEPNS0_21StateMachineWorkspaceER20RuntimeBaseAllocator
1425:__ZN7mecanim12statemachine21DestroyStateWorkspaceEPNS0_14StateWorkspaceER20RuntimeBaseAllocator
1426:__ZN7mecanim9animation25DestroyBlendTreeWorkspaceEPNS0_18BlendTreeWorkspaceER20RuntimeBaseAllocator
1427:__ZN7mecanim21ValueArrayReverseCopyEPKNS_18ValueArrayConstantEPKNS_10ValueArrayES2_PS3_PKi
1428:__ZN27AnimationLayerMixerPlayable16SetLayerMaskCopyEjRKN7mecanim6bitsetILj83EEEPKNS0_8skeleton12SkeletonMaskE
1429:__ZN7mecanim8skeleton18CreateSkeletonMaskEjPKNS0_19SkeletonMaskElementER20RuntimeBaseAllocator
1430:__ZNK27AnimationLayerMixerPlayable14GetLayerWeightEj
1431:__ZN7mecanim14ValueArrayCopyEPKNS_18ValueArrayConstantEPKNS_10ValueArrayES2_PS3_PKi
1432:__ZN26AnimatorControllerPlayable12PrepareFrameERK9FrameDataP8Playableb
1433:__ZN26AnimatorControllerPlayable11UpdateGraphEf
1434:__ZN7mecanim12statemachine20EvaluateStateMachineERKNS0_20StateMachineConstantERKNS0_17StateMachineInputERNS0_18StateMachineOutputERNS0_18StateMachineMemoryERNS0_21StateMachineWorkspaceE
1435:__ZN7mecanim12statemachine10IsDisabledEPKNS0_17StateMachineInputE
1436:__ZNK27StateMachineBehaviourPlayer15IsSenderEnabledEv
1437:__ZN34AnimationStateMachineMixerPlayable13EndTransitionEv
1438:__ZN7mecanim12statemachine19EvaluateTransitionsERK9OffsetPtrIS1_INS0_18TransitionConstantEEEjRNS0_15TransitionInputERNS0_16TransitionOutputERNS0_16TransitionMemoryEPKNS0_20StateMachineConstantEPKNS0_17StateMachineInputEPNS0_18StateMachineOutputEPNS0_18StateMachineMemoryEPNS0_21StateMachineWorkspaceEi
1439:__ZN34AnimationStateMachineMixerPlayable26StartInterruptedTransitionEbb
1440:__ZNK34AnimationStateMachineMixerPlayable26GetInterruptedPosePlayableEv
1441:__ZN7mecanim12statemachine18EvaluateTransitionEPKNS0_18TransitionConstantEPKNS0_15TransitionInputEPNS0_16TransitionOutputEPKNS0_16TransitionMemoryEPNS0_21StateMachineWorkspaceE
1442:__ZN7mecanim12statemachine17EvaluateSelectorsEPKNS0_20StateMachineConstantEPKNS_18ValueArrayConstantEPNS_10ValueArrayEjPKNS0_17StateMachineInputEPNS0_18StateMachineMemoryEPNS0_21StateMachineWorkspaceE
1443:__ZNK27StateMachineBehaviourPlayer25FireStateMachineBehaviourEiiN7mecanim12statemachine19StateMachineMessageE
1444:__ZN7mecanim12statemachine17EvaluateConditionEPKNS0_17ConditionConstantEPKNS_18ValueArrayConstantEPKNS_10ValueArrayE
1445:__ZNK27StateMachineBehaviourPlayer13FireBehaviourER8StateKeyR18ScriptingArgumentsN7mecanim12statemachine19StateMachineMessageEb
1446:__Z24FindStateBehavioursRangeRK8StateKeyPK38StateMachineBehaviourVectorDescription
1447:__ZN21AnimationClipPlayable7SetClipEP13AnimationClip
1448:__ZN13PlayableGraph12CreateOutputI23AnimationPlayableOutputEEPT_PKc
1449:__ZN23AnimationPlayableOutput17SetTargetAnimatorEP8Animator
1450:__ZN26AnimatorControllerPlayable13RebuildMemoryEv
1451:__ZN8Animator16OnPlayableUnbindEP23AnimationPlayableOutput
1452:__ZN8Animator14OnPlayableBindEP23AnimationPlayableOutput
1453:__ZN13dynamic_arrayI13BoundPlayableLj0EE6insertEPS0_jRKS0_
1454:__ZN8Animator13ClearBindingsEv
1455:__ZN8Animator28BuildControllerPlayableCacheEv
1456:__ZNK26AnimatorControllerPlayable13GetLayerCountEv
1457:__ZN11UnityEngine9Animation30DestroyAnimatorGenericBindingsEPNS0_30AnimatorGenericBindingConstantER20RuntimeBaseAllocator
1458:__ZN17AnimationPlayable28UpdateInternalStateRecursiveILi1ELb0EEEvPK35AnimationPlayableEvaluationConstant
1459:__ZN11UnityEngine9Animation31UnregisterGenericBindingObjectsEPNS0_30AnimatorGenericBindingConstantE
1460:__ZN11UnityEngine9AnimationL22GenericBindingCallbackEPvS1_i
1461:__ZN23AnimationPlayableOutputC2EjP13PlayableGraph
1462:__ZN14PlayableOutputD2Ev
1463:__ZNK23AnimationPlayableOutput7GetTypeEv
1464:__ZNK23AnimationPlayableOutput11DerivesFromE17ScriptingClassPtr
1465:__ZNK23AnimationPlayableOutput9GetStagesER13dynamic_arrayI16StageDescriptionLj0EE
1466:__ZN23AnimationPlayableOutput17SetSourcePlayableEP8Playable
1467:__ZN23AnimationPlayableOutput17OnPlayerDestroyedEP6Object
1468:__ZN23AnimationPlayableOutput19SetSourceOutputPortEi
1469:__ZN23AnimationPlayableOutput22OnConnectionHashChangeEv
1470:__ZN23AnimationPlayableOutput7DestroyEv
1471:__ZN8Animator22OnGraphTopologyChangedEP8Playablei
1472:__ZN8Animator25WriteDefaultValuesNoDirtyEv
1473:__ZN8Animator14CreateBindingsEv
1474:__ZN8Animator20CreatePlayableMemoryEv
1475:__ZN8Animator21SetupPlayableConstantEv
1476:__ZN21AnimationHandleBinder10ResolveAllERK35AnimationPlayableEvaluationConstant
1477:__ZN31AnimationStreamHandleDefinition7ResolveERK35AnimationPlayableEvaluationConstant
1478:__ZN21AnimationHandleBinder22ResolveAllSceneHandlesERK35AnimationPlayableEvaluationConstant
1479:__ZN11UnityEngine9Animation31GetGenericAnimationBindingCacheEv
1480:__ZN11UnityEngine9Animation28GenericAnimationBindingCache11BindGenericERKNS0_14GenericBindingER9TransformRNS0_10BoundCurveE
1481:__ZL48InvalidatePropertySceneHandleBoundCurvesCallbackPvS_i
1482:__ZNK11UnityEngine9Animation28GenericAnimationBindingCache10BindCustomERKNS0_14GenericBindingER9TransformRNS0_10BoundCurveE
1483:__ZN11UnityEngine9Animation28GenericAnimationBindingCache10BindScriptERKNS0_14GenericBindingER9TransformRNS0_10BoundCurveE
1484:__ZN11UnityEngine9Animation28GenericAnimationBindingCache20BindGenericComponentERKNS0_14GenericBindingER9TransformRNS0_10BoundCurveE
1485:__ZN11UnityEngine9AnimationL24GenerateComponentBindingEPKN5Unity4TypeE18ScriptingObjectPtr17ScriptingClassPtrP6Object
1486:__ZNSt3__26__sortIRNS_6__lessIN11UnityEngine9Animation13CachedBindingES4_EEPS4_EEvT0_S8_T_
1487:__ZN11UnityEngine9AnimationL22GenerateBindingRecurseERK16TypeTreeIterator18ScriptingObjectPtr5crc32R13dynamic_arrayINS0_13CachedBindingELj0EE
1488:__ZN11UnityEngine9Animation19GetTypeTreeBindTypeERK16TypeTreeIterator
1489:__ZNSt3__27__sort4IRNS_6__lessIN11UnityEngine9Animation13CachedBindingES4_EEPS4_EEjT0_S8_S8_S8_T_
1490:__ZNSt3__227__insertion_sort_incompleteIRNS_6__lessIN11UnityEngine9Animation13CachedBindingES4_EEPS4_EEbT0_S8_T_
1491:__ZN11UnityEngine9Animation18IsTransformBindingERKNS0_14GenericBindingE
1492:__ZN4coreplEPKcRKNS_12basic_stringIcNS_20StringStorageDefaultIcEEEE
1493:__ZN4coreplERKNS_12basic_stringIcNS_20StringStorageDefaultIcEEEEPKc
1494:__ZN4coreplERKNS_12basic_stringIcNS_20StringStorageDefaultIcEEEES5_
1495:__ZN17AnimationPlayable28UpdateInternalStateRecursiveILi3ELb0EEEvPK35AnimationPlayableEvaluationConstant
1496:__ZNK21AnimationHandleBinder16GetAnimationClipEv
1497:__ZN11UnityEngine9Animation26CreateAnimationSetBindingsERK13dynamic_arrayIP13AnimationClipLj0EER20RuntimeBaseAllocator
1498:__ZN11UnityEngine9Animation27DestroyAnimationSetBindingsEPNS0_20AnimationSetBindingsER20RuntimeBaseAllocator
1499:__ZN7mecanim9animation32DeallocateAvatarOuputForBindingsEPNS0_12AvatarOutputER20RuntimeBaseAllocator
1500:__ZN8Animator20SetupBindingsDataSetEN4core8AllocPtrIN11UnityEngine9Animation20AnimationSetBindingsE20MecanimDestroyPolicyIS4_EEERNS_15BindingsDataSetERNS_13AvatarDataSetE
1501:__ZN11UnityEngine9Animation29CreateAnimatorGenericBindingsERKNS0_20AnimationSetBindingsER9TransformPKN7mecanim9animation14AvatarConstantEbR20RuntimeBaseAllocatorR8Animator
1502:__ZN11UnityEngine9Animation32CreateAnimatorGenericBindingsOptERKNS0_20AnimationSetBindingsER9TransformPKN7mecanim9animation14AvatarConstantEPKNS0_21AvatarBindingConstantEbR20RuntimeBaseAllocatorR8Animator
1503:__ZN7mecanim9animation30AllocateAvatarOuputForBindingsEPNS0_12AvatarOutputEbPKNS_18ValueArrayConstantER20RuntimeBaseAllocator
1504:__ZN11UnityEngine9AnimationL56CalculateTransformBindingSizeBasedOnConstantOptimizationERKNS0_20AnimationSetBindingsERK13dynamic_arrayINS0_14BoundTransformELj0EEPKiPKN7mecanim9animation14AvatarConstantEb
1505:__ZN11UnityEngine9Animation28GenericAnimationBindingCache15BindPPtrGenericERKNS0_14GenericBindingER9TransformRNS0_10BoundCurveE
1506:__ZN7mecanim28CreateValueArrayConstantCopyEPKNS_18ValueArrayConstantEjR20RuntimeBaseAllocator
1507:__ZN11UnityEngine9AnimationL29RegisterGenericBindingObjectsEPNS0_30AnimatorGenericBindingConstantE
1508:__ZN11UnityEngine9AnimationL23InitializeDefaultValuesERKNS0_30AnimatorGenericBindingConstantEPKN7mecanim9animation14AvatarConstantEb
1509:__ZN7mecanim9animation21ValueFromSkeletonPoseERKNS_8skeleton8SkeletonERKNS1_13SkeletonPoseTIN4math4trsXEEEPKNS0_14SkeletonTQSMapERNS_10ValueArrayE
1510:__ZN11UnityEngine9Animation23GetBoundCurveFloatValueERKNS0_10BoundCurveE
1511:__ZN11UnityEngine9Animation28GetBoundCurveInstanceIDValueERKNS0_10BoundCurveE
1512:__ZN11UnityEngine9Animation27GetCurveCountForBindingTypeEj
1513:__ZN7mecanim9animation19DestroyAnimationSetEPNS0_12AnimationSetER20RuntimeBaseAllocator
1514:__ZN7mecanim9animation18CreateAnimationSetEjR20RuntimeBaseAllocator
1515:__ZN4core8hash_mapIN11UnityEngine9Animation14GenericBindingENS2_10BoundIndexENS2_25GenericBindingHashFunctorENS2_30GenericBindingValueArrayUniqueEE6insertERKS3_RKS4_
1516:__ZNSt3__26__sortIRN11UnityEngine9Animation11BindingSortEPNS_4pairINS2_14GenericBindingEPNS2_10BoundIndexEEEEEvT0_SB_T_
1517:__ZN11UnityEngine9Animation15IsMuscleBindingERKNS0_14GenericBindingE
1518:__ZNK11UnityEngine9Animation30GenericBindingValueArrayUniqueclERKNS0_14GenericBindingES4_
1519:__ZN7mecanim24CreateValueArrayConstantENS_9ValueTypeEjR20RuntimeBaseAllocator
1520:__ZN11UnityEngine9AnimationltERKNS0_14GenericBindingES3_
1521:__ZNSt3__27__sort3IRN11UnityEngine9Animation11BindingSortEPNS_4pairINS2_14GenericBindingEPNS2_10BoundIndexEEEEEjT0_SB_SB_T_
1522:__ZNSt3__27__sort4IRN11UnityEngine9Animation11BindingSortEPNS_4pairINS2_14GenericBindingEPNS2_10BoundIndexEEEEEjT0_SB_SB_SB_T_
1523:__ZNSt3__27__sort5IRN11UnityEngine9Animation11BindingSortEPNS_4pairINS2_14GenericBindingEPNS2_10BoundIndexEEEEEjT0_SB_SB_SB_SB_T_
1524:__ZNSt3__218__insertion_sort_3IRN11UnityEngine9Animation11BindingSortEPNS_4pairINS2_14GenericBindingEPNS2_10BoundIndexEEEEEvT0_SB_T_
1525:__ZNSt3__227__insertion_sort_incompleteIRN11UnityEngine9Animation11BindingSortEPNS_4pairINS2_14GenericBindingEPNS2_10BoundIndexEEEEEbT0_SB_T_
1526:__ZNK11UnityEngine9Animation14GenericBinding11IsTransformEv
1527:__ZN4core8hash_setINS_4pairIKN11UnityEngine9Animation14GenericBindingENS3_10BoundIndexELb0EEENS_9hash_pairINS3_25GenericBindingHashFunctorES5_S6_EENS_10equal_pairINS3_30GenericBindingValueArrayUniqueES5_S6_EEE4growEi
1528:__ZNK21AnimationHandleBinder36CreateAnimationStreamHandlesBindingsEv
1529:__ZN18BaseObjectInternal9NewObjectI13AnimationClipEEP6Object10MemLabelId18ObjectCreationMode
1530:__ZNK21AnimationHandleBinder21BuildClipFromBindingsERK13dynamic_arrayI31AnimationStreamHandleDefinitionLj0EEP13AnimationClip
1531:__ZN13AnimationClip11ClearCurvesEv
1532:__ZN13AnimationClip18CleanupMecanimDataEv
1533:__ZN13AnimationClip26BuildMecanimDataMainThreadEv
1534:__ZN13AnimationClip16AddPositionCurveERK17AnimationCurveTplI8Vector3fERKN4core12basic_stringIcNS5_20StringStorageDefaultIcEEEE
1535:__ZN13AnimationClip18AddQuaternionCurveERK17AnimationCurveTplI11QuaternionfERKN4core12basic_stringIcNS5_20StringStorageDefaultIcEEEE
1536:__ZN13AnimationClip13AddScaleCurveERK17AnimationCurveTplI8Vector3fERKN4core12basic_stringIcNS5_20StringStorageDefaultIcEEEE
1537:__ZN13AnimationClip13AddFloatCurveERK17AnimationCurveTplIfERKN4core12basic_stringIcNS4_20StringStorageDefaultIcEEEEPKN5Unity4TypeESA_4PPtrI10MonoScriptE
1538:__ZN13AnimationClip10FloatCurveC2ERKS0_
1539:__ZNSt3__26vectorIN13AnimationClip10FloatCurveE13stl_allocatorIS2_L18MemLabelIdentifier26ELi16EEE21__push_back_slow_pathIS2_EEvOT_
1540:__ZNSt3__214__split_bufferIN13AnimationClip10FloatCurveER13stl_allocatorIS2_L18MemLabelIdentifier26ELi16EEED2Ev
1541:__ZN17AnimationCurveTplI8Vector3fEC2ERKS1_
1542:__ZNSt3__26vectorIN13AnimationClip12Vector3CurveE13stl_allocatorIS2_L18MemLabelIdentifier26ELi16EEE21__push_back_slow_pathIS2_EEvOT_
1543:__ZN13AnimationClip15QuaternionCurveC2ERKS0_
1544:__ZNSt3__26vectorIN13AnimationClip15QuaternionCurveE13stl_allocatorIS2_L18MemLabelIdentifier26ELi16EEE21__push_back_slow_pathIS2_EEvOT_
1545:__ZN13AnimationClip18GenerateMuscleClipEv
1546:__ZN13AnimationClip8GetRangeEv
1547:__ZN7mecanim9animation15FindMuscleIndexEj
1548:__ZNSt3__26vectorIP17AnimationCurveTplI8Vector3fE13stl_allocatorIS4_L18MemLabelIdentifier1ELi16EEE21__push_back_slow_pathIS4_EEvOT_
1549:__Z32GenerateRootMotionPositionCurvesRNSt3__26vectorI15RootMotionCurve13stl_allocatorIS1_L18MemLabelIdentifier1ELi16EEEERK17AnimationCurveTplI8Vector3fE
1550:__Z29AddPositionCurveToClipBuilderR17AnimationCurveTplI8Vector3fERKN4core12basic_stringIcNS3_20StringStorageDefaultIcEEEER18MecanimClipBuilderb
1551:__Z32GenerateRootMotionRotationCurvesRNSt3__26vectorI15RootMotionCurve13stl_allocatorIS1_L18MemLabelIdentifier1ELi16EEEERK17AnimationCurveTplI11QuaternionfE
1552:__Z29AddRotationCurveToClipBuilderR17AnimationCurveTplI11QuaternionfERKN4core12basic_stringIcNS3_20StringStorageDefaultIcEEEER18MecanimClipBuilderb
1553:__Z32GenerateRootMotionRotationCurvesRNSt3__26vectorI15RootMotionCurve13stl_allocatorIS1_L18MemLabelIdentifier1ELi16EEEERK17AnimationCurveTplI8Vector3fEf
1554:__Z26AddEulerCurveToClipBuilderR17AnimationCurveTplI8Vector3fERKN4core12basic_stringIcNS3_20StringStorageDefaultIcEEEER18MecanimClipBuilderb
1555:__Z26AddScaleCurveToClipBuilderR17AnimationCurveTplI8Vector3fERKN4core12basic_stringIcNS3_20StringStorageDefaultIcEEEER18MecanimClipBuilderb
1556:__ZNK11UnityEngine9Animation28GenericAnimationBindingCache20CreateGenericBindingERKN4core12basic_stringIcNS2_20StringStorageDefaultIcEEEEPKN5Unity4TypeE4PPtrI10MonoScriptES8_bRNS0_14GenericBindingE
1557:__Z28AddGenericCurveToClipBuilderR17AnimationCurveTplIfERKN11UnityEngine9Animation14GenericBindingER18MecanimClipBuilderb
1558:__Z18PrepareClipBuilderR18MecanimClipBuilder
1559:__Z25AddPPtrCurveToClipBuilderR13dynamic_arrayI12PPtrKeyframeLj0EERKN11UnityEngine9Animation14GenericBindingER18MecanimClipBuilder
1560:__Z15BuildMuscleClipRK18MecanimClipBuilderRK21AnimationClipSettingsbRN11UnityEngine9Animation28AnimationClipBindingConstantER20RuntimeBaseAllocator
1561:__ZN9BlobWrite8TransferIN7mecanim9animation18ClipMuscleConstantEEEvRT_PKc17TransferMetaFlags
1562:__Z23PatchMuscleClipWithInfoP13AnimationClipRK21AnimationClipSettingsbPN7mecanim9animation18ClipMuscleConstantER20RuntimeBaseAllocator
1563:__ZN18MecanimClipBuilder6CurvesD2Ev
1564:__ZN7mecanim9animation25InitClipMuscleDeltaValuesERNS0_18ClipMuscleConstantEb
1565:__ZN7mecanim9animation26InitClipMuscleAverageSpeedERNS0_18ClipMuscleConstantEi
1566:__Z26InitClipMuscleAdditivePoseRN7mecanim9animation18ClipMuscleConstantES2_PN11UnityEngine9Animation20AnimationSetBindingsEfR20RuntimeBaseAllocator
1567:__ZN7mecanim9animation16CreateClipMemoryEPKNS0_4ClipER20RuntimeBaseAllocator
1568:__ZN7mecanim9animation18ClipMuscleConstant8TransferI8BlobSizeEEvRT_
1569:__ZN7mecanim9animation18ClipMuscleConstant8TransferI9BlobWriteEEvRT_
1570:__ZN9BlobWrite8TransferIN7mecanim5human9HumanPoseEEEvRT_PKc17TransferMetaFlags
1571:__ZN9BlobWrite8TransferIN4math4trsXEEEvRT_PKc17TransferMetaFlags
1572:__ZN9BlobWrite8TransferIKN4math7_float3EEEvRT_PKc17TransferMetaFlags
1573:__ZN9BlobWrite8TransferI9OffsetPtrIN7mecanim9animation4ClipEEEEvRT_PKc17TransferMetaFlags
1574:__ZN9BlobWrite8TransferIfEEvRT_PKc17TransferMetaFlags
1575:__ZN9BlobWrite8TransferI19StaticArrayTransferIiLi200EEEEvRT_PKc17TransferMetaFlags
1576:__ZN9BlobWrite8TransferI22OffsetPtrArrayTransferIN7mecanim9animation10ValueDeltaEEEEvRT_PKc17TransferMetaFlags
1577:__ZN9BlobWrite8TransferI22OffsetPtrArrayTransferIfEEEvRT_PKc17TransferMetaFlags
1578:__ZN9BlobWrite8TransferIbEEvRT_PKc17TransferMetaFlags
1579:__ZN34BlobWriteTransferSTLStyleArrayImplI22OffsetPtrArrayTransferIfEEclERS1_17TransferMetaFlagsR9BlobWrite
1580:__ZN34BlobWriteTransferSTLStyleArrayImplI22OffsetPtrArrayTransferIN7mecanim9animation10ValueDeltaEEEclERS4_17TransferMetaFlagsR9BlobWrite
1581:__ZN9BlobWrite8TransferIN7mecanim9animation10ValueDeltaEEEvRT_PKc17TransferMetaFlags
1582:__ZN9BlobWrite8TransferIN7mecanim9animation4ClipEEEvRT_PKc17TransferMetaFlags
1583:__ZN7mecanim9animation4Clip8TransferI8BlobSizeEEvRT_
1584:__ZN9BlobWrite8TransferIN7mecanim9animation12StreamedClipEEEvRT_PKc17TransferMetaFlags
1585:__ZN9BlobWrite8TransferIN7mecanim9animation9DenseClipEEEvRT_PKc17TransferMetaFlags
1586:__ZN9BlobWrite8TransferIN7mecanim9animation12ConstantClipEEEvRT_PKc17TransferMetaFlags
1587:__ZN9BlobWrite8TransferI9OffsetPtrIN7mecanim18ValueArrayConstantEEEEvRT_PKc17TransferMetaFlags
1588:__ZN9BlobWrite8TransferIN7mecanim18ValueArrayConstantEEEvRT_PKc17TransferMetaFlags
1589:__ZN9BlobWrite8TransferI22OffsetPtrArrayTransferIN7mecanim13ValueConstantEEEEvRT_PKc17TransferMetaFlags
1590:__ZN34BlobWriteTransferSTLStyleArrayImplI22OffsetPtrArrayTransferIN7mecanim13ValueConstantEEEclERS3_17TransferMetaFlagsR9BlobWrite
1591:__ZN9BlobWrite8TransferIN7mecanim13ValueConstantEEEvRT_PKc17TransferMetaFlags
1592:__ZN15SerializeTraitsIN4math4trsXEE8TransferI8BlobSizeEEvRS1_RT_
1593:__ZN9BlobWrite8TransferIKN4math7_float4EEEvRT_PKc17TransferMetaFlags
1594:__ZN7mecanim5human9HumanPose8TransferI8BlobSizeEEvRT_
1595:__ZN9BlobWrite8TransferI19StaticArrayTransferIN7mecanim5human9HumanGoalELi4EEEEvRT_PKc17TransferMetaFlags
1596:__ZN9BlobWrite8TransferIN7mecanim4hand8HandPoseEEEvRT_PKc17TransferMetaFlags
1597:__ZN9BlobWrite8TransferI19StaticArrayTransferIKN4math7_float3ELi21EEEEvRT_PKc17TransferMetaFlags
1598:__ZN9BlobWrite8TransferIN7mecanim5human9HumanGoalEEEvRT_PKc17TransferMetaFlags
1599:__ZN7mecanim5human9HumanGoal8TransferI8BlobSizeEEvRT_
1600:__Z22AddCurveToStreamedClipI8Vector3fEvP19StreamedClipBuilderiRK17AnimationCurveTplIT_E
1601:__Z19AddCurveToDenseClipI8Vector3fEvRN7mecanim9animation9DenseClipEiRK17AnimationCurveTplIT_E
1602:__Z22AddCurveToStreamedClipI11QuaternionfEvP19StreamedClipBuilderiRK17AnimationCurveTplIT_E
1603:__Z19AddCurveToDenseClipI11QuaternionfEvRN7mecanim9animation9DenseClipEiRK17AnimationCurveTplIT_E
1604:__Z22AddCurveToStreamedClipIfEvP19StreamedClipBuilderiRK17AnimationCurveTplIT_E
1605:__Z19AddCurveToDenseClipIfEvRN7mecanim9animation9DenseClipEiRK17AnimationCurveTplIT_E
1606:__ZL32AddMappedPPtrCurveToStreamedClipP19StreamedClipBuilderiRN11UnityEngine9Animation28AnimationClipBindingConstantERK13dynamic_arrayI12PPtrKeyframeLj0EE
1607:__Z24CreateStreamClipConstantP19StreamedClipBuilderRN7mecanim9animation12StreamedClipER20RuntimeBaseAllocator
1608:__Z26DestroyStreamedClipBuilderP19StreamedClipBuilder
1609:__ZN7mecanim9animation24CreateClipMuscleConstantEPNS0_4ClipER20RuntimeBaseAllocator
1610:__ZN7mecanim9animation16CreateClipSimpleEjR20RuntimeBaseAllocator
1611:__Z25CreateStreamedClipBuilderjj
1612:__ZN7mecanim9animation18CreateConstantClipERNS0_12ConstantClipEjR20RuntimeBaseAllocator
1613:__Z15CreateDenseClipRN7mecanim9animation9DenseClipEjfffR20RuntimeBaseAllocator
1614:__ZNSt3__26__sortIRNS_6__lessI13BuildCurveKeyS2_EEPS2_EEvT0_S6_T_
1615:__ZNSt3__27__sort4IRNS_6__lessI13BuildCurveKeyS2_EEPS2_EEjT0_S6_S6_S6_T_
1616:__ZNSt3__27__sort5IRNS_6__lessI13BuildCurveKeyS2_EEPS2_EEjT0_S6_S6_S6_S6_T_
1617:__ZNSt3__218__insertion_sort_3IRNS_6__lessI13BuildCurveKeyS2_EEPS2_EEvT0_S6_T_
1618:__ZNSt3__227__insertion_sort_incompleteIRNS_6__lessI13BuildCurveKeyS2_EEPS2_EEbT0_S6_T_
1619:__Z29AddIntegerCurveToStreamedClipP19StreamedClipBuilderiPfPii
1620:__Z23ConvertCacheToBuildKeysIfEvRN17AnimationCurveTplIT_E5CacheEiP19StreamedClipBuilder
1621:__Z23ConvertCacheToBuildKeysI11QuaternionfEvRN17AnimationCurveTplIT_E5CacheEiP19StreamedClipBuilder
1622:__Z23ConvertCacheToBuildKeysI8Vector3fEvRN17AnimationCurveTplIT_E5CacheEiP19StreamedClipBuilder
1623:__ZN11UnityEngine9Animation20IsDiscreteIntBindingE4PPtrI10MonoScriptERKN4core12basic_stringIcNS4_20StringStorageDefaultIcEEEEPKN5Unity4TypeE
1624:__ZL13ClassifyCurveI8Vector3fE11ClipOptTypeR17AnimationCurveTplIT_Ebf
1625:__ZN11UnityEngine9Animation22CreateTransformBindingERKN4core12basic_stringIcNS1_20StringStorageDefaultIcEEEEiRNS0_14GenericBindingE
1626:__ZNSt3__26vectorI15RootMotionCurve13stl_allocatorIS1_L18MemLabelIdentifier1ELi16EEE21__push_back_slow_pathIRKS1_EEvOT_
1627:__ZN18MecanimClipBuilderC2Ev
1628:__ZN13AnimationClip15ClipWasModifiedEb
1629:__ZN6Motion17NotifyObjectUsersERK17MessageIdentifier
1630:__ZN13AnimationClipC2E10MemLabelId18ObjectCreationMode
1631:__ZN6MotionC2E10MemLabelId18ObjectCreationMode
1632:__ZN7mecanim6memory16ChainedAllocator8AllocateEjj
1633:__ZN13AnimationClipD2Ev
1634:__ZN13AnimationClipD0Ev
1635:__ZN13AnimationClip17MainThreadCleanupEv
1636:__ZN13AnimationClip13AwakeFromLoadE17AwakeFromLoadMode
1637:__ZNK13AnimationClip22GetTypeVirtualInternalEv
1638:__ZN13AnimationClip7SetNameEPKc
1639:__ZN13AnimationClip23VirtualRedirectTransferER19StreamedBinaryWrite
1640:__ZN13AnimationClip23VirtualRedirectTransferER18StreamedBinaryRead
1641:__ZN13AnimationClip23VirtualRedirectTransferER17RemapPPtrTransfer
1642:__ZN13AnimationClip23VirtualRedirectTransferER24GenerateTypeTreeTransfer
1643:__ZN13AnimationClip23VirtualRedirectTransferER14SafeBinaryRead
1644:__ZNK13AnimationClip18GetAverageDurationEv
1645:__ZNK13AnimationClip22GetAverageAngularSpeedEv
1646:__ZNK13AnimationClip15GetAverageSpeedEv
1647:__ZNK13AnimationClip16GetApparentSpeedEv
1648:__ZNK13AnimationClip13IsHumanMotionEv
1649:__ZNK13AnimationClip9IsLoopingEv
1650:__ZNK13AnimationClip17GetAnimationClipsEv
1651:__ZNK13AnimationClip8IsLegacyEv
1652:__ZN13AnimationClip8TransferI14SafeBinaryReadEEvRT_
1653:__ZN14SafeBinaryRead21TransferSTLStyleArrayINSt3__26vectorIN13AnimationClip15QuaternionCurveE13stl_allocatorIS4_L18MemLabelIdentifier26ELi16EEEEEEvRT_17TransferMetaFlags
1654:__ZN14SafeBinaryRead21TransferSTLStyleArrayINSt3__26vectorI24CompressedAnimationCurve13stl_allocatorIS3_L18MemLabelIdentifier26ELi16EEEEEEvRT_17TransferMetaFlags
1655:__ZN13stl_allocatorI24CompressedAnimationCurveL18MemLabelIdentifier26ELi16EE7destroyEPS0_
1656:__ZN13AnimationClip16DecompressCurvesERNSt3__26vectorI24CompressedAnimationCurve13stl_allocatorIS2_L18MemLabelIdentifier26ELi16EEEE
1657:__ZN14SafeBinaryRead21TransferSTLStyleArrayINSt3__26vectorIN13AnimationClip12Vector3CurveE13stl_allocatorIS4_L18MemLabelIdentifier26ELi16EEEEEEvRT_17TransferMetaFlags
1658:__ZN14SafeBinaryRead21TransferSTLStyleArrayINSt3__26vectorIN13AnimationClip10FloatCurveE13stl_allocatorIS4_L18MemLabelIdentifier26ELi16EEEEEEvRT_17TransferMetaFlags
1659:__ZN14SafeBinaryRead21TransferSTLStyleArrayINSt3__26vectorIN13AnimationClip9PPtrCurveE13stl_allocatorIS4_L18MemLabelIdentifier26ELi16EEEEEEvRT_17TransferMetaFlags
1660:__ZL51RenameMotionCurvesToRootCurvesBackwardCompatibilityRNSt3__26vectorIN13AnimationClip10FloatCurveE13stl_allocatorIS2_L18MemLabelIdentifier26ELi16EEEE
1661:__Z21TransferBlobSerializeIN7mecanim9animation18ClipMuscleConstantE14SafeBinaryReadEvRPT_PKcRjS8_RT0_
1662:__ZN11UnityEngine9Animation28AnimationClipBindingConstant8TransferI14SafeBinaryReadEEvRT_
1663:__ZN14SafeBinaryRead21TransferSTLStyleArrayINSt3__26vectorI14AnimationEvent13stl_allocatorIS3_L18MemLabelIdentifier26ELi16EEEEEEvRT_17TransferMetaFlags
1664:__Z14resize_trimmedINSt3__26vectorI14AnimationEvent13stl_allocatorIS2_L18MemLabelIdentifier26ELi16EEEEEvRT_j
1665:__ZN14AnimationEvent8TransferI14SafeBinaryReadEEvRT_
1666:__ZNSt3__26vectorI14AnimationEvent13stl_allocatorIS1_L18MemLabelIdentifier26ELi16EEE7reserveEj
1667:__ZNSt3__26vectorI14AnimationEvent13stl_allocatorIS1_L18MemLabelIdentifier26ELi16EEE6assignINS_11__wrap_iterIPS1_EEEENS_9enable_ifIXaasr21__is_forward_iteratorIT_EE5valuesr16is_constructibleIS1_NS_15iterator_traitsISB_E9referenceEEE5valueEvE4typeESB_SB_
1668:__ZNSt3__26vectorI14AnimationEvent13stl_allocatorIS1_L18MemLabelIdentifier26ELi16EEE8__appendEj
1669:__ZNSt3__26vectorI14AnimationEvent13stl_allocatorIS1_L18MemLabelIdentifier26ELi16EEEC2INS_11__wrap_iterIPS1_EEEET_SA_RKS4_PNS_9enable_ifIXaasr21__is_forward_iteratorISA_EE5valuesr16is_constructibleIS1_NS_15iterator_traitsISA_E9referenceEEE5valueEvE4typeE
1670:__ZNSt3__26vectorI14AnimationEvent13stl_allocatorIS1_L18MemLabelIdentifier26ELi16EEE10deallocateEv
1671:__ZN14SafeBinaryRead21TransferSTLStyleArrayI13dynamic_arrayIN11UnityEngine9Animation14GenericBindingELj0EEEEvRT_17TransferMetaFlags
1672:__ZN14SafeBinaryRead21TransferSTLStyleArrayI13dynamic_arrayI4PPtrI6ObjectELj0EEEEvRT_17TransferMetaFlags
1673:__ZN15SerializeTraitsI13dynamic_arrayIN11UnityEngine9Animation14GenericBindingELj0EEE19ResizeSTLStyleArrayERS4_i
1674:__ZN11UnityEngine9Animation14GenericBinding8TransferI14SafeBinaryReadEEvRT_
1675:__ZN14SafeBinaryRead8TransferIPKN5Unity4TypeEEEvRT_PKc17TransferMetaFlags
1676:__ZN7mecanim6memory16ChainedAllocator7ReserveEj
1677:__ZN7mecanim9animation18ClipMuscleConstant8TransferI14SafeBinaryReadEEvRT_
1678:__ZN7mecanim5human9HumanPose8TransferI14SafeBinaryReadEEvRT_
1679:__ZN15SerializeTraitsIN4math4trsXEE8TransferI14SafeBinaryReadEEvRS1_RT_
1680:__ZN7mecanim9animation4Clip8TransferI14SafeBinaryReadEEvRT_
1681:__ZN14SafeBinaryRead21TransferSTLStyleArrayI19StaticArrayTransferIiLi200EEEEvRT_17TransferMetaFlags
1682:__ZN14SafeBinaryRead21TransferSTLStyleArrayI22OffsetPtrArrayTransferIN7mecanim9animation10ValueDeltaEEEEvRT_17TransferMetaFlags
1683:__ZN14SafeBinaryRead21TransferSTLStyleArrayI22OffsetPtrArrayTransferIfEEEvRT_17TransferMetaFlags
1684:__ZN7mecanim9animation10ValueDelta8TransferI14SafeBinaryReadEEvRT_
1685:__ZN14SafeBinaryRead21TransferSTLStyleArrayI22OffsetPtrArrayTransferIjEEEvRT_17TransferMetaFlags
1686:__ZN7mecanim9animation9DenseClip8TransferI14SafeBinaryReadEEvRT_
1687:__ZN15SerializeTraitsI9OffsetPtrIN7mecanim18ValueArrayConstantEEE8TransferI14SafeBinaryReadEEvRS3_RT_
1688:__ZN14SafeBinaryRead21TransferSTLStyleArrayI22OffsetPtrArrayTransferIN7mecanim13ValueConstantEEEEvRT_17TransferMetaFlags
1689:__ZN7mecanim13ValueConstant8TransferI14SafeBinaryReadEEvRT_
1690:__ZN14SafeBinaryRead21TransferSTLStyleArrayI19StaticArrayTransferIN7mecanim5human9HumanGoalELi4EEEEvRT_17TransferMetaFlags
1691:__ZN7mecanim4hand8HandPose8TransferI14SafeBinaryReadEEvRT_
1692:__ZN14SafeBinaryRead21TransferSTLStyleArrayI19StaticArrayTransferIfLi55EEEEvRT_17TransferMetaFlags
1693:__ZN14SafeBinaryRead21TransferSTLStyleArrayI19StaticArrayTransferIKN4math7_float3ELi21EEEEvRT_17TransferMetaFlags
1694:__ZN14SafeBinaryRead21TransferSTLStyleArrayI19StaticArrayTransferIfLi20EEEEvRT_17TransferMetaFlags
1695:__ZN7mecanim5human9HumanGoal8TransferI14SafeBinaryReadEEvRT_
1696:__Z14resize_trimmedINSt3__26vectorIN13AnimationClip9PPtrCurveE13stl_allocatorIS3_L18MemLabelIdentifier26ELi16EEEEEvRT_j
1697:__ZN13AnimationClip9PPtrCurve8TransferI14SafeBinaryReadEEvRT_
1698:__ZN14SafeBinaryRead21TransferSTLStyleArrayI13dynamic_arrayI12PPtrKeyframeLj0EEEEvRT_17TransferMetaFlags
1699:__ZN12PPtrKeyframe8TransferI14SafeBinaryReadEEvRT_
1700:__ZNSt3__26vectorIN13AnimationClip9PPtrCurveE13stl_allocatorIS2_L18MemLabelIdentifier26ELi16EEE7reserveEj
1701:__ZNSt3__26vectorIN13AnimationClip9PPtrCurveE13stl_allocatorIS2_L18MemLabelIdentifier26ELi16EEE6assignINS_11__wrap_iterIPS2_EEEENS_9enable_ifIXaasr21__is_forward_iteratorIT_EE5valuesr16is_constructibleIS2_NS_15iterator_traitsISC_E9referenceEEE5valueEvE4typeESC_SC_
1702:__ZNSt3__26vectorIN13AnimationClip9PPtrCurveE13stl_allocatorIS2_L18MemLabelIdentifier26ELi16EEE6resizeEj
1703:__ZNSt3__213__vector_baseIN13AnimationClip9PPtrCurveE13stl_allocatorIS2_L18MemLabelIdentifier26ELi16EEED2Ev
1704:__ZN13AnimationClip9PPtrCurveC2ERKS0_
1705:__ZNSt3__26vectorIN13AnimationClip9PPtrCurveE13stl_allocatorIS2_L18MemLabelIdentifier26ELi16EEE8__appendEj
1706:__ZNSt3__214__split_bufferIN13AnimationClip9PPtrCurveER13stl_allocatorIS2_L18MemLabelIdentifier26ELi16EEED2Ev
1707:__ZNSt3__26vectorIN13AnimationClip9PPtrCurveE13stl_allocatorIS2_L18MemLabelIdentifier26ELi16EEE10deallocateEv
1708:__Z14resize_trimmedINSt3__26vectorIN13AnimationClip10FloatCurveE13stl_allocatorIS3_L18MemLabelIdentifier26ELi16EEEEEvRT_j
1709:__ZN13AnimationClip10FloatCurve8TransferI14SafeBinaryReadEEvRT_
1710:__ZN17AnimationCurveTplIfE8TransferI14SafeBinaryReadEEvRT_
1711:__ZN14SafeBinaryRead21TransferSTLStyleArrayI13dynamic_arrayI11KeyframeTplIfELj0EEEEvRT_17TransferMetaFlags
1712:__ZN15SerializeTraitsI13dynamic_arrayI11KeyframeTplIfELj0EEE19ResizeSTLStyleArrayERS3_i
1713:__ZN11KeyframeTplIfE8TransferI14SafeBinaryReadEEvRT_
1714:__ZNSt3__26vectorIN13AnimationClip10FloatCurveE13stl_allocatorIS2_L18MemLabelIdentifier26ELi16EEE7reserveEj
1715:__ZNSt3__26vectorIN13AnimationClip10FloatCurveE13stl_allocatorIS2_L18MemLabelIdentifier26ELi16EEE6assignINS_11__wrap_iterIPS2_EEEENS_9enable_ifIXaasr21__is_forward_iteratorIT_EE5valuesr16is_constructibleIS2_NS_15iterator_traitsISC_E9referenceEEE5valueEvE4typeESC_SC_
1716:__ZNSt3__26vectorIN13AnimationClip10FloatCurveE13stl_allocatorIS2_L18MemLabelIdentifier26ELi16EEE6resizeEj
1717:__ZNSt3__213__vector_baseIN13AnimationClip10FloatCurveE13stl_allocatorIS2_L18MemLabelIdentifier26ELi16EEED2Ev
1718:__ZNSt3__26vectorIN13AnimationClip10FloatCurveE13stl_allocatorIS2_L18MemLabelIdentifier26ELi16EEE8__appendEj
1719:__ZNSt3__26vectorIN13AnimationClip10FloatCurveE13stl_allocatorIS2_L18MemLabelIdentifier26ELi16EEE10deallocateEv
1720:__Z14resize_trimmedINSt3__26vectorIN13AnimationClip12Vector3CurveE13stl_allocatorIS3_L18MemLabelIdentifier26ELi16EEEEEvRT_j
1721:__ZN13AnimationClip12Vector3Curve8TransferI14SafeBinaryReadEEvRT_
1722:__ZN17AnimationCurveTplI8Vector3fE8TransferI14SafeBinaryReadEEvRT_
1723:__ZN14SafeBinaryRead21TransferSTLStyleArrayI13dynamic_arrayI11KeyframeTplI8Vector3fELj0EEEEvRT_17TransferMetaFlags
1724:__ZN15SerializeTraitsI13dynamic_arrayI11KeyframeTplI8Vector3fELj0EEE19ResizeSTLStyleArrayERS4_i
1725:__ZN11KeyframeTplI8Vector3fE8TransferI14SafeBinaryReadEEvRT_
1726:__ZNSt3__26vectorIN13AnimationClip12Vector3CurveE13stl_allocatorIS2_L18MemLabelIdentifier26ELi16EEE7reserveEj
1727:__ZNSt3__26vectorIN13AnimationClip12Vector3CurveE13stl_allocatorIS2_L18MemLabelIdentifier26ELi16EEE6assignINS_11__wrap_iterIPS2_EEEENS_9enable_ifIXaasr21__is_forward_iteratorIT_EE5valuesr16is_constructibleIS2_NS_15iterator_traitsISC_E9referenceEEE5valueEvE4typeESC_SC_
1728:__ZNSt3__26vectorIN13AnimationClip12Vector3CurveE13stl_allocatorIS2_L18MemLabelIdentifier26ELi16EEE8__appendEj
1729:__ZNSt3__26vectorIN13AnimationClip12Vector3CurveE13stl_allocatorIS2_L18MemLabelIdentifier26ELi16EEEC2INS_11__wrap_iterIPS2_EEEET_SB_RKS5_PNS_9enable_ifIXaasr21__is_forward_iteratorISB_EE5valuesr16is_constructibleIS2_NS_15iterator_traitsISB_E9referenceEEE5valueEvE4typeE
1730:__ZNSt3__26vectorIN13AnimationClip12Vector3CurveE13stl_allocatorIS2_L18MemLabelIdentifier26ELi16EEE10deallocateEv
1731:__ZNSt3__26vectorIN13AnimationClip15QuaternionCurveE13stl_allocatorIS2_L18MemLabelIdentifier26ELi16EEE8__appendEj
1732:__Z14resize_trimmedINSt3__26vectorI24CompressedAnimationCurve13stl_allocatorIS2_L18MemLabelIdentifier26ELi16EEEEEvRT_j
1733:__ZN24CompressedAnimationCurve8TransferI14SafeBinaryReadEEvRT_
1734:__ZN15PackedIntVector8TransferI14SafeBinaryReadEEvRT_
1735:__ZN16PackedQuatVector8TransferI14SafeBinaryReadEEvRT_
1736:__ZN17PackedFloatVector8TransferI14SafeBinaryReadEEvRT_
1737:__ZNSt3__26vectorI24CompressedAnimationCurve13stl_allocatorIS1_L18MemLabelIdentifier26ELi16EEE7reserveEj
1738:__ZNSt3__26vectorI24CompressedAnimationCurve13stl_allocatorIS1_L18MemLabelIdentifier26ELi16EEE6assignINS_11__wrap_iterIPS1_EEEENS_9enable_ifIXaasr21__is_forward_iteratorIT_EE5valuesr16is_constructibleIS1_NS_15iterator_traitsISB_E9referenceEEE5valueEvE4typeESB_SB_
1739:__ZNSt3__26vectorI24CompressedAnimationCurve13stl_allocatorIS1_L18MemLabelIdentifier26ELi16EEE8__appendEj
1740:__ZN24CompressedAnimationCurveC2ERKS_
1741:__ZN24CompressedAnimationCurveaSERKS_
1742:__Z14resize_trimmedINSt3__26vectorIN13AnimationClip15QuaternionCurveE13stl_allocatorIS3_L18MemLabelIdentifier26ELi16EEEEEvRT_j
1743:__ZN13AnimationClip15QuaternionCurve8TransferI14SafeBinaryReadEEvRT_
1744:__ZN17AnimationCurveTplI11QuaternionfE8TransferI14SafeBinaryReadEEvRT_
1745:__ZN14SafeBinaryRead21TransferSTLStyleArrayI13dynamic_arrayI11KeyframeTplI11QuaternionfELj0EEEEvRT_17TransferMetaFlags
1746:__ZN15SerializeTraitsI13dynamic_arrayI11KeyframeTplI11QuaternionfELj0EEE19ResizeSTLStyleArrayERS4_i
1747:__ZN11KeyframeTplI11QuaternionfE8TransferI14SafeBinaryReadEEvRT_
1748:__ZNSt3__26vectorIN13AnimationClip15QuaternionCurveE13stl_allocatorIS2_L18MemLabelIdentifier26ELi16EEE7reserveEj
1749:__ZNSt3__26vectorIN13AnimationClip15QuaternionCurveE13stl_allocatorIS2_L18MemLabelIdentifier26ELi16EEE6assignINS_11__wrap_iterIPS2_EEEENS_9enable_ifIXaasr21__is_forward_iteratorIT_EE5valuesr16is_constructibleIS2_NS_15iterator_traitsISC_E9referenceEEE5valueEvE4typeESC_SC_
1750:__ZNSt3__26vectorIN13AnimationClip15QuaternionCurveE13stl_allocatorIS2_L18MemLabelIdentifier26ELi16EEE10deallocateEv
1751:__ZN13AnimationClip8TransferI24GenerateTypeTreeTransferEEvRT_
1752:__ZN24GenerateTypeTreeTransfer21TransferSTLStyleArrayINSt3__26vectorIN13AnimationClip15QuaternionCurveE13stl_allocatorIS4_L18MemLabelIdentifier26ELi16EEEEEEvRT_17TransferMetaFlags
1753:__ZN24GenerateTypeTreeTransfer21TransferSTLStyleArrayINSt3__26vectorI24CompressedAnimationCurve13stl_allocatorIS3_L18MemLabelIdentifier26ELi16EEEEEEvRT_17TransferMetaFlags
1754:__ZN24GenerateTypeTreeTransfer21TransferSTLStyleArrayINSt3__26vectorIN13AnimationClip12Vector3CurveE13stl_allocatorIS4_L18MemLabelIdentifier26ELi16EEEEEEvRT_17TransferMetaFlags
1755:__ZN24GenerateTypeTreeTransfer21TransferSTLStyleArrayINSt3__26vectorIN13AnimationClip10FloatCurveE13stl_allocatorIS4_L18MemLabelIdentifier26ELi16EEEEEEvRT_17TransferMetaFlags
1756:__ZN24GenerateTypeTreeTransfer21TransferSTLStyleArrayINSt3__26vectorIN13AnimationClip9PPtrCurveE13stl_allocatorIS4_L18MemLabelIdentifier26ELi16EEEEEEvRT_17TransferMetaFlags
1757:__Z21TransferBlobSerializeIN7mecanim9animation18ClipMuscleConstantE24GenerateTypeTreeTransferEvRPT_PKcRjS8_RT0_
1758:__ZN11UnityEngine9Animation28AnimationClipBindingConstant8TransferI24GenerateTypeTreeTransferEEvRT_
1759:__ZN24GenerateTypeTreeTransfer21TransferSTLStyleArrayINSt3__26vectorI14AnimationEvent13stl_allocatorIS3_L18MemLabelIdentifier26ELi16EEEEEEvRT_17TransferMetaFlags
1760:__ZN14AnimationEvent8TransferI24GenerateTypeTreeTransferEEvRT_
1761:__ZN11UnityEngine9Animation14GenericBinding8TransferI24GenerateTypeTreeTransferEEvRT_
1762:__ZN7mecanim9animation18ClipMuscleConstant8TransferI24GenerateTypeTreeTransferEEvRT_
1763:__ZN7mecanim5human9HumanPose8TransferI24GenerateTypeTreeTransferEEvRT_
1764:__ZN24GenerateTypeTreeTransfer8TransferIN4math4trsXEEEvRT_PKc17TransferMetaFlags
1765:__ZN7mecanim9animation4Clip8TransferI24GenerateTypeTreeTransferEEvRT_
1766:__ZN7mecanim9animation9DenseClip8TransferI24GenerateTypeTreeTransferEEvRT_
1767:__Z17TransferOffsetPtrI9OffsetPtrIN7mecanim13ValueConstantEE24GenerateTypeTreeTransferEvRT_PKcRjRT0_
1768:__ZN7mecanim4hand8HandPose8TransferI24GenerateTypeTreeTransferEEvRT_
1769:__ZN24GenerateTypeTreeTransfer8TransferIN13AnimationClip9PPtrCurveEEEvRT_PKc17TransferMetaFlags
1770:__ZN13AnimationClip10FloatCurve8TransferI24GenerateTypeTreeTransferEEvRT_
1771:__ZN17AnimationCurveTplIfE8TransferI24GenerateTypeTreeTransferEEvRT_
1772:__ZN11KeyframeTplIfE8TransferI24GenerateTypeTreeTransferEEvRT_
1773:__ZN17AnimationCurveTplI8Vector3fE8TransferI24GenerateTypeTreeTransferEEvRT_
1774:__ZN11KeyframeTplI8Vector3fE8TransferI24GenerateTypeTreeTransferEEvRT_
1775:__ZN24CompressedAnimationCurve8TransferI24GenerateTypeTreeTransferEEvRT_
1776:__ZN24GenerateTypeTreeTransfer8TransferI15PackedIntVectorEEvRT_PKc17TransferMetaFlags
1777:__ZN17PackedFloatVector8TransferI24GenerateTypeTreeTransferEEvRT_
1778:__ZN17AnimationCurveTplI11QuaternionfE8TransferI24GenerateTypeTreeTransferEEvRT_
1779:__ZN11KeyframeTplI11QuaternionfE8TransferI24GenerateTypeTreeTransferEEvRT_
1780:__ZN13AnimationClip8TransferI17RemapPPtrTransferEEvRT_
1781:__ZN14AnimationEvent8TransferI17RemapPPtrTransferEEvRT_
1782:__ZN13AnimationClip8TransferI18StreamedBinaryReadEEvRT_
1783:__ZN18StreamedBinaryRead8TransferINSt3__26vectorIN13AnimationClip15QuaternionCurveE13stl_allocatorIS4_L18MemLabelIdentifier26ELi16EEEEEEvRT_PKc17TransferMetaFlags
1784:__ZN24CompressedAnimationCurve8TransferI18StreamedBinaryReadEEvRT_
1785:__ZN18StreamedBinaryRead8TransferINSt3__26vectorIN13AnimationClip12Vector3CurveE13stl_allocatorIS4_L18MemLabelIdentifier26ELi16EEEEEEvRT_PKc17TransferMetaFlags
1786:__ZN13AnimationClip10FloatCurve8TransferI18StreamedBinaryReadEEvRT_
1787:__ZN13AnimationClip9PPtrCurve8TransferI18StreamedBinaryReadEEvRT_
1788:__Z21TransferBlobSerializeIN7mecanim9animation18ClipMuscleConstantE18StreamedBinaryReadEvRPT_PKcRjS8_RT0_
1789:__ZN18StreamedBinaryRead8TransferIN11UnityEngine9Animation28AnimationClipBindingConstantEEEvRT_PKc17TransferMetaFlags
1790:__ZN14AnimationEvent8TransferI18StreamedBinaryReadEEvRT_
1791:__ZN11UnityEngine9Animation14GenericBinding8TransferI18StreamedBinaryReadEEvRT_
1792:__ZN18StreamedBinaryRead21TransferSTLStyleArrayI13dynamic_arrayI4PPtrI6ObjectELj0EEEEvRT_17TransferMetaFlags
1793:__ZN7mecanim9animation18ClipMuscleConstant8TransferI18StreamedBinaryReadEEvRT_
1794:__ZN7mecanim5human9HumanPose8TransferI18StreamedBinaryReadEEvRT_
1795:__ZN15SerializeTraitsIN4math4trsXEE8TransferI18StreamedBinaryReadEEvRS1_RT_
1796:__ZN7mecanim9animation4Clip8TransferI18StreamedBinaryReadEEvRT_
1797:__ZN18StreamedBinaryRead21TransferSTLStyleArrayI22OffsetPtrArrayTransferIN7mecanim9animation10ValueDeltaEEEEvRT_17TransferMetaFlags
1798:__ZN18StreamedBinaryRead8TransferIN7mecanim9animation12StreamedClipEEEvRT_PKc17TransferMetaFlags
1799:__ZN7mecanim9animation9DenseClip8TransferI18StreamedBinaryReadEEvRT_
1800:__ZN18StreamedBinaryRead21TransferSTLStyleArrayI22OffsetPtrArrayTransferIN7mecanim13ValueConstantEEEEvRT_17TransferMetaFlags
1801:__ZN7mecanim5human9HumanGoal8TransferI18StreamedBinaryReadEEvRT_
1802:__ZN7mecanim4hand8HandPose8TransferI18StreamedBinaryReadEEvRT_
1803:__ZN18StreamedBinaryRead21TransferSTLStyleArrayI19StaticArrayTransferIKN4math7_float3ELi21EEEEvRT_17TransferMetaFlags
1804:__ZN18StreamedBinaryRead21TransferSTLStyleArrayI13dynamic_arrayI12PPtrKeyframeLj0EEEEvRT_17TransferMetaFlags
1805:__ZN17AnimationCurveTplIfE8TransferI18StreamedBinaryReadEEvRT_
1806:__ZN17AnimationCurveTplI8Vector3fE8TransferI18StreamedBinaryReadEEvRT_
1807:__ZN17PackedFloatVector8TransferI18StreamedBinaryReadEEvRT_
1808:__ZN17AnimationCurveTplI11QuaternionfE8TransferI18StreamedBinaryReadEEvRT_
1809:__ZN13AnimationClip8TransferI19StreamedBinaryWriteEEvRT_
1810:__ZN17AnimationCurveTplI11QuaternionfE8TransferI19StreamedBinaryWriteEEvRT_
1811:__ZN24CompressedAnimationCurve8TransferI19StreamedBinaryWriteEEvRT_
1812:__ZN13AnimationClip14CompressCurvesERNSt3__26vectorI24CompressedAnimationCurve13stl_allocatorIS2_L18MemLabelIdentifier26ELi16EEEE
1813:__ZN17AnimationCurveTplI8Vector3fE8TransferI19StreamedBinaryWriteEEvRT_
1814:__ZN13AnimationClip10FloatCurve8TransferI19StreamedBinaryWriteEEvRT_
1815:__ZN13AnimationClip9PPtrCurve8TransferI19StreamedBinaryWriteEEvRT_
1816:__Z21TransferBlobSerializeIN7mecanim9animation18ClipMuscleConstantE19StreamedBinaryWriteEvRPT_PKcRjS8_RT0_
1817:__ZN11UnityEngine9Animation28AnimationClipBindingConstant8TransferI19StreamedBinaryWriteEEvRT_
1818:__ZN14AnimationEvent8TransferI19StreamedBinaryWriteEEvRT_
1819:__ZN11UnityEngine9Animation14GenericBinding8TransferI19StreamedBinaryWriteEEvRT_
1820:__ZN7mecanim9animation18ClipMuscleConstant8TransferI19StreamedBinaryWriteEEvRT_
1821:__ZN7mecanim5human9HumanPose8TransferI19StreamedBinaryWriteEEvRT_
1822:__ZN15SerializeTraitsIN4math4trsXEE8TransferI19StreamedBinaryWriteEEvRS1_RT_
1823:__ZN7mecanim9animation4Clip8TransferI19StreamedBinaryWriteEEvRT_
1824:__Z17TransferOffsetPtrI9OffsetPtrIN7mecanim9animation10ValueDeltaEE19StreamedBinaryWriteEvRT_PKcRjRT0_
1825:__ZN7mecanim9animation9DenseClip8TransferI19StreamedBinaryWriteEEvRT_
1826:__ZN15SerializeTraitsI22OffsetPtrArrayTransferIN7mecanim13ValueConstantEEE8TransferI19StreamedBinaryWriteEEvRS3_RT_
1827:__ZN7mecanim5human9HumanGoal8TransferI19StreamedBinaryWriteEEvRT_
1828:__ZN7mecanim4hand8HandPose8TransferI19StreamedBinaryWriteEEvRT_
1829:__Z13TransferArrayILi21EKN4math7_float3E19StreamedBinaryWriteEjRAT__T0_PKcRT1_
1830:__Z13TransferArrayILi20Ef19StreamedBinaryWriteEjRAT__T0_PKcRT1_
1831:__ZN17AnimationCurveTplIfE8TransferI19StreamedBinaryWriteEEvRT_
1832:__ZN11KeyframeTplIfE8TransferI19StreamedBinaryWriteEEvRT_
1833:__ZN11KeyframeTplI8Vector3fE8TransferI19StreamedBinaryWriteEEvRT_
1834:__ZN15PackedIntVector8TransferI19StreamedBinaryWriteEEvRT_
1835:__ZN15SerializeTraitsI16PackedQuatVectorE8TransferI19StreamedBinaryWriteEEvRS0_RT_
1836:__ZN17PackedFloatVector8TransferI19StreamedBinaryWriteEEvRT_
1837:__ZN11KeyframeTplI11QuaternionfE8TransferI19StreamedBinaryWriteEEvRT_
1838:__ZL25SetAdditionalCurvesValuesRN7mecanim10ValueArrayERKN11UnityEngine9Animation20AnimationSetBindingsERKNS_18ValueArrayConstantES9_RKS0_
1839:__ZN11UnityEngine9Animation29SetGenericFloatPropertyValuesERKNS0_30AnimatorGenericBindingConstantERKN7mecanim10ValueArrayE
1840:__ZN11UnityEngine9Animation28SetGenericPPtrPropertyValuesERKNS0_30AnimatorGenericBindingConstantERKN7mecanim10ValueArrayE
1841:__ZN11UnityEngine9Animation27SetGenericIntPropertyValuesERKNS0_30AnimatorGenericBindingConstantERKN7mecanim10ValueArrayE
1842:__ZN11UnityEngine9Animation31SetHumanTransformPropertyValuesERKNS0_21AvatarBindingConstantERKN7mecanim8skeleton13SkeletonPoseTIN4math4trsXEEEby
1843:__ZN11UnityEngine9Animation33SetGenericTransformPropertyValuesERKNS0_30AnimatorGenericBindingConstantERKN7mecanim10ValueArrayEP9Transformy
1844:__ZN11UnityEngine9Animation39SetGenericTransformPropertyValuesNoSyncERKNS0_30AnimatorGenericBindingConstantERKN7mecanim10ValueArrayEP9Transformy
1845:__Z10SetLocalTR15TransformAccessRKN4math7_float3ERKNS0_7_float4Ey
1846:__ZN11UnityEngine9Animation23SetBoundCurveFloatValueERKNS0_10BoundCurveEf
1847:__ZN11UnityEngine9Animation27BoundCurveValueAwakeGenericER6Object
1848:__ZN11UnityEngine9Animation28SetBoundCurveInstanceIDValueERKNS0_10BoundCurveEi
1849:__Z20BindAdditionalCurvesRKN7mecanim18ValueArrayConstantEjPKN11UnityEngine9Animation14GenericBindingEPi
1850:__ZN8Animator13BatchedFKPassERK13dynamic_arrayIP14PlayableOutputLj0EE
1851:__ZN8Animator13BatchedIKPassERK13dynamic_arrayIP14PlayableOutputLj0EE
1852:__ZN8Animator13UpdateAvatarsERK13dynamic_arrayIP14PlayableOutputLj0EEbbb
1853:__ZN8Animator9BuildJobsERK13dynamic_arrayIP14PlayableOutputLj0EERS0_INS_11AnimatorJobELj0EEPS7_bb
1854:__ZNK23AnimationPlayableOutput17GetTargetAnimatorEv
1855:__ZN8Animator12CreateObjectEv
1856:__ZN14AvatarPlayback10CursorTimeEv
1857:__ZN8Animator23SetPlaybackTimeInternalEf
1858:__ZN21AnimationHandleBinder24ReadPropertySceneHandlesEv
1859:__ZN8Animator20ProcessRootMotionJobEPNS_11AnimatorJobEj
1860:__ZN8Animator19FireAnimationEventsERNS_11AnimatorJobE
1861:__ZN8Animator14FireBehavioursEN7mecanim12statemachine19StateMachineMessageERNS_11AnimatorJobE
1862:__ZN13dynamic_arrayIN8Animator11AnimatorJobELj0EED2Ev
1863:__ZN26AnimatorControllerPlayable24ClearFirstEvaluationFlagEv
1864:__ZN8Animator19ApplyOnAnimatorMoveERNS_11AnimatorJobE
1865:__ZN7mecanim9animation31UpdateAvatarMemoryFirstEvalFlagEPNS0_12AvatarMemoryEf
1866:__ZN8Animator24SortJobsBasedOnHierarchyERK13dynamic_arrayINS_11AnimatorJobELj0EERS0_IS2_Lj0EE
1867:__ZN8Animator21ProcessAnimationsStepERNS_11AnimatorJobE
1868:__ZN8Animator12RetargetStepEv
1869:__ZN8Animator9WriteStepEy
1870:__ZN8Animator5IKJobEPNS_11AnimatorJobEj
1871:__ZN8Animator17ApplyOnAnimatorIKEiRNS_11AnimatorJobE
1872:__ZN8Animator15WritePropertiesEff
1873:__ZN21AnimationHandleBinder25WritePropertySceneHandlesEv
1874:__ZN14AvatarPlayback11RecordFrameEfPKN7mecanim9animation12AvatarMemoryEPNS1_16ControllerMemoryE
1875:__Z8CopyBlobIN7mecanim9animation12AvatarMemoryEEPT_RKS3_R20RuntimeBaseAllocatorRj
1876:__Z8CopyBlobIN7mecanim9animation16ControllerMemoryEEPT_RKS3_R20RuntimeBaseAllocatorRj
1877:__ZNSt3__26vectorI11AvatarFrameNS_9allocatorIS1_EEE21__push_back_slow_pathIRKS1_EEvOT_
1878:__ZN9BlobWrite8TransferIN7mecanim9animation16ControllerMemoryEEEvRT_PKc17TransferMetaFlags
1879:__ZN7mecanim9animation16ControllerMemory8TransferI8BlobSizeEEvRT_
1880:__ZN7mecanim9animation16ControllerMemory8TransferI9BlobWriteEEvRT_
1881:__ZN9BlobWrite8TransferI22OffsetPtrArrayTransferI9OffsetPtrIN7mecanim12statemachine18StateMachineMemoryEEEEEvRT_PKc17TransferMetaFlags
1882:__ZN9BlobWrite8TransferI9OffsetPtrIN7mecanim10ValueArrayEEEEvRT_PKc17TransferMetaFlags
1883:__ZN9BlobWrite8TransferIN7mecanim10ValueArrayEEEvRT_PKc17TransferMetaFlags
1884:__ZN7mecanim10ValueArray8TransferI8BlobSizeEEvRT_
1885:__ZN7mecanim10ValueArray8TransferI9BlobWriteEEvRT_
1886:__ZN9BlobWrite8TransferI22OffsetPtrArrayTransferIKN4math7_float3EEEEvRT_PKc17TransferMetaFlags
1887:__ZN9BlobWrite8TransferI22OffsetPtrArrayTransferIKN4math7_float4EEEEvRT_PKc17TransferMetaFlags
1888:__ZN9BlobWrite8TransferI22OffsetPtrArrayTransferIbEEEvRT_PKc17TransferMetaFlags
1889:__ZN34BlobWriteTransferSTLStyleArrayImplI22OffsetPtrArrayTransferIbEEclERS1_17TransferMetaFlagsR9BlobWrite
1890:__ZN34BlobWriteTransferSTLStyleArrayImplI22OffsetPtrArrayTransferIKN4math7_float4EEEclERS4_17TransferMetaFlagsR9BlobWrite
1891:__ZN34BlobWriteTransferSTLStyleArrayImplI22OffsetPtrArrayTransferIKN4math7_float3EEEclERS4_17TransferMetaFlagsR9BlobWrite
1892:__ZN34BlobWriteTransferSTLStyleArrayImplI22OffsetPtrArrayTransferI9OffsetPtrIN7mecanim12statemachine18StateMachineMemoryEEEEclERS6_17TransferMetaFlagsR9BlobWrite
1893:__ZN9BlobWrite8TransferI9OffsetPtrIN7mecanim12statemachine18StateMachineMemoryEEEEvRT_PKc17TransferMetaFlags
1894:__ZN9BlobWrite8TransferIN7mecanim12statemachine18StateMachineMemoryEEEvRT_PKc17TransferMetaFlags
1895:__ZN7mecanim12statemachine18StateMachineMemory8TransferI8BlobSizeEEvRT_
1896:__ZN7mecanim12statemachine18StateMachineMemory8TransferI9BlobWriteEEvRT_
1897:__ZN9BlobWrite8TransferIN7mecanim9animation12AvatarMemoryEEEvRT_PKc17TransferMetaFlags
1898:__ZN7mecanim9animation12AvatarMemory8TransferI8BlobSizeEEvRT_
1899:__ZN7mecanim9animation12AvatarMemory8TransferI9BlobWriteEEvRT_
1900:__ZN7mecanim9animation16EvaluateAvatarIKEPKNS0_14AvatarConstantEPKNS0_11AvatarInputEPNS0_12AvatarOutputEPNS0_12AvatarMemoryEPNS0_15AvatarWorkspaceEb
1901:__ZN7mecanim9animation17EvaluateAvatarEndEPKNS0_14AvatarConstantEPKNS0_11AvatarInputEPNS0_12AvatarOutputEPNS0_12AvatarMemoryEPNS0_15AvatarWorkspaceE
1902:__ZN7mecanim8skeleton16SkeletonPoseCopyIN4math4trsXES3_EEvPKNS0_13SkeletonPoseTIT_EEPNS4_IT0_EE
1903:__ZN7mecanim5human10TwistSolveEPKNS0_5HumanEPNS_8skeleton13SkeletonPoseTIN4math4trsXEEES9_
1904:__ZN7mecanim8skeleton16SkeletonPoseCopyIN4math4trsXES3_EEvPKNS0_13SkeletonPoseTIT_EEPNS4_IT0_EEjPKi
1905:__ZN7mecanim5human13HumanFixTwistEPKNS0_5HumanEPNS_8skeleton13SkeletonPoseTIN4math4trsXEEES9_iiRKf
1906:__ZN7mecanim8skeleton26SkeletonPoseComputeGlobalQEPKNS0_8SkeletonEPKNS0_13SkeletonPoseTIN4math4trsXEEEPS7_ii
1907:__ZN7mecanim8skeleton13SkeletonAlignEPKNS0_8SkeletonERKN4math7_float4ES7_i
1908:__ZN7mecanim8skeleton25SkeletonPoseComputeLocalQEPKNS0_8SkeletonEPKNS0_13SkeletonPoseTIN4math4trsXEEEPS7_ii
1909:__ZN7mecanim5human20HumanGetHintPositionEPKNS0_5HumanEPKNS_8skeleton13SkeletonPoseTIN4math4trsXEEENS0_4GoalE
1910:__ZN7mecanim5human13FullBodySolveEPKNS0_5HumanEPKNS0_9HumanPoseEPNS_8skeleton13SkeletonPoseTIN4math4trsXEEESC_SC_
1911:__ZN7mecanim5human15GetLookAtDeltaQERKN4math7_float3ES4_RKNS1_7_float4ES4_S4_RKf
1912:__ZN7mecanim8skeleton25Skeleton2BoneAdjustLengthEPKNS0_8SkeletonEiiiRKN4math7_float3ERKfPNS0_13SkeletonPoseTINS4_4trsXEEESD_
1913:__ZN7mecanim8skeleton15Skeleton2BoneIKEPKNS0_8SkeletonEiiiRKN4math7_float3EfPNS0_13SkeletonPoseTINS4_4trsXEEESB_
1914:__ZN7mecanim8skeleton23Skeleton2BoneAdjustHintEPKNS0_8SkeletonEiiiRKN4math7_float3EfPNS0_13SkeletonPoseTINS4_4trsXEEESB_f
1915:__ZN7mecanim5human17ReachGoalRotationEPKNS0_5HumanERKN4math7_float4EiPNS_8skeleton13SkeletonPoseTINS4_4trsXEEESC_SC_
1916:__ZN7mecanim5human14HumanFixEndDoFEPKNS0_5HumanEPNS_8skeleton13SkeletonPoseTIN4math4trsXEEES9_iifi
1917:__ZN7mecanim8skeleton14SkeletonGetDoFEPKNS0_8SkeletonEPKNS0_13SkeletonPoseTIN4math4trsXEEEi
1918:__ZN7mecanim8skeleton14SkeletonSetDoFEPKNS0_8SkeletonEPNS0_13SkeletonPoseTIN4math4trsXEEERKNS5_7_float3Ei
1919:__ZN11UnityEngine9Animation37SetHumanTransformPropertyValuesNoSyncERKNS0_21AvatarBindingConstantERKN7mecanim8skeleton13SkeletonPoseTIN4math4trsXEEEby
1920:__ZN7mecanim9animation21SkeletonPoseFromValueIN4math4trsXEEEvRKNS_8skeleton8SkeletonERKNS4_13SkeletonPoseTIS3_EERKNS_10ValueArrayEPKNS0_14SkeletonTQSMapERNS8_IT_EEPKib
1921:__ZN7mecanim8skeleton16SkeletonPoseCopyIN4math4trsXENS2_7affineXEEEvPKNS0_13SkeletonPoseTIT_EEPNS5_IT0_EE
1922:__ZN7mecanim8skeleton25SkeletonPoseComputeGlobalIN4math7affineXEEEvPKNS0_8SkeletonEPKNS0_13SkeletonPoseTIT_EEPS9_
1923:__Z34SetExposedSkeletonTransformsNoSyncRKN7mecanim9animation14AvatarConstantERKN11UnityEngine9Animation30AnimatorGenericBindingConstantERKNS_8skeleton13SkeletonPoseTIN4math4trsXEEERKNSA_INSB_7affineXEEERNS5_21AvatarBindingConstantEy
1924:__ZN7mecanim8skeleton25SkeletonGetGlobalRotationEPKNS0_8SkeletonEPKNS0_13SkeletonPoseTIN4math4trsXEEEi
1925:__ZN7mecanim9animation22EvaluateAvatarRetargetEPKNS0_14AvatarConstantEPKNS0_11AvatarInputEPNS0_12AvatarOutputEPNS0_12AvatarMemoryEPNS0_15AvatarWorkspaceEb
1926:__ZN7mecanim5human10RetargetToEPKNS0_5HumanEPKNS0_9HumanPoseES6_RKN4math4trsXEPS4_PNS_8skeleton13SkeletonPoseTIS8_EESF_
1927:__ZN7mecanim9animation11SetIKOnFeetEbRKNS0_14AvatarConstantERKNS0_11AvatarInputERNS0_12AvatarMemoryERNS0_15AvatarWorkspaceERNS0_12AvatarOutputE
1928:__ZN7mecanim5human30HumanPoseAdjustForMissingBonesEPKNS0_5HumanEPNS0_9HumanPoseE
1929:__ZN7mecanim5human18Human2SkeletonPoseEPKNS0_5HumanEPKNS0_9HumanPoseEPNS_8skeleton13SkeletonPoseTIN4math4trsXEEE
1930:__ZN7mecanim5human14RetargetToTDoFEPKNS0_5HumanEPNS0_9HumanPoseEPKNS_8skeleton13SkeletonPoseTIN4math4trsXEEEPSA_SD_
1931:__ZN7mecanim5human26HumanComputeBoneMassCenterEPKNS0_5HumanEPKNS_8skeleton13SkeletonPoseTIN4math4trsXEEEi
1932:__ZN7mecanim5human23HumanComputeOrientationEPKNS0_5HumanEPKNS_8skeleton13SkeletonPoseTIN4math4trsXEEE
1933:__ZN7mecanim4hand17Hand2SkeletonPoseEPKNS0_4HandEPKNS_8skeleton8SkeletonEPKNS0_8HandPoseEPNS4_13SkeletonPoseTIN4math4trsXEEE
1934:__ZN12_GLOBAL__N_121ProcessAnimationBeginER35AnimationPlayableEvaluationConstantR32AnimationPlayableEvaluationInputR33AnimationPlayableEvaluationOutput
1935:__ZN12_GLOBAL__N_119ProcessAnimationMixER33AnimationPlayableEvaluationOutputR35AnimationPlayableEvaluationConstantR32AnimationPlayableEvaluationInputS1_f
1936:__ZN12_GLOBAL__N_119ProcessAnimationEndER35AnimationPlayableEvaluationConstantR32AnimationPlayableEvaluationInputR33AnimationPlayableEvaluationOutput
1937:__ZN12_GLOBAL__N_120ProcessPlayableGraphERN8Animator11AnimatorJobER35AnimationPlayableEvaluationConstantR32AnimationPlayableEvaluationInputR33AnimationPlayableEvaluationOutputPFvS4_R17AnimationPlayableEPFvS4_S6_S8_EPFvS8_S4_S6_S8_fESE_MS9_FvPS3_PS5_PS7_E
1938:__ZN17AnimationPlayable28UpdateInternalStateRecursiveILi3ELb1EEEvPK35AnimationPlayableEvaluationConstant
1939:__ZN7mecanim15InvertValueMaskILb0EEEvPNS_14ValueArrayMaskE
1940:__ZN27AnimationLayerMixerPlayable9MixValuesILb0EEEvP33AnimationPlayableEvaluationOutputP35AnimationPlayableEvaluationConstantP32AnimationPlayableEvaluationInputS2_f
1941:__ZL7JobSortPKN8Animator11AnimatorJobES2_
1942:__ZNSt3__26__sortIRPFbPKN8Animator11AnimatorJobES4_EPS4_EEvT0_S9_T_
1943:__ZN13dynamic_arrayIS_IN8Animator11AnimatorJobELj0EELj0EE12emplace_backEv
1944:__ZN13dynamic_arrayIN8Animator11AnimatorJobELj0EE9push_backERKS1_
1945:__ZN8Animator11AnimatorJobC2ERKS0_
1946:__ZNSt3__27__sort4IRPFbPKN8Animator11AnimatorJobES4_EPS4_EEjT0_S9_S9_S9_T_
1947:__ZNSt3__218__insertion_sort_3IRPFbPKN8Animator11AnimatorJobES4_EPS4_EEvT0_S9_T_
1948:__ZNSt3__227__insertion_sort_incompleteIRPFbPKN8Animator11AnimatorJobES4_EPS4_EEbT0_S9_T_
1949:__ZN11UnityEngine9Animation23SetMotionXProperyValuesERKNS0_30AnimatorGenericBindingConstantERKN7mecanim9animation14AvatarConstantERKNS5_12AvatarOutputE15TransformAccessy
1950:__ZN8Animator22ApplyBuiltinRootMotionEv
1951:__ZN11UnityEngine9Animation37HasGenericRootTransformPropertyValuesERKNS0_30AnimatorGenericBindingConstantEb
1952:__ZN11UnityEngine9Animation37SetGenericRootTransformPropertyValuesERKNS0_30AnimatorGenericBindingConstantERKN7mecanim10ValueArrayER9Transformbb
1953:__Z35InverseTransformPositionAndRotationRK23TransformAccessReadOnlyRKN4math7_float3ERKNS2_7_float4E
1954:__ZNK26AnimatorControllerPlayable20GetAnimatorStateInfoEi14StateInfoIndexR17AnimatorStateInfo
1955:__ZNK27StateMachineBehaviourPlayer18FireStateBehaviourER17AnimatorStateInfoiN7mecanim12statemachine19StateMachineMessageE
1956:__ZNK26AnimatorControllerPlayable18ValidateLayerIndexEi
1957:__ZN13AnimationClip19FireAnimationEventsEP22AnimationClipEventInfoRN5Unity9ComponentE
1958:__Z9FireEventR14AnimationEventRN5Unity9ComponentEP14AnimationStateP17AnimatorStateInfoP16AnimatorClipInfo
1959:__Z20AnimationEventToMonoRK14AnimationEventR18MonoAnimationEvent
1960:__Z22AnimatorClipInfoToMonoRK16AnimatorClipInfoR20MonoAnimatorClipInfo
1961:__ZN8Animator21ProcessRootMotionStepERNS_11AnimatorJobE
1962:__ZNK13BoundPlayable17GetPlayableOutputEv
1963:__ZNK13BoundPlayable20GetAnimationPlayableEv
1964:__ZN12_GLOBAL__N_120PreProcessRootMotionER35AnimationPlayableEvaluationConstantR17AnimationPlayable
1965:__ZN12_GLOBAL__N_122ProcessRootMotionBeginER35AnimationPlayableEvaluationConstantR32AnimationPlayableEvaluationInputR33AnimationPlayableEvaluationOutput
1966:__ZN12_GLOBAL__N_120ProcessRootMotionMixER33AnimationPlayableEvaluationOutputR35AnimationPlayableEvaluationConstantR32AnimationPlayableEvaluationInputS1_f
1967:__ZN12_GLOBAL__N_120ProcessRootMotionEndER35AnimationPlayableEvaluationConstantR32AnimationPlayableEvaluationInputR33AnimationPlayableEvaluationOutput
1968:__ZN7mecanim9animation16EvaluateAvatarDXEPKNS0_14AvatarConstantEPKNS0_11AvatarInputEPNS0_12AvatarMemoryEPNS0_15AvatarWorkspaceEPNS0_12AvatarOutputE
1969:__ZN8Animator11TargetMatchEv
1970:__ZN7mecanim9animation28MotionOutputGetDeltaPositionEPKNS0_12MotionOutputE
1971:__ZN7mecanim9animation28MotionOutputGetDeltaRotationEPKNS0_12MotionOutputE
1972:__ZN7mecanim9animation15EvaluateAvatarXEPKNS0_14AvatarConstantEPKNS0_11AvatarInputEPNS0_12AvatarOutputEPNS0_12AvatarMemoryEPNS0_15AvatarWorkspaceE
1973:__ZN7mecanim9animation29MotionOutputGetDeltaTransformEPKNS0_12MotionOutputE
1974:__ZNK26AnimatorControllerPlayable22IsInTransitionInternalEi
1975:__ZNK8Animator20IsInMatchTargetStateEv
1976:__ZN7mecanim5human29HumanGetGoalOrientationOffsetENS0_4GoalE
1977:__ZN7mecanim9animation29MotionOutputSetDeltaTransformEPNS0_12MotionOutputERKN4math4trsXE
1978:__ZNK26AnimatorControllerPlayable21GetStateMachineMemoryEi
1979:__ZN7mecanim9animation28MotionOutputSetDeltaPositionEPNS0_12MotionOutputERKN4math7_float3E
1980:__ZN27AnimationLayerMixerPlayable13MixRootMotionEP33AnimationPlayableEvaluationOutputP35AnimationPlayableEvaluationConstantP32AnimationPlayableEvaluationInputS1_fb
1981:__ZN27AnimationLayerMixerPlayable22MixRootTransformValuesEP33AnimationPlayableEvaluationOutputP35AnimationPlayableEvaluationConstantP32AnimationPlayableEvaluationInputS1_f
1982:__ZN27AnimationLayerMixerPlayable9MixValuesILb1EEEvP33AnimationPlayableEvaluationOutputP35AnimationPlayableEvaluationConstantP32AnimationPlayableEvaluationInputS2_f
1983:__ZN14AvatarPlayback9PlayFrameEfRPN7mecanim9animation12AvatarMemoryERPNS1_16ControllerMemoryE
1984:__ZN26AnimatorControllerPlayable18PrepareForPlaybackER20RuntimeBaseAllocator
1985:__ZN26AnimatorControllerPlayable15SetRecorderDataEPN7mecanim9animation16ControllerMemoryER20RuntimeBaseAllocator
1986:__ZN34AnimationStateMachineMixerPlayable16ArrangePlayablesEbb
1987:__ZN8Animator11ClearObjectEv
1988:__ZN8Animator24CollectAnimatedRenderersERKNS_15BindingsDataSetE
1989:__ZN8Animator13AvatarDataSet5ResetEv
1990:__ZN7mecanim9animation21DestroyAvatarConstantEPNS0_14AvatarConstantER20RuntimeBaseAllocator
1991:__ZN7mecanim9animation19DestroyAvatarOutputEPNS0_12AvatarOutputER20RuntimeBaseAllocator
1992:__ZN7mecanim9animation22DestroyAvatarWorkspaceEPNS0_15AvatarWorkspaceER20RuntimeBaseAllocator
1993:__ZN11UnityEngine9Animation28DestroyAvatarBindingConstantEPNS0_21AvatarBindingConstantER20RuntimeBaseAllocator
1994:__ZN8Animator11AnimatorJob11AddPlayableEP17AnimationPlayablef
1995:__ZN21AnimationHandleBinder31SyncSceneHandlesTransformAccessEv
1996:__ZN8Animator11AnimatorJobC2E15TransformAccessyPS_P17AnimationPlayablef
1997:__ZNK6Avatar7IsHumanEv
1998:__ZN13dynamic_arrayI16WeightedPlayableLj0EE6insertEPS0_jRKS0_
1999:__ZN8Animator26AnimatorVisibilityCallbackEPvS0_i
2000:__ZN8Animator19SetVisibleRenderersEb
2001:__ZN8Animator8TransferI14SafeBinaryReadEEvRT_
2002:__ZN8Animator8TransferI24GenerateTypeTreeTransferEEvRT_
2003:__ZN8Animator8TransferI18StreamedBinaryReadEEvRT_
2004:__ZN8Animator8TransferI19StreamedBinaryWriteEEvRT_
2005:__ZN8Animator27InitializeVisibilityCullingEv
2006:__ZN8Animator34RecomputeContainedRenderersRecurseER9Transform
2007:__ZN21AnimationHandleBinder17MainThreadCleanupEv
2008:__ZL39InvalidateSceneHandleTransformsCallbackPvS_i
2009:__ZN8Animator18AutoMecanimDataSet5ResetEv
2010:__ZN25RuntimeAnimatorController23DestroyCustomControllerEPN7mecanim9animation18ControllerConstantER20RuntimeBaseAllocator
2011:__ZN7mecanim9animation24DestroyBlendTreeConstantEPNS0_17BlendTreeConstantER20RuntimeBaseAllocator
2012:__ZN7mecanim12statemachine20DestroyStateConstantEPNS0_13StateConstantER20RuntimeBaseAllocator
2013:__ZN7mecanim9animation25DestroyControllerConstantEPNS0_18ControllerConstantER20RuntimeBaseAllocator
2014:__ZN7mecanim9animation28DestroyBlendTreeNodeConstantEPNS0_21BlendTreeNodeConstantER20RuntimeBaseAllocator
2015:__ZN14AvatarPlaybackD2Ev
2016:__ZN14AvatarPlaybackD0Ev
2017:__ZN14SafeBinaryRead21TransferSTLStyleArrayI13dynamic_arrayIjLj0EEEEvRT_17TransferMetaFlags
2018:__ZN14SafeBinaryRead8TransferIjEEvRT_PKc17TransferMetaFlags
2019:__ZN26AnimatorOverrideControllerD2Ev
2020:__ZN26AnimatorOverrideControllerD0Ev
2021:__ZN26AnimatorOverrideController17MainThreadCleanupEv
2022:__ZN26AnimatorOverrideController13AwakeFromLoadE17AwakeFromLoadMode
2023:__ZNK26AnimatorOverrideController22GetTypeVirtualInternalEv
2024:__ZN26AnimatorOverrideController23VirtualRedirectTransferER19StreamedBinaryWrite
2025:__ZN26AnimatorOverrideController23VirtualRedirectTransferER18StreamedBinaryRead
2026:__ZN26AnimatorOverrideController23VirtualRedirectTransferER17RemapPPtrTransfer
2027:__ZN26AnimatorOverrideController23VirtualRedirectTransferER24GenerateTypeTreeTransfer
2028:__ZN26AnimatorOverrideController23VirtualRedirectTransferER14SafeBinaryRead
2029:__ZN26AnimatorOverrideController8GetAssetEb
2030:__ZN26AnimatorOverrideController23GetAnimationSetBindingsEv
2031:__ZNK26AnimatorOverrideController17GetAnimationClipsEv
2032:__ZNK26AnimatorOverrideController12StringFromIDEj
2033:__ZNK26AnimatorOverrideController13GetBehavioursEv
2034:__ZNK26AnimatorOverrideController41GetStateMachineBehaviourVectorDescriptionEv
2035:__ZNK26AnimatorOverrideController28HasMultiThreadedStateMachineEv
2036:__ZNK26AnimatorOverrideController30GetAnimationClipOverrideVectorEv
2037:__ZNK26AnimatorOverrideController27GetAnimationClipsToRegisterEv
2038:__ZN26AnimatorOverrideController10BuildAssetEv
2039:__ZN26AnimatorOverrideController10ClearAssetEv
2040:__ZN11UnityEngine9Animation26CreateAnimationSetBindingsERK13dynamic_arrayI4PPtrI13AnimationClipELj0EER20RuntimeBaseAllocator
2041:__ZNK26AnimatorOverrideController16GetOverrideClipsEv
2042:__ZNK26AnimatorOverrideController16GetOriginalClipsEv
2043:__Z15return_overrideRK21AnimationClipOverride
2044:__ZNSt3__26__sortIRNS_6__lessI4PPtrI13AnimationClipES4_EEPS4_EEvT0_S8_T_
2045:__ZNSt3__27__sort5IRNS_6__lessI4PPtrI13AnimationClipES4_EEPS4_EEjT0_S8_S8_S8_S8_T_
2046:__ZNSt3__227__insertion_sort_incompleteIRNS_6__lessI4PPtrI13AnimationClipES4_EEPS4_EEbT0_S8_T_
2047:__Z16return_effectiveRK21AnimationClipOverride
2048:__ZN26AnimatorOverrideController8TransferI14SafeBinaryReadEEvRT_
2049:__ZN25RuntimeAnimatorController8TransferI14SafeBinaryReadEEvRT_
2050:__ZN14SafeBinaryRead21TransferSTLStyleArrayI13dynamic_arrayI21AnimationClipOverrideLj0EEEEvRT_17TransferMetaFlags
2051:__ZN21AnimationClipOverride8TransferI14SafeBinaryReadEEvRT_
2052:__ZN26AnimatorOverrideController8TransferI24GenerateTypeTreeTransferEEvRT_
2053:__ZN25RuntimeAnimatorController8TransferI24GenerateTypeTreeTransferEEvRT_
2054:__ZN21AnimationClipOverride8TransferI24GenerateTypeTreeTransferEEvRT_
2055:__ZN25RuntimeAnimatorController8TransferI18StreamedBinaryReadEEvRT_
2056:__ZN18StreamedBinaryRead21TransferSTLStyleArrayI13dynamic_arrayI21AnimationClipOverrideLj0EEEEvRT_17TransferMetaFlags
2057:__ZN26AnimatorOverrideController8TransferI19StreamedBinaryWriteEEvRT_
2058:__ZN19StreamedBinaryWrite8TransferI13dynamic_arrayI8Vector3fLj0EEEEvRT_PKc17TransferMetaFlags
2059:__ZN8Vector2f8TransferI14SafeBinaryReadEEvRT_
2060:__ZNSt3__26vectorIiNS_9allocatorIiEEE6insertENS_11__wrap_iterIPKiEERS5_
2061:__Z22GetAnimationModuleSpecv
2062:__Z18RegisterUnityClassI8AnimatorEvPKc
2063:__Z18RegisterUnityClassI26AnimatorOverrideControllerEvPKc
2064:__Z18RegisterUnityClassI25RuntimeAnimatorControllerEvPKc
2065:__ZN13ProduceHelperI25RuntimeAnimatorControllerLb1EE7ProduceE10MemLabelId18ObjectCreationMode
2066:__ZN25RuntimeAnimatorController12CleanupClassEv
2067:__ZNK17IAnimationBinding38SerializedPropertyPathToCurveAttributeER6ObjectPKc
2068:__ZNK17IAnimationBinding30CurveAttributeToSerializedPathERKN11UnityEngine9Animation10BoundCurveE
2069:__ZN13ProduceHelperI26AnimatorOverrideControllerLb0EE7ProduceE10MemLabelId18ObjectCreationMode
2070:__ZN26AnimatorOverrideController15InitializeClassEv
2071:__ZZN26AnimatorOverrideController15InitializeClassEvEN42FunctorImpl_87kDidModifyAnimatorController4CallEPviR11MessageData
2072:__ZN18BaseObjectInternal9NewObjectI26AnimatorOverrideControllerEEP6Object10MemLabelId18ObjectCreationMode
2073:__ZN25RuntimeAnimatorControllerC2E10MemLabelId18ObjectCreationMode
2074:__ZN13ProduceHelperI8AnimatorLb0EE7ProduceE10MemLabelId18ObjectCreationMode
2075:__ZN8Animator15InitializeClassEv
2076:__ZN8Animator12CleanupClassEv
2077:__ZN10HumanTrait12CleanupClassEv
2078:__ZN7mecanim9animation23CleanupMuscleClipTablesEv
2079:__ZN8Animator20RebindOnDomainReloadEv
2080:__ZZN8Animator15InitializeClassEvEN43FunctorImpl_449kDidModifyAnimatorController4CallEPviR11MessageData
2081:__ZZN8Animator15InitializeClassEvEN37FunctorImpl_450kDidModifyOverrideClip4CallEPviR11MessageData
2082:__ZZN8Animator15InitializeClassEvEN31FunctorImpl_452kDidModifyMotion4CallEPviR11MessageData
2083:__ZZN8Animator15InitializeClassEvEN31FunctorImpl_454kDidModifyAvatar4CallEPviR11MessageData
2084:__ZZN8Animator15InitializeClassEvEN31FunctorImpl_459kDidAddComponent4CallEPviR11MessageData
2085:__ZN7mecanim9animation18ControllerConstant15InitializeClassEv
2086:__ZN7mecanim9animation13LayerConstant15InitializeClassEv
2087:__ZN7mecanim9animation14AvatarConstant15InitializeClassEv
2088:__ZN7mecanim12statemachine13StateConstant15InitializeClassEv
2089:__ZN7mecanim12statemachine20StateMachineConstant15InitializeClassEv
2090:__ZN7mecanim9animation26InitializeMuscleClipTablesEv
2091:__ZN10HumanTrait15InitializeClassEv
2092:__Z27StateChangeValidateCallback18ScriptingMethodPtr17ScriptingClassPtrP6Object
2093:__Z28StateMachineValidateCallback18ScriptingMethodPtr17ScriptingClassPtrP6Object
2094:__ZN10HumanTrait21InitializeMuscleNamesEv
2095:__ZN10HumanTrait19InitializeBoneNamesEv
2096:__ZN10HumanTrait21InitializeMonoIndicesEv
2097:__ZN7mecanim5human21ComputeHierarchicMassEiPf
2098:__ZN13dynamic_arrayIN4core12basic_stringIcNS0_20StringStorageDefaultIcEEEELj0EE9push_backERKS4_
2099:__ZN7mecanim5human8BoneNameEj
2100:__ZN10HumanTrait13GetFingerNameEib
2101:__ZN7mecanim4hand10FingerNameEj
2102:__ZN7mecanim4hand12PhalangeNameEj
2103:__ZN7mecanim5human10MuscleNameEj
2104:__ZN10HumanTrait19GetFingerMuscleNameEib
2105:__ZN7mecanim4hand13FingerDoFNameEj
2106:__ZN13dynamic_arrayIN4core12basic_stringIcNS0_20StringStorageDefaultIcEEEELj0EE18resize_initializedEj12ResizePolicy
2107:__ZN7mecanim5human12BoneFromTDoFEi
2108:__ZN7mecanim9animationL25MuscleIndexIdSortFunctionENS0_13MuscleIndexIdES1_
2109:__ZNSt3__26__sortIRPFbN7mecanim9animation13MuscleIndexIdES3_EPS3_EEvT0_S8_T_
2110:__ZNSt3__27__sort3IRPFbN7mecanim9animation13MuscleIndexIdES3_EPS3_EEjT0_S8_S8_T_
2111:__ZNSt3__27__sort5IRPFbN7mecanim9animation13MuscleIndexIdES3_EPS3_EEjT0_S8_S8_S8_S8_T_
2112:__ZNSt3__227__insertion_sort_incompleteIRPFbN7mecanim9animation13MuscleIndexIdES3_EPS3_EEbT0_S8_T_
2113:__ZN26AnimatorControllerPlayable21OverrideClipPlayablesEv
2114:__ZN17AnimationPlayable28UpdateInternalStateRecursiveILi2ELb0EEEvPK35AnimationPlayableEvaluationConstant
2115:__ZN8Animator23ClearAnimatorControllerEv
2116:__ZN18BaseObjectInternal9NewObjectI8AnimatorEEP6Object10MemLabelId18ObjectCreationMode
2117:__ZN8AnimatorC2E10MemLabelId18ObjectCreationMode
2118:__ZN14AvatarPlaybackC2E10MemLabelId
2119:__ZN21AnimationHandleBinderC2Ev
2120:__Z20SetGlobalMatrixLossy15TransformAccessRKN4math7_float3ERKNS0_7_float4ERKNS0_8float3x3E
2121:__Z24CalculateGlobalRSInverse23TransformAccessReadOnly
2122:__ZNSt3__26vectorIN4core12basic_stringIcNS1_20StringStorageDefaultIcEEEE13stl_allocatorIS5_L18MemLabelIdentifier1ELi16EEE21__push_back_slow_pathIS5_EEvOT_
2123:__ZNK8Animator17HasBoundPlayablesEv
2124:__ZN8Animator22ScriptingStringToCRC32ERK11ICallString
2125:__ZN8Animator12ResetTriggerEi
2126:__ZN8Animator10SetTriggerEi
2127:__ZN8Animator23ValidateParameterStringE17GetSetValueResultRKN4core12basic_stringIcNS1_20StringStorageDefaultIcEEEE
2128:__Z24RegisterModule_Animationv
2129:__ZL26InitializeModule_Animationv
2130:__ZL23CleanupModule_Animationv
2131:__Z32SetupMonoScriptCacheForAnimationP15MonoScriptCache
2132:__ZN11Marshalling39CreateNullExceptionForUnityEngineObjectE18ScriptingObjectPtr
2133:__ZN11Marshalling16StringMarshallerD2Ev
2134:__Z41Animator_Get_Custom_PropHasBoundPlayablesP12Il2CppObject
2135:__Z32Animator_CUSTOM_SetTriggerStringP12Il2CppObjectP12Il2CppString
2136:__Z34Animator_CUSTOM_ResetTriggerStringP12Il2CppObjectP12Il2CppString
2137:__Z51Register_UnityEngine_Animator_get_hasBoundPlayablesv
2138:__Z46Register_UnityEngine_Animator_SetTriggerStringv
2139:__Z48Register_UnityEngine_Animator_ResetTriggerStringv
2140:__GLOBAL__sub_I_ARScriptingClasses_cpp
2141:__ZL60__ManagedRegistrationHelperFunction_CoordinateFramePairProxyPv
2142:__ZL50__ManagedRegistrationHelperFunction_GridIndexProxyPv
2143:__ZL65__ManagedRegistrationHelperFunction_MeshReconstructionConfigProxyPv
2144:__ZL65__ManagedRegistrationHelperFunction_MeshReconstructionServerProxyPv
2145:__ZL49__ManagedRegistrationHelperFunction_PoseDataProxyPv
2146:__ZL59__ManagedRegistrationHelperFunction_TangoInputTrackingProxyPv
2147:__ZN9Scripting11UnityEngine2XR5Tango23TangoInputTrackingProxy9InitProxyEv
2148:__ZN9Scripting11UnityEngine2XR5Tango23TangoInputTrackingProxy12CleanupProxyEv
2149:__ZN9Scripting11UnityEngine2XR5Tango13PoseDataProxy9InitProxyEv
2150:__ZN9Scripting11UnityEngine2XR5Tango13PoseDataProxy12CleanupProxyEv
2151:__ZN9Scripting11UnityEngine2XR5Tango29MeshReconstructionServerProxy9InitProxyEv
2152:__ZN9Scripting11UnityEngine2XR5Tango29MeshReconstructionServerProxy12CleanupProxyEv
2153:__ZN9Scripting11UnityEngine2XR5Tango29MeshReconstructionConfigProxy9InitProxyEv
2154:__ZN9Scripting11UnityEngine2XR5Tango29MeshReconstructionConfigProxy12CleanupProxyEv
2155:__ZN9Scripting11UnityEngine2XR5Tango14GridIndexProxy9InitProxyEv
2156:__ZN9Scripting11UnityEngine2XR5Tango14GridIndexProxy12CleanupProxyEv
2157:__ZN9Scripting11UnityEngine2XR5Tango24CoordinateFramePairProxy9InitProxyEv
2158:__ZN9Scripting11UnityEngine2XR5Tango24CoordinateFramePairProxy12CleanupProxyEv
2159:__GLOBAL__sub_I_AssetBundleScriptingClasses_cpp
2160:__GLOBAL__sub_I_Modules_AssetBundle_Public_0_cpp
2161:__GLOBAL__sub_I_Modules_AssetBundle_Public_1_cpp
2162:__ZN13RuntimeStaticI18AssetBundleManagerLb1EE16StaticInitializeEPv
2163:__ZN13RuntimeStaticI18AssetBundleManagerLb1EE13StaticDestroyEPv
2164:__ZN18AssetBundleManagerD2Ev
2165:__ZN13RuntimeStaticI18AssetBundleManagerLb1EE10InitializeEv
2166:__ZL65__ManagedRegistrationHelperFunction_AssetBundleCreateRequestProxyPv
2167:__ZL59__ManagedRegistrationHelperFunction_AssetBundleRequestProxyPv
2168:__ZN9Scripting11UnityEngine23AssetBundleRequestProxy9InitProxyEv
2169:__ZN9Scripting11UnityEngine23AssetBundleRequestProxy12CleanupProxyEv
2170:__ZN9Scripting11UnityEngine29AssetBundleCreateRequestProxy9InitProxyEv
2171:__ZN9Scripting11UnityEngine29AssetBundleCreateRequestProxy12CleanupProxyEv
2172:__ZN14SafeBinaryRead21TransferSTLStyleArrayINSt3__26vectorI14ConstantStringNS1_9allocatorIS3_EEEEEEvRT_17TransferMetaFlags
2173:__Z14resize_trimmedINSt3__26vectorI14ConstantStringNS0_9allocatorIS2_EEEEEvRT_j
2174:__ZNSt3__26vectorI14ConstantStringNS_9allocatorIS1_EEE6assignINS_11__wrap_iterIPS1_EEEENS_9enable_ifIXaasr21__is_forward_iteratorIT_EE5valuesr16is_constructibleIS1_NS_15iterator_traitsISA_E9referenceEEE5valueEvE4typeESA_SA_
2175:__ZNSt3__26vectorI14ConstantStringNS_9allocatorIS1_EEE8__appendEj
2176:__ZN15SerializeTraitsINSt3__24pairIN4core12basic_stringIcNS2_20StringStorageDefaultIcEEEE4PPtrI6ObjectEEEE8TransferI14SafeBinaryReadEEvRSA_RT_
2177:__ZN18StreamedBinaryRead21TransferSTLStyleArrayINSt3__26vectorI14ConstantStringNS1_9allocatorIS3_EEEEEEvRT_17TransferMetaFlags
2178:__ZN15SerializeTraitsINSt3__26vectorI14ConstantStringNS0_9allocatorIS2_EEEEE8TransferI19StreamedBinaryWriteEEvRS5_RT_
2179:__ZN23PreloadManagerOperation14SetFinalTimingEffff
2180:__ZN23PreloadManagerOperation19IntegrateTimeSlicedEi
2181:__ZNSt3__26__treeIiNS_4lessIiEENS_9allocatorIiEEE7destroyEPNS_11__tree_nodeIiPvEE
2182:__ZN23PreloadManagerOperation11SetPriorityEi
2183:__ZN13LoadOperation12GetDebugNameEv
2184:__ZN27TimeSliceAwakeFromLoadQueueD2Ev
2185:__ZNSt3__26__sortIRNS_6__lessIN4core12basic_stringIcNS2_20StringStorageDefaultIcEEEES6_EEPS6_EEvT0_SA_T_
2186:__ZNSt3__27__sort3IRNS_6__lessIN4core12basic_stringIcNS2_20StringStorageDefaultIcEEEES6_EEPS6_EEjT0_SA_SA_T_
2187:__ZNSt3__27__sort4IRNS_6__lessIN4core12basic_stringIcNS2_20StringStorageDefaultIcEEEES6_EEPS6_EEjT0_SA_SA_SA_T_
2188:__ZNSt3__27__sort5IRNS_6__lessIN4core12basic_stringIcNS2_20StringStorageDefaultIcEEEES6_EEPS6_EEjT0_SA_SA_SA_SA_T_
2189:__ZNSt3__218__insertion_sort_3IRNS_6__lessIN4core12basic_stringIcNS2_20StringStorageDefaultIcEEEES6_EEPS6_EEvT0_SA_T_
2190:__ZNSt3__227__insertion_sort_incompleteIRNS_6__lessIN4core12basic_stringIcNS2_20StringStorageDefaultIcEEEES6_EEPS6_EEbT0_SA_T_
2191:__Z7ToLowerIN4core12basic_stringIcNS0_20StringStorageDefaultIcEEEEET_RKS5_
2192:__Z14StartsWithPathIN4core12basic_stringIcNS0_20StringStorageDefaultIcEEEEA8_cEbRKT_RKT0_
2193:__ZN4core8hash_mapIiiNS_4hashIiEENSt3__28equal_toIiEEE6insertERKiS8_
2194:__GLOBAL__sub_I_AudioScriptingClasses_cpp
2195:___cxx_global_var_init
2196:___cxx_global_var_init_4
2197:___cxx_global_var_init_5
2198:__GLOBAL__sub_I_Modules_Audio_Public_0_cpp
2199:__GLOBAL__sub_I_Modules_Audio_Public_1_cpp
2200:__GLOBAL__sub_I_Modules_Audio_Public_3_cpp
2201:__GLOBAL__sub_I_Runtime_Video_0_cpp
2202:__ZN13RuntimeStaticINSt3__26vectorIP16BaseVideoTexture13stl_allocatorIS3_L18MemLabelIdentifier20ELi16EEEELb0EE16StaticInitializeEPv
2203:__ZN13RuntimeStaticINSt3__26vectorIP16BaseVideoTexture13stl_allocatorIS3_L18MemLabelIdentifier20ELi16EEEELb0EE13StaticDestroyEPv
2204:__ZN13RuntimeStaticINSt3__26vectorI12WebCamDeviceNS0_9allocatorIS2_EEEELb0EE16StaticInitializeEPv
2205:__ZN13RuntimeStaticINSt3__26vectorI12WebCamDeviceNS0_9allocatorIS2_EEEELb0EE13StaticDestroyEPv
2206:__ZN13RuntimeStaticINSt3__26vectorI12WebCamDeviceNS0_9allocatorIS2_EEEELb0EE10InitializeEv
2207:__ZN13RuntimeStaticINSt3__26vectorIP16BaseVideoTexture13stl_allocatorIS3_L18MemLabelIdentifier20ELi16EEEELb0EE10InitializeEv
2208:__ZL37StaticInitializeAudioCustomFilterRootPv
2209:__ZL34StaticDestroyAudioCustomFilterRootPv
2210:__ZN13RuntimeStaticINSt3__23mapIjP19AudioSampleProviderNS0_4lessIjEE13stl_allocatorINS0_4pairIKjS3_EEL18MemLabelIdentifier27ELi16EEEELb0EE13StaticDestroyEPv
2211:__ZL37StaticInitializeAudioSourceFilterRootPv
2212:__ZL34StaticDestroyAudioSourceFilterRootPv
2213:__ZNSt3__26__treeINS_12__value_typeIjP19AudioSampleProviderEENS_19__map_value_compareIjS4_NS_4lessIjEELb1EEE13stl_allocatorIS4_L18MemLabelIdentifier27ELi16EEE7destroyEPNS_11__tree_nodeIS4_PvEE
2214:__ZN20DiagnosticSwitchEnumI23FMODDebugDisplayOptionsE18SetValueFromStringEPKc
2215:__ZN20DiagnosticSwitchEnumI23FMODDebugDisplayOptionsE20ApplyPersistentValueEv
2216:__ZN20DiagnosticSwitchEnumI23FMODDebugDisplayOptionsE20CollectScriptingInfoERN20DiagnosticSwitchBase13ScriptingInfoE
2217:__ZN20DiagnosticSwitchEnumI23FMODDebugDisplayOptionsE24UpdateFromScriptingValueE18ScriptingObjectPtrb
2218:__ZN10EnumTraits8ToStringI23FMODDebugDisplayOptionsEEN4core12basic_stringIcNS2_20StringStorageDefaultIcEEEET_
2219:__ZN4core20StringStorageDefaultIcE7replaceEjjPKcj
2220:__ZN10EnumTraits13TryFromStringI23FMODDebugDisplayOptionsEEbPKcbRT_
2221:__ZN20DiagnosticSwitchEnumI14FMODDebugTypesE18SetValueFromStringEPKc
2222:__ZN20DiagnosticSwitchEnumI14FMODDebugTypesE20ApplyPersistentValueEv
2223:__ZN20DiagnosticSwitchEnumI14FMODDebugTypesE20CollectScriptingInfoERN20DiagnosticSwitchBase13ScriptingInfoE
2224:__ZN20DiagnosticSwitchEnumI14FMODDebugTypesE24UpdateFromScriptingValueE18ScriptingObjectPtrb
2225:__ZN10EnumTraits8ToStringI14FMODDebugTypesEEN4core12basic_stringIcNS2_20StringStorageDefaultIcEEEET_
2226:__ZN10EnumTraits13TryFromStringI14FMODDebugTypesEEbPKcbRT_
2227:__ZN13RuntimeStaticINSt3__23setIP26AudioSampleProviderChannelNS0_4lessIS3_EE13stl_allocatorIS3_L18MemLabelIdentifier27ELi16EEEELb0EE16StaticInitializeEPv
2228:__ZN13RuntimeStaticINSt3__23setIP26AudioSampleProviderChannelNS0_4lessIS3_EE13stl_allocatorIS3_L18MemLabelIdentifier27ELi16EEEELb0EE13StaticDestroyEPv
2229:__ZNSt3__26__treeIP26AudioSampleProviderChannelNS_4lessIS2_EE13stl_allocatorIS2_L18MemLabelIdentifier27ELi16EEE7destroyEPNS_11__tree_nodeIS2_PvEE
2230:__ZN13RuntimeStaticINSt3__23setIP26AudioSampleProviderChannelNS0_4lessIS3_EE13stl_allocatorIS3_L18MemLabelIdentifier27ELi16EEEELb0EE10InitializeEv
2231:__ZL58__ManagedRegistrationHelperFunction_AudioClipPlayableProxyPv
2232:__ZL59__ManagedRegistrationHelperFunction_AudioMixerPlayableProxyPv
2233:__ZL60__ManagedRegistrationHelperFunction_AudioPlayableOutputProxyPv
2234:__ZL50__ManagedRegistrationHelperFunction_AudioClipProxyPv
2235:__ZL54__ManagedRegistrationHelperFunction_AudioSettingsProxyPv
2236:__ZL60__ManagedRegistrationHelperFunction_AudioSampleProviderProxyPv
2237:__ZL53__ManagedRegistrationHelperFunction_WebCamDeviceProxyPv
2238:__ZN9Scripting11UnityEngine17WebCamDeviceProxy9InitProxyEv
2239:__ZN9Scripting11UnityEngine17WebCamDeviceProxy12CleanupProxyEv
2240:__ZN9Scripting11UnityEngine12Experimental5Audio24AudioSampleProviderProxy9InitProxyEv
2241:__ZN9Scripting11UnityEngine12Experimental5Audio24AudioSampleProviderProxy12CleanupProxyEv
2242:__ZN9Scripting11UnityEngine18AudioSettingsProxy9InitProxyEv
2243:__ZN9Scripting11UnityEngine18AudioSettingsProxy12CleanupProxyEv
2244:__ZN9Scripting11UnityEngine14AudioClipProxy9InitProxyEv
2245:__ZN9Scripting11UnityEngine14AudioClipProxy12CleanupProxyEv
2246:__ZN9Scripting11UnityEngine5Audio24AudioPlayableOutputProxy9InitProxyEv
2247:__ZN9Scripting11UnityEngine5Audio24AudioPlayableOutputProxy12CleanupProxyEv
2248:__ZN9Scripting11UnityEngine5Audio23AudioMixerPlayableProxy9InitProxyEv
2249:__ZN9Scripting11UnityEngine5Audio23AudioMixerPlayableProxy12CleanupProxyEv
2250:__ZN9Scripting11UnityEngine5Audio22AudioClipPlayableProxy9InitProxyEv
2251:__ZN9Scripting11UnityEngine5Audio22AudioClipPlayableProxy12CleanupProxyEv
2252:__ZN4FMOD3DSP9setBypassEb
2253:__ZN11AudioFilter4InitEv
2254:__ZN4FMOD6System15createDSPByTypeE13FMOD_DSP_TYPEPPNS_3DSPE
2255:__ZN10ObjectPoolIN4FMOD3DSPENS0_4DSPIEE7GetFreeEi
2256:__ZN4FMOD3DSP12setParameterEif
2257:__ZN4FMOD3DSP7releaseEv
2258:__ZN15AudioMixerGroupD2Ev
2259:__ZN15AudioMixerGroupD0Ev
2260:__ZN15AudioMixerGroup13AwakeFromLoadE17AwakeFromLoadMode
2261:__ZNK15AudioMixerGroup22GetTypeVirtualInternalEv
2262:__ZN15AudioMixerGroup23VirtualRedirectTransferER19StreamedBinaryWrite
2263:__ZN15AudioMixerGroup23VirtualRedirectTransferER18StreamedBinaryRead
2264:__ZN15AudioMixerGroup23VirtualRedirectTransferER17RemapPPtrTransfer
2265:__ZN15AudioMixerGroup23VirtualRedirectTransferER24GenerateTypeTreeTransfer
2266:__ZN15AudioMixerGroup23VirtualRedirectTransferER14SafeBinaryRead
2267:__ZN15AudioMixerGroup8TransferI14SafeBinaryReadEEvRT_
2268:__ZN15SerializeTraitsI9UnityGUIDE8TransferI14SafeBinaryReadEEvRS0_RT_
2269:__ZN14SafeBinaryRead21TransferSTLStyleArrayI13dynamic_arrayI4PPtrI15AudioMixerGroupELj0EEEEvRT_17TransferMetaFlags
2270:__ZN15AudioMixerGroup8TransferI24GenerateTypeTreeTransferEEvRT_
2271:__ZN9UnityGUID8TransferI24GenerateTypeTreeTransferEEvRT_
2272:__ZN9UnityGUID8TransferI18StreamedBinaryReadEEvRT_
2273:__ZN15AudioMixerGroup8TransferI19StreamedBinaryWriteEEvRT_
2274:__ZN9UnityGUID8TransferI19StreamedBinaryWriteEEvRT_
2275:__ZN4FMOD6Reverb9setActiveEb
2276:__Z15GetAudioManagerv
2277:__ZN15AudioReverbZone4InitEv
2278:__ZN4FMOD6System12createReverbEPPNS_6ReverbE
2279:__ZL16FMOD_ErrorString11FMOD_RESULT
2280:__ZN12AudioManager21FixMasterGroupRoutingEv
2281:__ZN15AudioReverbZone13SetFMODValuesEv
2282:__ZN4FMOD6System6updateEv
2283:__ZN4FMOD6Reverb15set3DAttributesEPK11FMOD_VECTORff
2284:__ZN4FMOD6Reverb13setPropertiesEPK22FMOD_REVERB_PROPERTIES
2285:__ZN4FMOD12ChannelGroup10getDSPHeadEPPNS_3DSPE
2286:__ZN4FMOD3DSP9getOutputEiPPS0_PPNS_13DSPConnectionE
2287:__ZN4FMOD3DSP8getInputEiPPS0_PPNS_13DSPConnectionE
2288:__ZN4FMOD3DSP12getNumInputsEPi
2289:__ZN4FMOD3DSP7getInfoEPcPjPiS3_S3_
2290:__ZN4FMOD3DSP13disconnectAllEbb
2291:__ZN4FMOD3DSP8addInputEPS0_PPNS_13DSPConnectionE
2292:__ZN4FMOD6Reverb7releaseEv
2293:__ZN12AudioManagerD2Ev
2294:__ZN12AudioManagerD0Ev
2295:__ZN12AudioManager17MainThreadCleanupEv
2296:__ZN12AudioManager13AwakeFromLoadE17AwakeFromLoadMode
2297:__ZN12AudioManager16CheckConsistencyEv
2298:__ZN12AudioManager5ResetEv
2299:__ZNK12AudioManager22GetTypeVirtualInternalEv
2300:__ZN12AudioManager23VirtualRedirectTransferER19StreamedBinaryWrite
2301:__ZN12AudioManager23VirtualRedirectTransferER18StreamedBinaryRead
2302:__ZN12AudioManager23VirtualRedirectTransferER24GenerateTypeTreeTransfer
2303:__ZN12AudioManager23VirtualRedirectTransferER14SafeBinaryRead
2304:__ZN12AudioManager8TransferI14SafeBinaryReadEEvRT_
2305:__ZN12AudioManager8TransferI24GenerateTypeTreeTransferEEvRT_
2306:__ZN12AudioManager8TransferI18StreamedBinaryReadEEvRT_
2307:__ZN12AudioManager8TransferI19StreamedBinaryWriteEEvRT_
2308:__ZN12AudioManager8InitFMODE15FMOD_OUTPUTTYPE
2309:__ZN12AudioManager29ShutdownReinitializeAndReloadE15FMOD_OUTPUTTYPEPS0_
2310:__ZN4FMOD12ChannelGroup9setVolumeEf
2311:__ZN4FMOD6System13set3DSettingsEfff
2312:__ZN4FMOD6System9getOutputEP15FMOD_OUTPUTTYPE
2313:__ZN12AudioManager9CloseFMODEv
2314:__ZN9AudioClip6ReloadEv
2315:__ZN13AudioListener12ApplyFiltersEv
2316:__ZN12AudioManager39HandlePendingAudioConfigurationCallbackEv
2317:__Z24GetAudioScriptingClassesv
2318:__ZL31InitializeAudioScriptingClassesv
2319:__ZL28CleanupAudioScriptingClassesv
2320:__ZN11AudioFilter6GetDSPEv
2321:__ZN4FMOD3DSP6removeEv
2322:__Z15_CheckFMODError11FMOD_RESULTPKciS1_
2323:__ZN4FMOD12ChannelGroup6addDSPEPNS_3DSPEPPNS_13DSPConnectionE
2324:__ZN4FMOD3DSP9getBypassEPb
2325:__ZN11AudioSource7CleanupEv
2326:__ZN13AudioListener7CleanupEv
2327:__ZN15AudioReverbZone7CleanupEv
2328:__ZN26AudioSampleProviderChannel7CleanupEv
2329:__ZN10AudioMixer33EnsureMixerGroupSinksAreDestroyedEv
2330:__ZN5audio5mixer23DestroyAudioMixerMemoryEPNS0_16AudioMixerMemoryERKNS0_18AudioMixerConstantEPN4FMOD6SystemER20RuntimeBaseAllocator
2331:__ZN4FMOD12ChannelGroup7releaseEv
2332:__ZN9AudioClip7CleanupEv
2333:__ZN4FMOD6System5closeEv
2334:__ZN12SoundManagerD2Ev
2335:__ZN12SoundManager20OnExitPlayModeStaticEv
2336:__ZN12SoundManager26OnBeforeDomainUnloadStaticEv
2337:__ZN12SoundManager6UpdateEv
2338:__ZN11SoundHandle8InstanceD2Ev
2339:__ZN20SoundChannelInstance4StopEv
2340:__ZN4FMOD5Sound7releaseEv
2341:__ZN4FMOD6SoundI7releaseEv
2342:__ZN4FMOD8ChannelI11EndCallbackEv
2343:__ZN4FMOD7Channel4stopEv
2344:__ZN4FMOD7Channel11setPositionEjj
2345:__ZN11SoundHandle8Instance15UpdateLoadStateEv
2346:__ZN4FMOD6System9playSoundE17FMOD_CHANNELINDEXPNS_5SoundEbPPNS_7ChannelE
2347:__ZN20SoundChannelInstance14SetFMODChannelEPN4FMOD7ChannelE
2348:__ZN20SoundChannelInstance15ParameterBuffer5ApplyEPN4FMOD7ChannelE
2349:__ZN20SoundChannelInstance12UpdateVolumeEv
2350:__ZN20SoundChannelInstance11UpdatePitchEv
2351:__ZN20SoundChannelInstance16UpdatePauseStateEv
2352:__ZN12AudioManager15GetSoundManagerEv
2353:f64-to-uint64
2354:__ZN4FMOD7Channel9setPausedEb
2355:f32-to-int64
2356:__ZN4FMOD7Channel12setFrequencyEf
2357:__ZN4FMOD7Channel9setVolumeEf
2358:__ZN4FMOD8ChannelI9setVolumeEf
2359:__ZN4FMOD7Channel7setMuteEb
2360:__ZN4FMOD7Channel11setCallbackEPF11FMOD_RESULTP12FMOD_CHANNEL25FMOD_CHANNEL_CALLBACKTYPEPvS5_E
2361:__ZN4FMOD7Channel7setModeEj
2362:__ZN4FMOD7Channel15setChannelGroupEPNS_12ChannelGroupE
2363:__ZN4FMOD7Channel11setPriorityEi
2364:__ZN4FMOD7Channel19setReverbPropertiesEPK29FMOD_REVERB_CHANNELPROPERTIES
2365:__ZN4FMOD7Channel8setDelayE14FMOD_DELAYTYPEjj
2366:__ZN4FMOD7Channel6setPanEf
2367:__ZN4FMOD7Channel15set3DAttributesEPK11FMOD_VECTORS3_
2368:__ZN4FMOD7Channel20set3DConeOrientationEP11FMOD_VECTOR
2369:__ZN4FMOD7Channel17set3DConeSettingsEfff
2370:__ZN4FMOD7Channel19set3DMinMaxDistanceEff
2371:__ZN4FMOD7Channel13set3DPanLevelEf
2372:__ZN4FMOD7Channel11set3DSpreadEf
2373:__ZN4FMOD8ChannelI15set3DAttributesEPK11FMOD_VECTORS3_
2374:__ZN4FMOD8ChannelI18UpdateDopplerPitchEv
2375:__ZN4FMOD8ChannelI8setDelayE14FMOD_DELAYTYPEjj
2376:__ZN4FMOD7Channel6addDSPEPNS_3DSPEPPNS_13DSPConnectionE
2377:__ZN4FMOD7Channel11setUserDataEPv
2378:__ZN20SoundChannelInstance19FMODChannelCallbackEP12FMOD_CHANNEL25FMOD_CHANNEL_CALLBACKTYPEPvS3_
2379:__ZN4FMOD7Channel12getFrequencyEPf
2380:__ZN4FMOD7Channel11getUserDataEPPv
2381:__ZN4FMOD7SystemI9playSoundE17FMOD_CHANNELINDEXPNS_5SoundEbPPNS_7ChannelE
2382:__ZN10ObjectPoolIN4FMOD7ChannelENS0_8ChannelIEE7GetFreeEi
2383:__ZN4FMOD22FakeModChannelCallbackEPv
2384:__ZN4FMOD5Sound12getOpenStateEP14FMOD_OPENSTATEPjPbS4_
2385:__ZN4FMOD5Sound15getNumSubSoundsEPi
2386:__ZN4FMOD5Sound11getSubSoundEiPPS0_
2387:__ZN4FMOD5Sound11setUserDataEPv
2388:__ZN4FMOD8ChannelI11setPositionEjj
2389:__ZN10SampleClip15UnloadAudioDataEv
2390:__ZNK14SoundHandleAPI12GetLoadStateEv
2391:__Z15GetSoundManagerv
2392:__ZN12SoundManager10UnloadClipEP10SampleClip
2393:__ZN12SoundManager20RegisterModifiedClipEP10SampleClip
2394:__ZNK10SampleClip11GetResourceEv
2395:__ZN11SoundHandle8Instance7DisposeEv
2396:__ZN11SoundHandleD2Ev
2397:__ZN11SoundHandle7ReleaseEv
2398:__ZN11SoundHandleaSERKS_
2399:__ZN11AudioFilter7CleanupEv
2400:__ZN17AudioCustomFilter7CleanupEv
2401:__ZN11AudioSource4StopEb
2402:__ZN4FMOD3DSP11getUserDataEPPv
2403:__ZN11AudioSource16CleanAudioSourceEb
2404:__ZNK11AudioSource19GetFilterComponentsERNSt3__26vectorIPN4FMOD3DSPENS0_9allocatorIS4_EEEEb
2405:__ZNSt3__26vectorIPN4FMOD3DSPENS_9allocatorIS3_EEE21__push_back_slow_pathIRKS3_EEvOT_
2406:__ZN13dynamic_arrayI12SoundChannelLj0EE5clearEv
2407:__ZN11AudioSource26MuteActiveProviderChannelsEv
2408:__ZN20SoundChannelInstance7setMuteEb
2409:_FMOD_Memory_Initialize
2410:_FMOD_System_Create
2411:__ZNK12AudioManager18ValidateFMODResultE11FMOD_RESULTiPKcS2_
2412:__Z14FMOD_FILE_OpenPKciPjPPvS3_
2413:__Z15FMOD_FILE_ClosePvS_
2414:__Z14FMOD_FILE_ReadPvS_jPjS_
2415:__Z14FMOD_FILE_SeekPvjS_
2416:__ZN4FMOD6System13setFileSystemEPF11FMOD_RESULTPKciPjPPvS6_EPFS1_S5_S5_EPFS1_S5_S5_jS4_S5_EPFS1_S5_jS5_EPFS1_P18FMOD_ASYNCREADINFOS5_ESA_i
2417:__ZN4FMOD6System10getVersionEPj
2418:__ZN4FMOD6System19setStreamBufferSizeEjj
2419:__ZN12AudioManager14systemCallbackEP11FMOD_SYSTEM24FMOD_SYSTEM_CALLBACKTYPEPvS3_
2420:__ZN4FMOD6System11setCallbackEPF11FMOD_RESULTP11FMOD_SYSTEM24FMOD_SYSTEM_CALLBACKTYPEPvS5_E
2421:__ZN11AudioSource15rolloffCallbackEP12FMOD_CHANNELf
2422:__ZN4FMOD6System20set3DRolloffCallbackEPFfP12FMOD_CHANNELfE
2423:__ZN12AudioManager10InitNormalEb15FMOD_OUTPUTTYPE
2424:__ZN4FMOD6System7releaseEv
2425:__ZN4FMOD6System21getMasterChannelGroupEPPNS_12ChannelGroupE
2426:__ZN4FMOD6System17getSoftwareFormatEPiP17FMOD_SOUND_FORMATS1_S1_P18FMOD_DSP_RESAMPLERS1_
2427:__ZN4FMOD6System16getDSPBufferSizeEPjPi
2428:__ZN4FMOD6System11getDSPClockEPjS1_
2429:__Z29AudioMasterDSPProcessCallbackP21UnityAudioEffectStatePfS1_jii
2430:__ZN29AudioEffectInternalDefinition9CreateDSPEPN4FMOD6SystemEPvPfP23UnityAudioAmbisonicDataPP25UnityAudioSpatializerData
2431:__ZN4FMOD6System18createChannelGroupEPKcPPNS_12ChannelGroupE
2432:__ZN4FMOD12ChannelGroup8addGroupEPS0_
2433:__ZN29AudioEffectInternalDefinitionD2Ev
2434:__ZN12SoundManagerC2Ev
2435:__ZN10ObjectPoolIN4FMOD12ChannelGroupENS0_13ChannelGroupIEE7GetFreeEi
2436:__ZN4FMOD6System9createDSPEP20FMOD_DSP_DESCRIPTIONPPNS_3DSPE
2437:__ZN29AudioEffectInternalDefinitionC2EP26UnityAudioEffectDefinitionb
2438:__ZN30AudioEffectInternalDescriptionC2EP26UnityAudioEffectDefinition
2439:__ZL39UnityAudioEffect_InternalCreateCallbackP14FMOD_DSP_STATE
2440:__ZL40UnityAudioEffect_InternalReleaseCallbackP14FMOD_DSP_STATE
2441:__ZL38UnityAudioEffect_InternalResetCallbackP14FMOD_DSP_STATE
2442:__ZL37UnityAudioEffect_InternalReadCallbackP14FMOD_DSP_STATEPfS1_jii
2443:__ZL44UnityAudioEffect_InternalSetPositionCallbackP14FMOD_DSP_STATEj
2444:__ZL50UnityAudioEffect_InternalSetFloatParameterCallbackP14FMOD_DSP_STATEif
2445:__ZL50UnityAudioEffect_InternalGetFloatParameterCallbackP14FMOD_DSP_STATEiPfPc
2446:__ZN4FMOD3DSP11setUserDataEPv
2447:__ZN4FMOD6System9setOutputE15FMOD_OUTPUTTYPE
2448:__ZN4FMOD6System13getNumDriversEPi
2449:__ZN4FMOD6System9getDriverEPi
2450:__ZN4FMOD6System13getDriverCapsEiPjPiP16FMOD_SPEAKERMODE
2451:__ZN4FMOD6System14setSpeakerModeE16FMOD_SPEAKERMODE
2452:__ZN4FMOD6System16setDSPBufferSizeEji
2453:__ZN4FMOD6System17setSoftwareFormatEi17FMOD_SOUND_FORMATii18FMOD_DSP_RESAMPLER
2454:__ZN4FMOD6System19setSoftwareChannelsEi
2455:__ZN4FMOD6System19setAdvancedSettingsEP21FMOD_ADVANCEDSETTINGS
2456:__ZN4FMOD6System4initEijPv
2457:__ZN10ObjectPoolIN4FMOD7ChannelENS0_8ChannelIEE7SetSizeEi
2458:__ZN12AudioManager21SetActiveOutputDriverEP9FMOD_GUID
2459:__ZN12SoundManager26OnCreateSoundPopAllocationEv
2460:__ZN12SoundManager27OnCreateSoundPushAllocationEPv
2461:__ZN4FMOD6System9setDriverEi
2462:__ZN4FMOD6System13getDriverInfoEiPciP9FMOD_GUID
2463:__ZN4FMOD7SystemIC2Ei
2464:__ZN10ObjectPoolIN4FMOD12ChannelGroupENS0_13ChannelGroupIEE7SetSizeEi
2465:__ZN10ObjectPoolIN4FMOD5SoundENS0_6SoundIEE7SetSizeEi
2466:__ZN10ObjectPoolIN4FMOD3DSPENS0_4DSPIEE7SetSizeEi
2467:__ZN12AudioManager27InitialCompleteDomainReloadEv
2468:__ZN24AudioScriptBufferManager27InitialCompleteDomainReloadEv
2469:__ZN24AudioScriptBufferManager4InitEv
2470:__ZN24AudioScriptBufferManagerC2Ev
2471:__ZN10AudioMixerD2Ev
2472:__ZN10AudioMixerD0Ev
2473:__ZN10AudioMixer17MainThreadCleanupEv
2474:__ZN10AudioMixer13AwakeFromLoadE17AwakeFromLoadMode
2475:__ZN10AudioMixer16CheckConsistencyEv
2476:__ZN10AudioMixer5ResetEv
2477:__ZNK10AudioMixer22GetTypeVirtualInternalEv
2478:__ZN10AudioMixer23VirtualRedirectTransferER19StreamedBinaryWrite
2479:__ZN10AudioMixer23VirtualRedirectTransferER18StreamedBinaryRead
2480:__ZN10AudioMixer23VirtualRedirectTransferER17RemapPPtrTransfer
2481:__ZN10AudioMixer23VirtualRedirectTransferER24GenerateTypeTreeTransfer
2482:__ZN10AudioMixer23VirtualRedirectTransferER14SafeBinaryRead
2483:__ZN10AudioMixer8SetFloatEPKcf
2484:__ZN10AudioMixer10ClearFloatEPKc
2485:__ZN10AudioMixer23GetInitialSnapshotIndexEv
2486:__ZN10AudioMixer23OnEnterPlayModePreStartEv
2487:__ZN10AudioMixer14OnExitPlayModeEv
2488:__ZN5audio5mixer27ClearExposedParameterValuesERKNS0_18AudioMixerConstantERKNS0_16AudioMixerMemoryE
2489:__ZN10AudioMixer18SetCurrentSnapshotERK4PPtrI18AudioMixerSnapshotE
2490:__ZN10AudioMixer6UpdateEf
2491:__ZN10AudioMixer18EnsureValidRuntimeEv
2492:__ZN5audio5mixer22UpdateAudioMixerMemoryERKNS0_18AudioMixerConstantERNS0_16AudioMixerMemoryEfPN4FMOD6SystemEf
2493:__ZN4FMOD12ChannelGroup19setAudibilityFactorEf
2494:__ZN4FMOD12ChannelGroup8setPitchEf
2495:__ZN4FMOD13DSPConnection6setMixEf
2496:__ZN5audio5mixerL19IsAnyChannelPlayingEPN4FMOD12ChannelGroupE
2497:__ZN5audio5mixer12SetSuspendedERNS0_16AudioMixerMemoryEb
2498:__ZN4FMOD3DSP9getActiveEPb
2499:__ZN4FMOD3DSP15getSystemObjectEPPNS_6SystemE
2500:__ZN4FMOD3DSP9setActiveEb
2501:__ZN4FMOD12ChannelGroup14getNumChannelsEPi
2502:__ZN4FMOD12ChannelGroup10getChannelEiPPNS_7ChannelE
2503:__ZN4FMOD7Channel9isPlayingEPb
2504:__ZN4FMOD12ChannelGroup12getNumGroupsEPi
2505:__ZN4FMOD12ChannelGroup8getGroupEiPPS0_
2506:__ZN5audio5mixer22CreateAudioMixerMemoryERKNS0_18AudioMixerConstantEPN4FMOD6SystemER20RuntimeBaseAllocatorib
2507:__ZN10AudioMixer31EnsureMixerGroupSinksAreCreatedEv
2508:__ZN10AudioMixer14UpdateMuteSoloEv
2509:__ZN5audio5mixer12UpdateBypassERNS0_18AudioMixerConstantERNS0_16AudioMixerMemoryE
2510:__ZN5audio5mixer21SetResultingMuteStateERKNS0_18AudioMixerConstantERKNS0_16AudioMixerMemoryEib
2511:__ZN10AudioMixer11SetupGroupsEv
2512:__ZN12AudioManager37RebindAudioSourcesAndSubMixersToMixerEP10AudioMixer
2513:__ZN11AudioSource19ConfigureFMODGroupsEv
2514:__ZN10AudioMixer12RebindOutputEv
2515:__ZN5audio5mixer16FindChannelGroupERKNS0_18AudioMixerConstantERKNS0_16AudioMixerMemoryERK9UnityGUID
2516:__ZN5audio5mixer17AssignOutputGroupERKNS0_18AudioMixerConstantERKNS0_16AudioMixerMemoryEPN4FMOD12ChannelGroupE
2517:__ZN4FMOD12ChannelGroup14getParentGroupEPPS0_
2518:__ZN11AudioSource12ApplyFiltersEv
2519:__ZN11AudioSource20SetEffectActiveStateEb
2520:__ZN10AudioMixer14MixerGroupSink15ProcessCallbackEP21UnityAudioEffectStatePfS3_jii
2521:__ZN4FMOD12ChannelGroup7setMuteEb
2522:__Z32AudioMeasurement_GetTimeConstantff
2523:__Z25GetAudioEffectDefinitionsPi
2524:__Z29AudioMixerSendProcessCallbackP21UnityAudioEffectStatePfS1_jii
2525:__Z32AudioMixerReceiveProcessCallbackP21UnityAudioEffectStatePfS1_jii
2526:__Z31AudioMixerDuckingCreateCallbackP21UnityAudioEffectState
2527:__Z32AudioMixerDuckingDestroyCallbackP21UnityAudioEffectState
2528:__Z37AudioMixerDuckingSetParameterCallbackP21UnityAudioEffectStateif
2529:__Z39AudioMixerDuckingGetFloatBufferCallbackP21UnityAudioEffectStatePKcPfi
2530:__Z32AudioMixerDuckingProcessCallbackP21UnityAudioEffectStatePfS1_jii
2531:__Z30AudioMixerFaderProcessCallbackP21UnityAudioEffectStatePfS1_jii
2532:__ZN12AudioManager33GetAudioEffectInternalDefinitionsEv
2533:__ZN10AudioMixer16GetSnapshotIndexERK18AudioMixerSnapshot
2534:__ZN5audio5mixer20TransitionToSnapshotERNS0_16AudioMixerMemoryEif
2535:__ZN5audio5mixer16GetSnapshotIndexERNS0_18AudioMixerConstantEPKc
2536:__ZN5audio5mixer23GetExposedPropertyIndexERKNS0_18AudioMixerConstantEPKc
2537:__ZN5audio5mixer20ClearExposedPropertyERKNS0_16AudioMixerMemoryEi
2538:__ZN5audio5mixer18SetExposedPropertyERKNS0_16AudioMixerMemoryEif
2539:__ZN10AudioMixer8TransferI14SafeBinaryReadEEvRT_
2540:__ZN14SafeBinaryRead21TransferSTLStyleArrayI13dynamic_arrayI4PPtrI18AudioMixerSnapshotELj0EEEEvRT_17TransferMetaFlags
2541:__ZN5audio5mixer18AudioMixerConstant8TransferI14SafeBinaryReadEEvRT_
2542:__ZN14SafeBinaryRead21TransferSTLStyleArrayI22OffsetPtrArrayTransferIN5audio5mixer13GroupConstantEEEEvRT_17TransferMetaFlags
2543:__ZN14SafeBinaryRead21TransferSTLStyleArrayI22OffsetPtrArrayTransferI9UnityGUIDEEEvRT_17TransferMetaFlags
2544:__ZN14SafeBinaryRead21TransferSTLStyleArrayI22OffsetPtrArrayTransferIN5audio5mixer14EffectConstantEEEEvRT_17TransferMetaFlags
2545:__ZN14SafeBinaryRead21TransferSTLStyleArrayI22OffsetPtrArrayTransferIN5audio5mixer16SnapshotConstantEEEEvRT_17TransferMetaFlags
2546:__ZN14SafeBinaryRead21TransferSTLStyleArrayI22OffsetPtrArrayTransferIcEEEvRT_17TransferMetaFlags
2547:__ZN5audio5mixer16SnapshotConstant8TransferI14SafeBinaryReadEEvRT_
2548:__ZN5audio5mixer14EffectConstant8TransferI14SafeBinaryReadEEvRT_
2549:__ZN5audio5mixer13GroupConstant8TransferI14SafeBinaryReadEEvRT_
2550:__ZN10AudioMixer8TransferI24GenerateTypeTreeTransferEEvRT_
2551:__ZN5audio5mixer18AudioMixerConstant8TransferI24GenerateTypeTreeTransferEEvRT_
2552:__ZN5audio5mixer13GroupConstant8TransferI24GenerateTypeTreeTransferEEvRT_
2553:__ZN5audio5mixer14EffectConstant8TransferI24GenerateTypeTreeTransferEEvRT_
2554:__ZN24GenerateTypeTreeTransfer8TransferIN5audio5mixer16SnapshotConstantEEEvRT_PKc17TransferMetaFlags
2555:__ZN10AudioMixer8TransferI17RemapPPtrTransferEEvRT_
2556:__ZN10AudioMixer8TransferI18StreamedBinaryReadEEvRT_
2557:__ZN5audio5mixer18AudioMixerConstant8TransferI18StreamedBinaryReadEEvRT_
2558:__ZN18StreamedBinaryRead21TransferSTLStyleArrayI22OffsetPtrArrayTransferIN5audio5mixer13GroupConstantEEEEvRT_17TransferMetaFlags
2559:__ZN18StreamedBinaryRead21TransferSTLStyleArrayI22OffsetPtrArrayTransferIN5audio5mixer14EffectConstantEEEEvRT_17TransferMetaFlags
2560:__ZN18StreamedBinaryRead21TransferSTLStyleArrayI22OffsetPtrArrayTransferIN5audio5mixer16SnapshotConstantEEEEvRT_17TransferMetaFlags
2561:__ZN5audio5mixer14EffectConstant8TransferI18StreamedBinaryReadEEvRT_
2562:__ZN5audio5mixer13GroupConstant8TransferI18StreamedBinaryReadEEvRT_
2563:__ZN10AudioMixer8TransferI19StreamedBinaryWriteEEvRT_
2564:__ZN5audio5mixer18AudioMixerConstant8TransferI19StreamedBinaryWriteEEvRT_
2565:__ZN5audio5mixer13GroupConstant8TransferI19StreamedBinaryWriteEEvRT_
2566:__ZN5audio5mixer14EffectConstant8TransferI19StreamedBinaryWriteEEvRT_
2567:__ZN5audio5mixer16SnapshotConstant8TransferI19StreamedBinaryWriteEEvRT_
2568:__ZN10AudioMixer7CleanupEv
2569:__ZN5audio5mixer25DestroyAudioMixerConstantEPNS0_18AudioMixerConstantER20RuntimeBaseAllocator
2570:__ZN18AudioMixerSnapshotD2Ev
2571:__ZN18AudioMixerSnapshotD0Ev
2572:__ZN18AudioMixerSnapshot13AwakeFromLoadE17AwakeFromLoadMode
2573:__ZNK18AudioMixerSnapshot22GetTypeVirtualInternalEv
2574:__ZN18AudioMixerSnapshot23VirtualRedirectTransferER19StreamedBinaryWrite
2575:__ZN18AudioMixerSnapshot23VirtualRedirectTransferER18StreamedBinaryRead
2576:__ZN18AudioMixerSnapshot23VirtualRedirectTransferER17RemapPPtrTransfer
2577:__ZN18AudioMixerSnapshot23VirtualRedirectTransferER24GenerateTypeTreeTransfer
2578:__ZN18AudioMixerSnapshot23VirtualRedirectTransferER14SafeBinaryRead
2579:__ZN18AudioMixerSnapshot8TransferI14SafeBinaryReadEEvRT_
2580:__ZN18AudioMixerSnapshot8TransferI24GenerateTypeTreeTransferEEvRT_
2581:__ZN11AudioSourceD2Ev
2582:__ZN11AudioSourceD0Ev
2583:__ZN11AudioSource17MainThreadCleanupEv
2584:__ZN11AudioSource13AwakeFromLoadE17AwakeFromLoadMode
2585:__ZN11AudioSource16CheckConsistencyEv
2586:__ZN11AudioSource5ResetEv
2587:__ZNK11AudioSource22GetTypeVirtualInternalEv
2588:__ZN11AudioSource23VirtualRedirectTransferER19StreamedBinaryWrite
2589:__ZN11AudioSource23VirtualRedirectTransferER18StreamedBinaryRead
2590:__ZN11AudioSource23VirtualRedirectTransferER17RemapPPtrTransfer
2591:__ZN11AudioSource23VirtualRedirectTransferER24GenerateTypeTreeTransfer
2592:__ZN11AudioSource23VirtualRedirectTransferER14SafeBinaryRead
2593:__ZN11AudioSource6UpdateEv
2594:__ZN11AudioSource11FixedUpdateEv
2595:__ZN11AudioSource12AddToManagerEv
2596:__ZN11AudioSource17RemoveFromManagerEv
2597:__ZN11AudioSource4PlayEd
2598:__ZN10SampleClip13LoadAudioDataEv
2599:__ZN11AudioSource28UnmuteActiveProviderChannelsEv
2600:__ZN11AudioSource16CreateFMODGroupsEv
2601:__ZN11AudioSource11AssignPropsEv
2602:__ZN11AudioSource20ApplySpatializerDataERKNS_14ParameterCacheE
2603:__ZN11AudioSource18ApplyAmbisonicDataERKNS_14ParameterCacheE
2604:__ZN20SoundChannelInstance15setChannelGroupEPN4FMOD12ChannelGroupE
2605:__ZN11AudioSource21ApplyCachedParametersE12SoundChannel
2606:__ZN20SoundChannelInstance15set3DAttributesEPK11FMOD_VECTORS2_
2607:__ZN11AudioSource20Apply3DPanParametersERKNS_14ParameterCacheE12SoundChannel
2608:__ZN11AudioSource19ApplyMinMaxDistanceERKNS_14ParameterCacheE12SoundChannel
2609:__ZN11AudioSource18ApplyReverbZoneMixERKNS_14ParameterCacheE12SoundChannel
2610:__ZN11AudioSource13ApplyPriorityERKNS_14ParameterCacheE12SoundChannel
2611:__ZN20SoundChannelInstance9isVirtualEPb
2612:__ZN4FMOD7Channel9isVirtualEPb
2613:__ZN20SoundChannelInstance11setPriorityEi
2614:__ZN20SoundChannelInstance19getReverbPropertiesEP29FMOD_REVERB_CHANNELPROPERTIES
2615:__ZN20SoundChannelInstance19setReverbPropertiesEP29FMOD_REVERB_CHANNELPROPERTIES
2616:__ZN4FMOD7Channel19getReverbPropertiesEP29FMOD_REVERB_CHANNELPROPERTIES
2617:__ZN20SoundChannelInstance19set3DMinMaxDistanceEff
2618:__ZN20SoundChannelInstance13set3DPanLevelEf
2619:__ZN20SoundChannelInstance6setPanEf
2620:__ZN20SoundChannelInstance11set3DSpreadEf
2621:__ZN11AudioSource8SetPitchEf
2622:__ZN20SoundChannelInstance7SetLoopEb
2623:__ZN11AudioSource20CacheFrameParametersEv
2624:__ZN11AudioSource15CachePositionalERNS_14ParameterCacheE
2625:__ZN11AudioSource24CacheDistanceAttenuationERNS_14ParameterCacheE
2626:__ZN11AudioSource11CacheVolumeERNS_14ParameterCacheE
2627:__ZNK10SampleClip20GetCompressionFormatEv
2628:__ZN12AudioManager31GetCurrentSpatializerDefinitionEv
2629:__ZN10AudioMixer16ResumeProcessingEv
2630:__Z30GetAudioSpatializerDefinitionsR13dynamic_arrayIP29AudioEffectInternalDefinitionLj0EE31UnityAudioEffectDefinitionFlags
2631:__ZN10SampleClip13LoadBaseSoundEv
2632:__ZNK10SampleClip17CalculateFMODModeEv
2633:__ZN12SoundManager9GetHandleERK16StreamedResourceijjP10SampleClipb
2634:__Z13LoadFMODSoundPPN11SoundHandle8InstanceEPKcjP10SampleClipjjP22FMOD_CREATESOUNDEXINFO
2635:__ZN12SoundManager18IntegrateFMODSoundEPN11SoundHandle8InstanceERK16StreamedResourcejiN17SoundHandleShared9LoadStateE
2636:__ZN4FMOD5Sound13setLoopPointsEjjjj
2637:__ZN11SoundHandle8InstanceC2Ev
2638:__ZN4FMOD6System11createSoundEPKcjP22FMOD_CREATESOUNDEXINFOPPNS_5SoundE
2639:__ZN4FMOD7SystemI11createSoundEPKcjP22FMOD_CREATESOUNDEXINFOPPNS_5SoundE
2640:__ZN10ObjectPoolIN4FMOD5SoundENS0_6SoundIEE7GetFreeEi
2641:__ZN7WeakPtrIN11SoundHandle8InstanceEE10SharedDataD2Ev
2642:__ZN7WeakPtrIN11SoundHandle8InstanceEE10SharedDataD0Ev
2643:__ZNK7WeakPtrIN11SoundHandle8InstanceEE10SharedData9GetRawPtrEv
2644:__ZN11AudioSource16UpdatePauseStateEv
2645:__ZN10SampleClip15AllocateChannelEby
2646:__ZN4FMOD6System7playDSPE17FMOD_CHANNELINDEXPNS_3DSPEbPPNS_7ChannelE
2647:__ZN4core12basic_stringIcNS_20StringStorageDefaultIcEEE6assignERKS3_
2648:__ZN11AudioSource15AddAmbisonicDSPE12SoundChannel
2649:__ZN20SoundChannelInstance14SetPositionPCMEj
2650:__ZN21AudioScriptingClasses23InvokeOnAudioSourcePlayE18ScriptingObjectPtrP21ScriptingExceptionPtr
2651:__ZN12AudioManager29GetCurrentAmbisonicDefinitionE31UnityAudioEffectDefinitionFlags
2652:__ZN20SoundChannelInstance15AddAmbisonicDSPE31UnityAudioEffectDefinitionFlagsP23UnityAudioAmbisonicData
2653:__ZN4FMOD3DSP12getParameterEiPfPci
2654:__ZN20SoundChannelInstanceC2E11SoundHandleb
2655:__ZN7WeakPtrI20SoundChannelInstanceE10SharedDataD2Ev
2656:__ZN7WeakPtrI20SoundChannelInstanceE10SharedDataD0Ev
2657:__ZN20SoundChannelInstanceD2Ev
2658:__ZN20SoundChannelInstanceD0Ev
2659:__ZN10SampleClip14ReleaseIfEqualE11SoundHandle
2660:__ZN11SoundHandleC2ERKS_
2661:__ZN11SoundHandleC2Ev
2662:__ZN4FMOD7SystemI7playDSPE17FMOD_CHANNELINDEXPNS_3DSPEbPPNS_7ChannelE
2663:__ZN11SoundHandle13CreateChannelEb
2664:__ZN20SoundChannelInstance8setDelayE14FMOD_DELAYTYPEjj
2665:__ZN11SoundHandle8Instance13CreateChannelERS_b
2666:__ZN11AudioSource32CorrectScheduledTimeAfterUnpauseEy
2667:__ZN20SoundChannelInstance8getDelayE14FMOD_DELAYTYPEPjS1_
2668:__ZN11AudioSource8DoUpdateEv
2669:__ZN11AudioSource19UpdateLocalChannelsER13dynamic_arrayI12SoundChannelLj0EE
2670:__ZN13dynamic_arrayI12SoundChannelLj0EE9push_backERKS0_
2671:__ZN11AudioSource8TransferI14SafeBinaryReadEEvRT_
2672:__ZN11AudioSource19CreateOpenALRolloffEfff
2673:__ZN11AudioSource8TransferI24GenerateTypeTreeTransferEEvRT_
2674:__ZN11AudioSource8TransferI18StreamedBinaryReadEEvRT_
2675:__ZN11AudioSource8TransferI19StreamedBinaryWriteEEvRT_
2676:__ZN11AudioSource26KillActiveProviderChannelsEv
2677:__ZN10SampleClipD2Ev
2678:__ZN10SampleClipD0Ev
2679:__ZN10SampleClip17MainThreadCleanupEv
2680:__ZNK10SampleClip22GetTypeVirtualInternalEv
2681:__ZN10SampleClip23VirtualRedirectTransferER24GenerateTypeTreeTransfer
2682:__ZN10SampleClip23VirtualRedirectTransferER14SafeBinaryRead
2683:__ZNK10SampleClip12GetLoadStateEv
2684:__ZN9AudioClipD2Ev
2685:__ZN9AudioClipD0Ev
2686:__ZN9AudioClip17MainThreadCleanupEv
2687:__ZN9AudioClip13AwakeFromLoadE17AwakeFromLoadMode
2688:__ZN9AudioClip21AwakeFromLoadThreadedEv
2689:__ZNK9AudioClip22GetTypeVirtualInternalEv
2690:__ZN9AudioClip23VirtualRedirectTransferER19StreamedBinaryWrite
2691:__ZN9AudioClip23VirtualRedirectTransferER18StreamedBinaryRead
2692:__ZN9AudioClip23VirtualRedirectTransferER17RemapPPtrTransfer
2693:__ZN9AudioClip23VirtualRedirectTransferER24GenerateTypeTreeTransfer
2694:__ZN9AudioClip23VirtualRedirectTransferER14SafeBinaryRead
2695:__ZN9AudioClip8TransferI14SafeBinaryReadEEvRT_
2696:__ZN9AudioClip8TransferI24GenerateTypeTreeTransferEEvRT_
2697:__ZN9AudioClip8TransferI18StreamedBinaryReadEEvRT_
2698:__ZN9AudioClip8TransferI19StreamedBinaryWriteEEvRT_
2699:__ZN9AudioClip9LoadSoundEv
2700:__ZN9AudioClip11CreateSoundEv
2701:__ZN12AudioManager22CreateFMODSoundFromWWWEP10IWWWStream15FMOD_SOUND_TYPE17FMOD_SOUND_FORMATjjbbP10SampleClip
2702:__ZN12SoundManager22GetHandleFromFMODSoundEPN11SoundHandle8InstanceEjP10SampleClip
2703:__ZN12AudioManager24CreateFMODSoundFromMovieEP9AudioClip
2704:__ZN9AudioClip21ScriptPCMReadCallbackEP10FMOD_SOUNDPvj
2705:__ZN9AudioClip28ScriptPCMSetPositionCallbackEP10FMOD_SOUNDijj
2706:__ZN12SoundManager19CreateSoundInternalEPKcjP22FMOD_CREATESOUNDEXINFOR11SoundHandlejP10SampleClip
2707:__ZN4FMOD5Sound11getUserDataEPPv
2708:__Z31GetParentSampleClipFromInstancePN11SoundHandle8InstanceE
2709:__ZN12AudioManager22GetScriptBufferManagerEv
2710:__ZNK9AudioClip8GetMovieEv
2711:__ZN9AudioClip12moviepcmreadEP10FMOD_SOUNDPvj
2712:__ZN9AudioClip18GetQueuedAudioDataEPPvj
2713:__ZN9AudioClip7WWWOpenEPKciPjPPvS4_
2714:__ZN9AudioClip8WWWCloseEPvS0_
2715:__ZN9AudioClip7WWWReadEPvS0_jPjS0_
2716:__ZN9AudioClip7WWWSeekEPvjS0_
2717:__ZN10IWWWStream25FromTextualRepresentationEPKc
2718:__ZN13AudioListenerD2Ev
2719:__ZN13AudioListenerD0Ev
2720:__ZN13AudioListener13AwakeFromLoadE17AwakeFromLoadMode
2721:__ZN13AudioListener5ResetEv
2722:__ZNK13AudioListener22GetTypeVirtualInternalEv
2723:__ZN13AudioListener23VirtualRedirectTransferER19StreamedBinaryWrite
2724:__ZN13AudioListener23VirtualRedirectTransferER18StreamedBinaryRead
2725:__ZN13AudioListener23VirtualRedirectTransferER17RemapPPtrTransfer
2726:__ZN13AudioListener23VirtualRedirectTransferER24GenerateTypeTreeTransfer
2727:__ZN13AudioListener23VirtualRedirectTransferER14SafeBinaryRead
2728:__ZN13AudioListener6UpdateEv
2729:__ZN13AudioListener11FixedUpdateEv
2730:__ZN13AudioListener12AddToManagerEv
2731:__ZN13AudioListener17RemoveFromManagerEv
2732:__ZN12AudioManager19RemoveAudioListenerEP13AudioListener
2733:__ZN12AudioManager16AddAudioListenerEP13AudioListener
2734:__ZN13AudioListener8DoUpdateEv
2735:__ZN12AudioManager14UpdateListenerERK8Vector3fS2_S2_S2_
2736:__ZNK18AudioLowPassFilter18GetCutoffFrequencyEv
2737:__ZN18AudioLowPassFilter26SetCutoffFrequencyInternalEf
2738:__ZN4FMOD6System23set3DListenerAttributesEiPK11FMOD_VECTORS3_S3_S3_
2739:__ZN12AudioManager22GetAutomaticUpdateModeEP10GameObject
2740:__ZN14AudioBehaviourD2Ev
2741:__ZNK14AudioBehaviour22GetTypeVirtualInternalEv
2742:__ZN17AudioCustomFilterD2Ev
2743:__ZN17AudioCustomFilterD0Ev
2744:__ZNK9AudioClip12GetFrequencyEv
2745:__ZNK14SoundHandleAPI12GetFrequencyEv
2746:__ZN4FMOD5Sound11getDefaultsEPfS1_S1_Pi
2747:__ZN14PlayableOutput19SetSourceOutputPortEi
2748:__ZNK7Texture20GetUnscaledTextureIDEv
2749:__ZNK7Texture11GetGPUWidthEv
2750:__ZNK7Texture12GetGPUHeightEv
2751:__ZNK7Texture16GetNpotTexelSizeEv
2752:__ZNK7Texture9HasMipMapEv
2753:__ZNK7Texture14GetMipmapCountEv
2754:__ZNK7Texture21GetShadowSamplingModeEv
2755:__ZN7Texture34UpdateFileTextureUploadInstructionEP24TextureUploadInstructionj
2756:__Z18GetAudioModuleSpecv
2757:__Z18RegisterUnityClassI9AudioClipEvPKc
2758:__Z18RegisterUnityClassI14AudioBehaviourEvPKc
2759:__Z18RegisterUnityClassI13AudioListenerEvPKc
2760:__Z18RegisterUnityClassI11AudioSourceEvPKc
2761:__Z18RegisterUnityClassI10AudioMixerEvPKc
2762:__Z18RegisterUnityClassI18AudioMixerSnapshotEvPKc
2763:__Z18RegisterUnityClassI15AudioMixerGroupEvPKc
2764:__ZN13ProduceHelperI15AudioMixerGroupLb0EE7ProduceE10MemLabelId18ObjectCreationMode
2765:__ZN18BaseObjectInternal9NewObjectI15AudioMixerGroupEEP6Object10MemLabelId18ObjectCreationMode
2766:__ZN13ProduceHelperI18AudioMixerSnapshotLb0EE7ProduceE10MemLabelId18ObjectCreationMode
2767:__ZN18BaseObjectInternal9NewObjectI18AudioMixerSnapshotEEP6Object10MemLabelId18ObjectCreationMode
2768:__ZN13ProduceHelperI10AudioMixerLb0EE7ProduceE10MemLabelId18ObjectCreationMode
2769:__ZN18BaseObjectInternal9NewObjectI10AudioMixerEEP6Object10MemLabelId18ObjectCreationMode
2770:__ZN5audio6memory13HeapAllocator8AllocateEjj
2771:__ZN13ProduceHelperI11AudioSourceLb0EE7ProduceE10MemLabelId18ObjectCreationMode
2772:__ZN11AudioSource15InitializeClassEv
2773:__ZZN11AudioSource15InitializeClassEvEN32FunctorImpl_2792kDidAddComponent4CallEPviR11MessageData
2774:__ZN18BaseObjectInternal9NewObjectI11AudioSourceEEP6Object10MemLabelId18ObjectCreationMode
2775:__ZN11AudioSourceC2E10MemLabelId18ObjectCreationMode
2776:__ZN15AudioParametersC2E10MemLabelId
2777:__ZN13ProduceHelperI13AudioListenerLb0EE7ProduceE10MemLabelId18ObjectCreationMode
2778:__ZN13AudioListener15InitializeClassEv
2779:__ZZN13AudioListener15InitializeClassEvEN31FunctorImpl_187kDidAddComponent4CallEPviR11MessageData
2780:__ZN18BaseObjectInternal9NewObjectI13AudioListenerEEP6Object10MemLabelId18ObjectCreationMode
2781:__ZN14AudioBehaviourC2E10MemLabelId18ObjectCreationMode
2782:__ZN13ProduceHelperI9AudioClipLb0EE7ProduceE10MemLabelId18ObjectCreationMode
2783:__ZN18BaseObjectInternal9NewObjectI9AudioClipEEP6Object10MemLabelId18ObjectCreationMode
2784:__ZN9AudioClipC2E10MemLabelId18ObjectCreationMode
2785:__ZN10SampleClipC2E10MemLabelId18ObjectCreationMode
2786:__ZN7WeakPtrI10SampleClipE10SharedDataD2Ev
2787:__ZN7WeakPtrI10SampleClipE10SharedDataD0Ev
2788:__ZN12AudioManager16GetConfigurationEv
2789:__Z36AudioSettings_Get_Custom_PropDspTimev
2790:__ZNK12AudioManager10GetDSPTimeEv
2791:__Z45AudioSettings_CUSTOM_GetSpatializerPluginNamev
2792:__ZN12AudioManager35GetCurrentSpatializerDefinitionNameEv
2793:__Z51AudioSettings_CUSTOM_INTERNAL_CALL_GetConfigurationR27AudioConfigurationScripting
2794:__Z50AudioSettings_CUSTOM_GetAmbisonicDecoderPluginNamev
2795:__ZN12AudioManager33GetCurrentAmbisonicDefinitionNameE31UnityAudioEffectDefinitionFlags
2796:__Z45AudioExtensionManager_CUSTOM_GetAudioListenerv
2797:__ZNK12AudioManager16GetAudioListenerEv
2798:__Z34AudioClip_Get_Custom_PropAmbisonicP12Il2CppObject
2799:__ZN9AudioClip16EnableLegacyModeEv
2800:__ZN12AudioManager16SetListenerPauseEb
2801:__ZN4FMOD12ChannelGroup11getWaveDataEPfii
2802:__ZN4FMOD12ChannelGroup11getSpectrumEPfii19FMOD_DSP_FFT_WINDOW
2803:__Z46AudioListener_CUSTOM_GetNumExtensionPropertiesP12Il2CppObject
2804:__ZN13AudioListener25GetNumExtensionPropertiesEv
2805:__Z52AudioListener_CUSTOM_INTERNAL_CALL_ReadExtensionNameP12Il2CppObjectiR12PropertyName
2806:__ZN13AudioListener17ReadExtensionNameEi
2807:__Z60AudioListener_CUSTOM_INTERNAL_CALL_ReadExtensionPropertyNameP12Il2CppObjectiR12PropertyName
2808:__ZN13AudioListener25ReadExtensionPropertyNameEi
2809:__Z47AudioListener_CUSTOM_ReadExtensionPropertyValueP12Il2CppObjecti
2810:__ZN13AudioListener26ReadExtensionPropertyValueEi
2811:__Z59AudioListener_CUSTOM_INTERNAL_CALL_ClearExtensionPropertiesP12Il2CppObjectRK12PropertyName
2812:__ZN13AudioListener24ClearExtensionPropertiesE12PropertyName
2813:__Z33AudioSource_Set_Custom_PropVolumeP12Il2CppObjectf
2814:__ZN11AudioSource9SetVolumeEf
2815:__Z32AudioSource_Set_Custom_PropPitchP12Il2CppObjectf
2816:__Z31AudioSource_Get_Custom_PropTimeP12Il2CppObject
2817:__ZNK11AudioSource14GetSecPositionEv
2818:__ZN20SoundChannelInstance14GetPositionPCMEPj
2819:__ZN4FMOD7Channel11getPositionEPjj
2820:i64s-rem
2821:f64-to-uint
2822:__ZN4FMOD8ChannelI11getPositionEPjj
2823:__Z31AudioSource_Set_Custom_PropTimeP12Il2CppObjectf
2824:__ZN11AudioSource14SetSecPositionEf
2825:__Z38AudioSource_Get_Custom_PropTimeSamplesP12Il2CppObject
2826:__ZNK11AudioSource17GetSamplePositionEv
2827:__Z38AudioSource_Set_Custom_PropTimeSamplesP12Il2CppObjecti
2828:__ZN11AudioSource17SetSamplePositionEj
2829:__Z31AudioSource_Get_Custom_PropClipP12Il2CppObject
2830:__Z31AudioSource_Set_Custom_PropClipP12Il2CppObjectS0_
2831:__ZN11AudioSource12SetAudioClipEP9AudioClip
2832:__Z48AudioSource_Set_Custom_PropOutputAudioMixerGroupP12Il2CppObjectS0_
2833:__ZN11AudioSource24SetOutputAudioMixerGroupE4PPtrI15AudioMixerGroupE
2834:__Z23AudioSource_CUSTOM_PlayP12Il2CppObjecty
2835:__Z30AudioSource_CUSTOM_PlayDelayedP12Il2CppObjectf
2836:__Z32AudioSource_CUSTOM_PlayScheduledP12Il2CppObjectd
2837:__Z23AudioSource_CUSTOM_StopP12Il2CppObject
2838:__Z38AudioSource_CUSTOM_INTERNAL_CALL_PauseP12Il2CppObject
2839:__ZN11AudioSource5PauseEv
2840:__Z40AudioSource_CUSTOM_INTERNAL_CALL_UnPauseP12Il2CppObject
2841:__ZN11AudioSource7UnPauseEv
2842:__Z36AudioSource_Get_Custom_PropIsPlayingP12Il2CppObject
2843:__ZN11AudioSource18IsPlayingScriptingEv
2844:__ZNK11AudioSource9IsPlayingEv
2845:__ZN20SoundChannelInstance9isPlayingEPb
2846:__Z36AudioSource_CUSTOM_PlayOneShotHelperP12Il2CppObjectS0_f
2847:__ZN11AudioSource11PlayOneShotER9AudioClipf
2848:__Z31AudioSource_Set_Custom_PropLoopP12Il2CppObjecth
2849:__ZN11AudioSource7SetLoopEb
2850:__Z38AudioSource_Set_Custom_PropPlayOnAwakeP12Il2CppObjecth
2851:__ZN11AudioSource14SetPlayOnAwakeEb
2852:__Z39AudioSource_Set_Custom_PropSpatialBlendP12Il2CppObjectf
2853:__ZN11AudioSource18SetSpatialBlendMixEf
2854:__Z45AudioSource_Get_Custom_PropSpatializeInternalP12Il2CppObject
2855:__ZNK11AudioSource13GetSpatializeEv
2856:__Z45AudioSource_Set_Custom_PropSpatializeInternalP12Il2CppObjecth
2857:__ZN11AudioSource13SetSpatializeEb
2858:__Z33AudioSource_CUSTOM_SetCustomCurveP12Il2CppObject24MonoAudioSourceCurveTypeS0_
2859:__ZN11AudioSource21SetCustomRolloffCurveERK17AnimationCurveTplIfE
2860:__ZN11AudioSource26SetCustomSpatialBlendCurveERK17AnimationCurveTplIfE
2861:__ZN11AudioSource27SetCustomReverbZoneMixCurveERK17AnimationCurveTplIfE
2862:__ZN11AudioSource20SetCustomSpreadCurveERK17AnimationCurveTplIfE
2863:__Z44AudioSource_Set_Custom_PropBypassReverbZonesP12Il2CppObjecth
2864:__ZN11AudioSource20SetBypassReverbZonesEb
2865:__Z39AudioSource_Set_Custom_PropDopplerLevelP12Il2CppObjectf
2866:__ZN11AudioSource15SetDopplerLevelEf
2867:__Z33AudioSource_Set_Custom_PropSpreadP12Il2CppObjectf
2868:__ZN11AudioSource9SetSpreadEf
2869:__Z35AudioSource_Set_Custom_PropPriorityP12Il2CppObjecti
2870:__ZN11AudioSource11SetPriorityEi
2871:__Z31AudioSource_Set_Custom_PropMuteP12Il2CppObjecth
2872:__ZN11AudioSource7SetMuteEb
2873:__Z38AudioSource_Set_Custom_PropMinDistanceP12Il2CppObjectf
2874:__ZN11AudioSource14SetMinDistanceEf
2875:__Z38AudioSource_Set_Custom_PropMaxDistanceP12Il2CppObjectf
2876:__ZN11AudioSource14SetMaxDistanceEf
2877:__Z38AudioSource_Set_Custom_PropRolloffModeP12Il2CppObject11RolloffMode
2878:__ZN11AudioSource14SetRolloffModeE11RolloffMode
2879:__Z38AudioSource_CUSTOM_GetOutputDataHelperP12Il2CppObjectP11Il2CppArrayi
2880:__ZN11AudioSource13GetOutputDataEPfii
2881:__Z40AudioSource_CUSTOM_GetSpectrumDataHelperP12Il2CppObjectP11Il2CppArrayi19FMOD_DSP_FFT_WINDOW
2882:__ZN11AudioSource15GetSpectrumDataEPfii19FMOD_DSP_FFT_WINDOW
2883:__Z44AudioSource_CUSTOM_GetNumExtensionPropertiesP12Il2CppObject
2884:__ZN11AudioSource25GetNumExtensionPropertiesEv
2885:__Z50AudioSource_CUSTOM_INTERNAL_CALL_ReadExtensionNameP12Il2CppObjectiR12PropertyName
2886:__ZN11AudioSource17ReadExtensionNameEi
2887:__Z58AudioSource_CUSTOM_INTERNAL_CALL_ReadExtensionPropertyNameP12Il2CppObjectiR12PropertyName
2888:__ZN11AudioSource25ReadExtensionPropertyNameEi
2889:__Z45AudioSource_CUSTOM_ReadExtensionPropertyValueP12Il2CppObjecti
2890:__ZN11AudioSource26ReadExtensionPropertyValueEi
2891:__Z57AudioSource_CUSTOM_INTERNAL_CALL_ClearExtensionPropertiesP12Il2CppObjectRK12PropertyName
2892:__ZN11AudioSource24ClearExtensionPropertiesE12PropertyName
2893:__Z38AudioSource_CUSTOM_SetSpatializerFloatP12Il2CppObjectif
2894:__ZN11AudioSource19SetSpatializerFloatEif
2895:__Z46Register_UnityEngine_AudioSettings_get_dspTimev
2896:__Z59Register_UnityEngine_AudioSettings_GetSpatializerPluginNamev
2897:__Z65Register_UnityEngine_AudioSettings_INTERNAL_CALL_GetConfigurationv
2898:__Z64Register_UnityEngine_AudioSettings_GetAmbisonicDecoderPluginNamev
2899:__Z59Register_UnityEngine_AudioExtensionManager_GetAudioListenerv
2900:__Z44Register_UnityEngine_AudioClip_get_ambisonicv
2901:__Z60Register_UnityEngine_AudioListener_GetNumExtensionPropertiesv
2902:__Z66Register_UnityEngine_AudioListener_INTERNAL_CALL_ReadExtensionNamev
2903:__Z74Register_UnityEngine_AudioListener_INTERNAL_CALL_ReadExtensionPropertyNamev
2904:__Z61Register_UnityEngine_AudioListener_ReadExtensionPropertyValuev
2905:__Z73Register_UnityEngine_AudioListener_INTERNAL_CALL_ClearExtensionPropertiesv
2906:__Z43Register_UnityEngine_AudioSource_set_volumev
2907:__Z42Register_UnityEngine_AudioSource_set_pitchv
2908:__Z41Register_UnityEngine_AudioSource_get_timev
2909:__Z41Register_UnityEngine_AudioSource_set_timev
2910:__Z48Register_UnityEngine_AudioSource_get_timeSamplesv
2911:__Z48Register_UnityEngine_AudioSource_set_timeSamplesv
2912:__Z41Register_UnityEngine_AudioSource_get_clipv
2913:__Z41Register_UnityEngine_AudioSource_set_clipv
2914:__Z58Register_UnityEngine_AudioSource_set_outputAudioMixerGroupv
2915:__Z37Register_UnityEngine_AudioSource_Playv
2916:__Z44Register_UnityEngine_AudioSource_PlayDelayedv
2917:__Z46Register_UnityEngine_AudioSource_PlayScheduledv
2918:__Z37Register_UnityEngine_AudioSource_Stopv
2919:__Z52Register_UnityEngine_AudioSource_INTERNAL_CALL_Pausev
2920:__Z54Register_UnityEngine_AudioSource_INTERNAL_CALL_UnPausev
2921:__Z46Register_UnityEngine_AudioSource_get_isPlayingv
2922:__Z50Register_UnityEngine_AudioSource_PlayOneShotHelperv
2923:__Z41Register_UnityEngine_AudioSource_set_loopv
2924:__Z48Register_UnityEngine_AudioSource_set_playOnAwakev
2925:__Z49Register_UnityEngine_AudioSource_set_spatialBlendv
2926:__Z55Register_UnityEngine_AudioSource_get_spatializeInternalv
2927:__Z55Register_UnityEngine_AudioSource_set_spatializeInternalv
2928:__Z47Register_UnityEngine_AudioSource_SetCustomCurvev
2929:__Z54Register_UnityEngine_AudioSource_set_bypassReverbZonesv
2930:__Z49Register_UnityEngine_AudioSource_set_dopplerLevelv
2931:__Z43Register_UnityEngine_AudioSource_set_spreadv
2932:__Z45Register_UnityEngine_AudioSource_set_priorityv
2933:__Z41Register_UnityEngine_AudioSource_set_mutev
2934:__Z48Register_UnityEngine_AudioSource_set_minDistancev
2935:__Z48Register_UnityEngine_AudioSource_set_maxDistancev
2936:__Z48Register_UnityEngine_AudioSource_set_rolloffModev
2937:__Z52Register_UnityEngine_AudioSource_GetOutputDataHelperv
2938:__Z54Register_UnityEngine_AudioSource_GetSpectrumDataHelperv
2939:__Z58Register_UnityEngine_AudioSource_GetNumExtensionPropertiesv
2940:__Z64Register_UnityEngine_AudioSource_INTERNAL_CALL_ReadExtensionNamev
2941:__Z72Register_UnityEngine_AudioSource_INTERNAL_CALL_ReadExtensionPropertyNamev
2942:__Z59Register_UnityEngine_AudioSource_ReadExtensionPropertyValuev
2943:__Z71Register_UnityEngine_AudioSource_INTERNAL_CALL_ClearExtensionPropertiesv
2944:__Z52Register_UnityEngine_AudioSource_SetSpatializerFloatv
2945:__Z36AudioMixer_CUSTOM_FindMatchingGroupsP12Il2CppObjectP12Il2CppString
2946:__ZN10AudioMixer25FindGroupsWithPartialPathEPKcR13dynamic_arrayI4PPtrI15AudioMixerGroupELj0EE
2947:__ZN5audio5mixer32GetGroupGUIDsContainingSubStringERKNS0_18AudioMixerConstantEPKcRNSt3__26vectorI9UnityGUIDNS6_9allocatorIS8_EEEE
2948:__ZN15AudioMixerGroup27GetGroupInGUIDListRecursiveERKNSt3__26vectorI9UnityGUIDNS0_9allocatorIS2_EEEER13dynamic_arrayI4PPtrIS_ELj0EE
2949:__ZN5audio5mixerL32GetGroupGUIDsContainingSubStringERKNS0_18AudioMixerConstantEPKcRKN4core12basic_stringIcNS6_20StringStorageDefaultIcEEEEiRNSt3__26vectorI9UnityGUIDNSD_9allocatorISF_EEEE
2950:__ZNSt3__26vectorI9UnityGUIDNS_9allocatorIS1_EEE21__push_back_slow_pathIRKS1_EEvOT_
2951:__Z56Register_UnityEngine_Audio_AudioMixer_FindMatchingGroupsv
2952:__ZN21AudioScriptingClasses26InvokeOnAudioManagerUpdateEP21ScriptingExceptionPtr
2953:__ZZL31InitializeAudioManagerCallbacksvEN38FixedUpdateAudioFixedUpdateRegistrator7ForwardEv
2954:__ZZL31InitializeAudioManagerCallbacksvEN36PostLateUpdateUpdateAudioRegistrator7ForwardEv
2955:__ZZL31InitializeAudioManagerCallbacksvEN44PostLateUpdateUpdateVideoTexturesRegistrator7ForwardEv
2956:__ZN11AudioModule16SetListenerPauseEb
2957:__ZN11AudioModule19SetApplicationPauseEb
2958:__ZN11AudioModule11FixedUpdateEv
2959:__ZN11AudioModule6UpdateEv
2960:__ZN11AudioModule11GetDSPClockEv
2961:__ZN11AudioModule16GetDSPSampleRateEv
2962:__ZN11AudioModule15GetDSPBlockSizeEv
2963:__ZN11AudioModule17StopVideoTexturesEv
2964:__ZN11AudioModule19UpdateVideoTexturesEv
2965:__ZN11AudioModule18PauseVideoTexturesEv
2966:__ZN11AudioModule20SuspendVideoTexturesEv
2967:__ZN11AudioModule19ResumeVideoTexturesEv
2968:__ZN11AudioModule22CreateAudioClipFromWWWEP10IWWWStreamPKcbbi
2969:__ZN11AudioModule27IsFormatSupportedByPlatformEPKc
2970:__ZN11AudioModule30GetOrCreateDSPFromCustomFilterEP17AudioCustomFilter
2971:__ZN11AudioModule23CreateAudioCustomFilterEP13MonoBehaviour
2972:__ZN11AudioModule23DeleteAudioCustomFilterEP17AudioCustomFilter
2973:__ZN11AudioModule27GetDSPFromAudioCustomFilterEP17AudioCustomFilter
2974:__ZN11AudioModule14SetBypassOnDSPEPN4FMOD3DSPEb
2975:__ZN11AudioModule16GetProfilerStatsER10AudioStats
2976:__ZN11AudioModule12CaptureFrameER13dynamic_arrayI22AudioProfilerGroupInfoLj0EERS0_I20AudioProfilerDSPInfoLj0EERS0_I21AudioProfilerClipInfoLj0EERS0_IcLj0EE
2977:__ZN11AudioModule23SetProfilerCaptureFlagsEi
2978:__ZN11AudioModule25AudioManagerAwakeFromLoadE17AwakeFromLoadMode
2979:__ZN11AudioModule21SetActiveOutputDriverEPv
2980:__ZN11AudioModule26SetDefaultMicrophoneDriverEPv
2981:__ZN11AudioModule13GetNumDevicesEv
2982:__ZN11AudioModule15IsAudioDisabledEv
2983:__ZNK12AudioManager13GetNumDevicesEv
2984:__ZN12AudioManager26SetDefaultMicrophoneDriverEP9FMOD_GUID
2985:__ZN13AudioProfiler12CaptureFrameER13dynamic_arrayI22AudioProfilerGroupInfoLj0EERS0_I20AudioProfilerDSPInfoLj0EERS0_I21AudioProfilerClipInfoLj0EERS0_IcLj0EE
2986:__ZN12AudioManager15GetProfilerDataER10AudioStats
2987:__ZN12SoundManager15GetProfilerDataER10AudioStats
2988:__ZN4FMOD6System18getChannelsPlayingEPi
2989:__ZN4FMOD6System11getCPUUsageEPfS1_S1_S1_S1_
2990:__ZN4FMOD6System13getMemoryInfoEjjPjP25FMOD_MEMORY_USAGE_DETAILS
2991:__ZN17AudioCustomFilterC2EP13MonoBehaviour
2992:__ZN17AudioCustomFilter4InitEv
2993:__ZL22FMODDSPReleaseCallbackP14FMOD_DSP_STATE
2994:__ZL20SharedDataDeleterJobP21UnownedResourceHandleI17AudioCustomFilterE
2995:__ZN17AudioCustomFilter14GetOrCreateDSPEv
2996:__ZN9AudioClip27IsFormatSupportedByPlatformERKN4core12basic_stringIcNS0_20StringStorageDefaultIcEEEE
2997:__ZN9AudioClip22GetFormatFromExtensionERKN4core12basic_stringIcNS0_20StringStorageDefaultIcEEEE
2998:__ZN9AudioClip10InitStreamEP10IWWWStreamPKcP13MoviePlaybackbb15FMOD_SOUND_TYPE
2999:__ZN16BaseVideoTexture19ResumeVideoTexturesEv
3000:__ZN16BaseVideoTexture20SuspendVideoTexturesEv
3001:__ZN16BaseVideoTexture18PauseVideoTexturesEv
3002:__ZN16BaseVideoTexture19UpdateVideoTexturesEv
3003:__ZN16BaseVideoTexture17StopVideoTexturesEv
3004:__ZNK12AudioManager15GetDSPBlockSizeEv
3005:__ZNK12AudioManager16GetDSPSampleRateEv
3006:__ZNK12AudioManager11GetDSPClockEv
3007:__ZN12AudioManager6UpdateEv
3008:__ZN12AudioManager23ProcessScheduledSourcesEv
3009:__ZN12AudioManager11FixedUpdateEv
3010:__ZN12AudioManager19SetApplicationPauseEb
3011:__Z18RegisterUnityClassI12AudioManagerEvPKc
3012:__Z18RegisterUnityClassI10SampleClipEvPKc
3013:__ZN13ProduceHelperI10SampleClipLb0EE7ProduceE10MemLabelId18ObjectCreationMode
3014:__ZN18BaseObjectInternal9NewObjectI10SampleClipEEP6Object10MemLabelId18ObjectCreationMode
3015:__ZN13ProduceHelperI12AudioManagerLb0EE7ProduceE10MemLabelId18ObjectCreationMode
3016:__ZN18BaseObjectInternal9NewObjectI12AudioManagerEEP6Object10MemLabelId18ObjectCreationMode
3017:__ZN12AudioManagerC2E10MemLabelId18ObjectCreationMode
3018:__Z20RegisterModule_Audiov
3019:__ZL22InitializeModule_Audiov
3020:__ZL19CleanupModule_Audiov
3021:__ZN19AudioSampleProvider7AcquireEjRNS_6HandleE
3022:__ZN19AudioSampleProvider15SetScriptingPtrERK18ScriptingObjectPtr
3023:__ZN27AudioSampleProviderBindings23InternalSetScriptingPtrEj18ScriptingObjectPtr
3024:__Z50AudioSampleProvider_CUSTOM_InternalSetScriptingPtrjP12Il2CppObject
3025:__Z83Register_UnityEngine_Experimental_Audio_AudioSampleProvider_InternalSetScriptingPtrv
3026:__GLOBAL__sub_I_ClothScriptingClasses_cpp
3027:___cxx_global_var_init_21
3028:___cxx_global_var_init_22
3029:__GLOBAL__sub_I_Runtime_Cloth_0_cpp
3030:___cxx_global_var_init_13
3031:__GLOBAL__sub_I_SwCollision_cpp
3032:__GLOBAL__sub_I_SwInterCollision_cpp
3033:__GLOBAL__sub_I_SwSelfCollision_cpp
3034:__GLOBAL__sub_I_SwSolverKernel_cpp
3035:___cxx_global_var_init_679
3036:___cxx_global_var_init_1
3037:___cxx_global_var_init_2
3038:___cxx_global_var_init_3
3039:___cxx_global_var_init_4_680
3040:___cxx_global_var_init_5_681
3041:___cxx_global_var_init_6
3042:___cxx_global_var_init_7_682
3043:___cxx_global_var_init_8
3044:___cxx_global_var_init_9
3045:___cxx_global_var_init_10
3046:___cxx_global_var_init_11
3047:___cxx_global_var_init_12
3048:__Z6simd4fffff
3049:__ZN13Simd4fFactoryIN6detail9FourTupleEEC2Effff
3050:__Z6simd4fRKf
3051:__ZN13Simd4fFactoryIN6detail9FourTupleEEC2ERKS_IRKfE
3052:__ZN13Simd4fFactoryIRKfEC2ES1_
3053:__Z6simd4iiiii
3054:__Z6simd4fIN6detail9FourTupleEE13Simd4fFactoryIT_ERK13Simd4iFactoryIS3_E
3055:__ZN13Simd4iFactoryIN6detail9FourTupleEEC2Eiiii
3056:__ZNK13Simd4fFactoryIRKfEcv8Scalar4fEv
3057:__ZN5physx14PxLightCpuTaskD2Ev
3058:__ZN5physx14PxLightCpuTask12addReferenceEv
3059:__ZN5physx14PxLightCpuTask15removeReferenceEv
3060:__ZNK5physx14PxLightCpuTask12getReferenceEv
3061:__ZN5physx14PxLightCpuTask7releaseEv
3062:__ZL65__ManagedRegistrationHelperFunction_ClothSkinningCoefficientProxyPv
3063:__ZL64__ManagedRegistrationHelperFunction_ClothSphereColliderPairProxyPv
3064:__ZN9Scripting11UnityEngine28ClothSphereColliderPairProxy9InitProxyEv
3065:__ZN9Scripting11UnityEngine28ClothSphereColliderPairProxy12CleanupProxyEv
3066:__ZN9Scripting11UnityEngine29ClothSkinningCoefficientProxy9InitProxyEv
3067:__ZN9Scripting11UnityEngine29ClothSkinningCoefficientProxy12CleanupProxyEv
3068:__ZN5physx5cloth11PhaseConfigC2Et
3069:__ZN5physx2Cm4Task3runEv
3070:__ZN5physx9PxBounds313transformFastERKNS_11PxTransformERKS0_
3071:__ZN5physx6PxVec3C2Efff
3072:__ZN5physx6PxVec3aSERKS0_
3073:__ZN11UnityEngine15CloudWebService17CloudJobScheduler10InitializeEv
3074:__ZN11UnityEngine15CloudWebService17CloudJobScheduler5CloseEv
3075:__ZN11UnityEngine15CloudWebService17CloudJobScheduler11ScheduleJobEPFvPvES2_
3076:__ZN11UnityEngine15CloudWebService17CloudJobSchedulerD2Ev
3077:__ZN11UnityEngine15CloudWebService17CloudJobSchedulerD0Ev
3078:__ZN23CloudWebServicesManagerD2Ev
3079:__ZN23CloudWebServicesManagerD0Ev
3080:__ZNK23CloudWebServicesManager22GetTypeVirtualInternalEv
3081:__ZN23CloudWebServicesManager23VirtualRedirectTransferER18StreamedBinaryRead
3082:__ZN23CloudWebServicesManager23VirtualRedirectTransferER24GenerateTypeTreeTransfer
3083:__ZN23CloudWebServicesManager23VirtualRedirectTransferER14SafeBinaryRead
3084:__ZN23CloudWebServicesManager15ThreadedCleanupEv
3085:__ZNSt3__26__treeINS_12__value_typeIN19CloudServiceHandler11ServiceTypeEPS2_EENS_19__map_value_compareIS3_S5_NS_4lessIS3_EELb1EEE13stl_allocatorIS5_L18MemLabelIdentifier88ELi16EEE7destroyEPNS_11__tree_nodeIS5_PvEE
3086:__ZNSt3__26__treeINS_12__value_typeIN19CloudServiceHandler11ServiceTypeEPS2_EENS_19__map_value_compareIS3_S5_NS_4lessIS3_EELb1EEE13stl_allocatorIS5_L18MemLabelIdentifier88ELi16EEE30__emplace_hint_unique_key_argsIS3_JRKNS_4pairIKS3_S4_EEEEENS_15__tree_iteratorIS5_PNS_11__tree_nodeIS5_PvEEiEENS_21__tree_const_iteratorIS5_SO_iEERKT_DpOT0_
3087:__ZN19CloudServiceHandler12CloseServiceEv
3088:__ZN19CloudServiceHandlerD2Ev
3089:__ZN23CloudWebServicesManager25RemoveCloudServiceHandlerEP19CloudServiceHandler
3090:__ZN11UnityEngine15CloudWebService18CloudServiceConfigD2Ev
3091:__ZN11UnityEngine15CloudWebService19SessionEventManagerD2Ev
3092:__ZN11UnityEngine15CloudWebService17SessionEventQueueD2Ev
3093:__ZN11UnityEngine15CloudWebService17SessionEventQueue10PurgeQueueEv
3094:__ZN11UnityEngine15CloudWebService14DataDispatcherD2Ev
3095:__ZNSt3__26__treeINS_12__value_typeIN4core12basic_stringIcNS2_20StringStorageDefaultIcEEEEjEENS_19__map_value_compareIS6_S7_NS_4lessIS6_EELb1EEE13stl_allocatorIS7_L18MemLabelIdentifier88ELi16EEE7destroyEPNS_11__tree_nodeIS7_PvEE
3096:__ZN11UnityEngine15CloudWebService14DataDispatcher26OnSessionContainerArchivedERNS0_16SessionContainerE
3097:__ZN11UnityEngine15CloudWebService14DataDispatcher34OnSessionContainerArchivedAndReadyERNS0_16SessionContainerE
3098:__ZN11UnityEngine15CloudWebService14DataDispatcherD0Ev
3099:__ZN11UnityEngine15CloudWebService14DataDispatcher20OnRestDownloaderDoneERNS0_14RestDownloaderE
3100:__ZThn4_N11UnityEngine15CloudWebService14DataDispatcher20OnRestDownloaderDoneERNS0_14RestDownloaderE
3101:__ZThn4_N11UnityEngine15CloudWebService14DataDispatcherD1Ev
3102:__ZThn4_N11UnityEngine15CloudWebService14DataDispatcherD0Ev
3103:__ZN11UnityEngine15CloudWebService14DataDispatcher25OnDataBlockConsumedStaticEPv
3104:__ZN11UnityEngine15CloudWebService14DataDispatcher19OnDataBlockConsumedEv
3105:__ZN11UnityEngine15CloudWebService16SessionContainer11PurgeEventsEj
3106:__ZN11UnityEngine15CloudWebService16SessionContainer22ArchiveDirtyEventQueueEv
3107:__ZN11UnityEngine15CloudWebService16SessionContainer9ResetDataEv
3108:__ZN11UnityEngine15CloudWebService16SessionContainer13DeleteArchiveERKN4core12basic_stringIcNS2_20StringStorageDefaultIcEEEE
3109:__ZN11UnityEngine15CloudWebService14DataDispatcher16PrepareDataBlockERNS0_16SessionContainerE
3110:__ZN11UnityEngine15CloudWebService16SessionContainer16MarkAsDispatchedERKN4core12basic_stringIcNS2_20StringStorageDefaultIcEEEE
3111:__ZN11UnityEngine15CloudWebService14DataDispatcher19HandleDeleteFailureERNS0_16SessionContainerE
3112:__ZN11UnityEngine15CloudWebService14DataDispatcher31SetupSessionContainerToDispatchEv
3113:__ZN11UnityEngine15CloudWebService14DataDispatcher30FindSessionContainerToDispatchEv
3114:__ZN11UnityEngine15CloudWebService14DataDispatcher23EnumerateSessionFoldersER15SortedHashArrayI13FileEntryInfoNS1_6HasherEERPKS3_
3115:i64u-div
3116:i64u-rem
3117:__ZN11UnityEngine15CloudWebService16SessionContainer21ConvertFromFolderTimeERKN4core12basic_stringIcNS2_20StringStorageDefaultIcEEEEPjPt
3118:__ZN11UnityEngine15CloudWebService16SessionContainer12IsDispatchedERKN4core12basic_stringIcNS2_20StringStorageDefaultIcEEEE
3119:__ZN11UnityEngine15CloudWebService16SessionContainer7RestoreERKN4core12basic_stringIcNS2_20StringStorageDefaultIcEEEEPvy
3120:__ZNSt3__26__treeINS_12__value_typeIN4core12basic_stringIcNS2_20StringStorageDefaultIcEEEEjEENS_19__map_value_compareIS6_S7_NS_4lessIS6_EELb1EEE13stl_allocatorIS7_L18MemLabelIdentifier88ELi16EEE5eraseENS_21__tree_const_iteratorIS7_PNS_11__tree_nodeIS7_PvEEiEE
3121:__ZNSt3__26__treeINS_12__value_typeIN4core12basic_stringIcNS2_20StringStorageDefaultIcEEEEjEENS_19__map_value_compareIS6_S7_NS_4lessIS6_EELb1EEE13stl_allocatorIS7_L18MemLabelIdentifier88ELi16EEE25__emplace_unique_key_argsIS6_JRKNS_21piecewise_construct_tENS_5tupleIJRKS6_EEENSK_IJEEEEEENS_4pairINS_15__tree_iteratorIS7_PNS_11__tree_nodeIS7_PvEEiEEbEERKT_DpOT0_
3122:__ZNK15SortedHashArrayI13FileEntryInfoN11UnityEngine15CloudWebService14DataDispatcher6HasherEE4sortEv
3123:__ZNSt3__26__sortIR14SortByHashPredI13FileEntryInfoN11UnityEngine15CloudWebService14DataDispatcher6HasherEEPS2_EEvT0_SA_T_
3124:__ZNK11UnityEngine15CloudWebService14DataDispatcher6HasherclERK13FileEntryInfo
3125:__Z37remove_duplicates_using_copy_internalIP13FileEntryInfo14SortByHashPredIS0_N11UnityEngine15CloudWebService14DataDispatcher6HasherEEET_S8_S8_T0_
3126:__ZNSt3__27__sort3IR14SortByHashPredI13FileEntryInfoN11UnityEngine15CloudWebService14DataDispatcher6HasherEEPS2_EEjT0_SA_SA_T_
3127:__ZNSt3__27__sort4IR14SortByHashPredI13FileEntryInfoN11UnityEngine15CloudWebService14DataDispatcher6HasherEEPS2_EEjT0_SA_SA_SA_T_
3128:__ZNSt3__27__sort5IR14SortByHashPredI13FileEntryInfoN11UnityEngine15CloudWebService14DataDispatcher6HasherEEPS2_EEjT0_SA_SA_SA_SA_T_
3129:__ZNSt3__218__insertion_sort_3IR14SortByHashPredI13FileEntryInfoN11UnityEngine15CloudWebService14DataDispatcher6HasherEEPS2_EEvT0_SA_T_
3130:__ZNSt3__227__insertion_sort_incompleteIR14SortByHashPredI13FileEntryInfoN11UnityEngine15CloudWebService14DataDispatcher6HasherEEPS2_EEbT0_SA_T_
3131:__ZN11UnityEngine15CloudWebService16SessionContainer17RestoreEventQueueERKN4core12basic_stringIcNS2_20StringStorageDefaultIcEEEES8_Pvy
3132:__ZN11UnityEngine15CloudWebService16SessionContainer20RestoreSessionHeaderERKN4core12basic_stringIcNS2_20StringStorageDefaultIcEEEES8_RNS0_13SessionHeaderE
3133:__ZN11UnityEngine15CloudWebService17SessionEventQueue15RestoreFromFileER12FileAccessorPvy
3134:__ZN11UnityEngine15CloudWebService17SessionEventQueue16ExtractEventDataEPKcyRN4core12basic_stringIcNS4_20StringStorageDefaultIcEEEE
3135:__ZN11UnityEngine15CloudWebService17SessionEventQueue14ParseEventDataERKN4core12basic_stringIcNS2_20StringStorageDefaultIcEEEE
3136:__ZNSt3__26vectorIPN11UnityEngine15CloudWebService14CloudEventInfoE13stl_allocatorIS4_L18MemLabelIdentifier88ELi16EEE21__push_back_slow_pathIRKS4_EEvOT_
3137:__ZN11UnityEngine15CloudWebService14DataDispatcher21SortFileEntryInfoListERK19dynamic_block_arrayI13FileEntryInfoLj32EER15SortedHashArrayIS3_NS1_6HasherEE
3138:__ZN19dynamic_block_arrayI13FileEntryInfoLj32EE5clearEv
3139:__ZN15SortedHashArrayI13FileEntryInfoN11UnityEngine15CloudWebService14DataDispatcher6HasherEE9push_backERKS0_
3140:__ZN11UnityEngine15CloudWebService16SessionContainer38GetDeleteErrorJsonDataBlockAsJsonArrayERKN4core12basic_stringIcNS2_20StringStorageDefaultIcEEEES8_RS6_
3141:__ZN11UnityEngine15CloudWebService16SessionContainer27GetDeleteErrorJsonDataBlockERKN4core12basic_stringIcNS2_20StringStorageDefaultIcEEEERS6_
3142:__ZN11UnityEngine15CloudWebService14DataDispatcher15SetupWebRequestEv
3143:__ZN11UnityEngine15CloudWebService14DataDispatcher18PreformWebDispatchEv
3144:__ZN11UnityEngine15CloudWebService14DataErrorEvent12ToJsonStringERN4core12basic_stringIcNS2_20StringStorageDefaultIcEEEEjPKc
3145:__ZN11UnityEngine15CloudWebService14DataErrorEventD2Ev
3146:__ZN11UnityEngine15CloudWebService16SessionContainer15FormatDataBlockERKN4core12basic_stringIcNS2_20StringStorageDefaultIcEEEES6_RS6_
3147:__ZN11UnityEngine15CloudWebService16SessionContainer24GetSessionHeaderJsonDataERKN4core12basic_stringIcNS2_20StringStorageDefaultIcEEEERNS2_13StringBuilderE
3148:__ZN4core13StringBuilder14UpdateWritePtrERPcb
3149:__ZN11UnityEngine15CloudWebService17CloudServiceEventD2Ev
3150:__ZN11UnityEngine15CloudWebService17CloudServiceEventD0Ev
3151:__ZN11UnityEngine15CloudWebService17CloudServiceEvent12ToJsonStringER9JSONWrite
3152:__ZN9JSONWrite8TransferIyEEvRT_PKc17TransferMetaFlags
3153:__ZN5Unity9rapidjson12GenericValueINS0_4UTF8IcEE13JSONAllocatorED2Ev
3154:__ZN11UnityEngine15CloudWebService14DataErrorEventD0Ev
3155:__ZN11UnityEngine15CloudWebService14DataErrorEvent12ToJsonStringER9JSONWrite
3156:__ZN9JSONWrite8TransferIN4core12basic_stringIcNS1_20StringStorageDefaultIcEEEEEEvRT_PKc17TransferMetaFlags
3157:__ZN9JSONWrite8TransferIN11UnityEngine15CloudWebService14DataErrorEvent17FolderErrorDetailEEEvRT_PKc17TransferMetaFlags
3158:__ZN9JSONWrite8TransferI13dynamic_arrayIN11UnityEngine15CloudWebService14DataErrorEvent15FileErrorDetailELj0EEEEvRT_PKc17TransferMetaFlags
3159:__ZN9JSONWrite8TransferIN11UnityEngine15CloudWebService14DataErrorEvent15FileErrorDetailEEEvRT_PKc17TransferMetaFlags
3160:__ZN9JSONWrite8TransferIiEEvRT_PKc17TransferMetaFlags
3161:__ZN11UnityEngine15CloudWebService17CloudServiceEvent12ToJsonStringERN4core12basic_stringIcNS2_20StringStorageDefaultIcEEEEjPKc
3162:__ZN9JSONWrite8TransferIN11UnityEngine15CloudWebService17CloudServiceEvent8MsgValueEEEvRT_PKc17TransferMetaFlags
3163:__ZN9JSONWriteD2Ev
3164:__ZN11UnityEngine15CloudWebService14DataErrorEventC2Ev
3165:__ZN13dynamic_arrayIN11UnityEngine15CloudWebService14DataErrorEvent15FileErrorDetailELj0EE18resize_initializedEj12ResizePolicy
3166:__ZN11UnityEngine15CloudWebService16SessionContainer26FormatDataBlockAsJsonArrayERKN4core12basic_stringIcNS2_20StringStorageDefaultIcEEEES8_S6_RS6_
3167:__ZN11UnityEngine15CloudWebService16SessionContainer25GetSessionHeaderJsonArrayERKN4core12basic_stringIcNS2_20StringStorageDefaultIcEEEERNS2_13StringBuilderE
3168:__ZN11UnityEngine15CloudWebService16SessionContainer17CreateAndOpenFileERKN4core12basic_stringIcNS2_20StringStorageDefaultIcEEEES8_R12FileAccessor
3169:__ZN11UnityEngine15CloudWebService16SessionContainer21GetJsonArrayDataBlockEjRKN4core12basic_stringIcNS2_20StringStorageDefaultIcEEEES8_RS6_PjSA_
3170:__ZN11UnityEngine15CloudWebService16SessionContainer16GetJsonDataBlockEjRKN4core12basic_stringIcNS2_20StringStorageDefaultIcEEEERS6_PjSA_
3171:__ZN11UnityEngine15CloudWebService17SessionEventQueue19GetEventsAsJsonDataEjRN4core12basic_stringIcNS2_20StringStorageDefaultIcEEEEPjS8_
3172:__ZN11UnityEngine15CloudWebService17SessionEventQueue20GetEventsAsJsonArrayEjRN4core12basic_stringIcNS2_20StringStorageDefaultIcEEEEPjS8_
3173:__ZN11UnityEngine15CloudWebService16SessionContainer31HandleDeleteArchivedFolderErrorERKN4core12basic_stringIcNS2_20StringStorageDefaultIcEEEE
3174:__ZN11UnityEngine15CloudWebService16SessionContainer18DeleteArchivedFileERKN4core12basic_stringIcNS2_20StringStorageDefaultIcEEEES8_Rb
3175:__ZN11UnityEngine15CloudWebService16SessionContainer17ResetArchivedFileERKN4core12basic_stringIcNS2_20StringStorageDefaultIcEEEE
3176:__ZN11UnityEngine15CloudWebService17SessionEventQueue10SaveToFileER12FileAccessor
3177:__ZN11UnityEngine15CloudWebService17SessionEventQueue10PurgeItemsEj
3178:__ZN11UnityEngine15CloudWebService20WebRequestRestClientD2Ev
3179:__ZN11UnityEngine15CloudWebService10RestClientINS0_23WebRequestRestHeaderMapEE6SetUrlERKN4core12basic_stringIcNS4_20StringStorageDefaultIcEEEE
3180:__ZN11UnityEngine15CloudWebService10RestClientINS0_23WebRequestRestHeaderMapEE7SetDataEPKhj
3181:__ZN11UnityEngine15CloudWebService10RestClientINS0_23WebRequestRestHeaderMapEE13SetDownloaderERNS0_14RestDownloaderE
3182:__ZN11UnityEngine15CloudWebService10RestClientINS0_23WebRequestRestHeaderMapEE16SetRequestHeaderERKN4core12basic_stringIcNS4_20StringStorageDefaultIcEEEESA_
3183:__ZN11UnityEngine15CloudWebService10RestClientINS0_23WebRequestRestHeaderMapEE16GetRequestHeaderERKN4core12basic_stringIcNS4_20StringStorageDefaultIcEEEE
3184:__ZN11UnityEngine15CloudWebService10RestClientINS0_23WebRequestRestHeaderMapEE17GetResponseHeaderERKN4core12basic_stringIcNS4_20StringStorageDefaultIcEEEE
3185:__ZN11UnityEngine15CloudWebService10RestClientINS0_23WebRequestRestHeaderMapEED2Ev
3186:__Z7ToUpperIN4core12basic_stringIcNS0_20StringStorageDefaultIcEEEEET_RKS5_
3187:__ZN11UnityEngine15CloudWebService20WebRequestRestClient7CleanupEv
3188:__ZN11UnityEngine15CloudWebService20WebRequestRestClient10PerformGetEv
3189:__ZN11UnityEngine15CloudWebService20WebRequestRestClient11PerformPostEv
3190:__ZN11UnityEngine15CloudWebService20WebRequestRestClient6IsDoneEv
3191:__ZN11UnityEngine15CloudWebService20WebRequestRestClient5AbortEv
3192:__ZN11UnityEngine15CloudWebService20WebRequestRestClient17GetResponseStatusEv
3193:__ZN11UnityEngine15CloudWebService20WebRequestRestClient16SetRequestHeaderERKN4core12basic_stringIcNS2_20StringStorageDefaultIcEEEES8_
3194:__ZN11UnityEngine15CloudWebService20WebRequestRestClientD0Ev
3195:__ZN11UnityEngine15CloudWebService20WebRequestRestClient18GetEditableHeadersEv
3196:__ZN11UnityEngine15CloudWebService20WebRequestRestClient18GetResponseHeadersEv
3197:__ZN11UnityEngine15CloudWebService20WebRequestRestClient5BeginEv
3198:__ZN11UnityEngine15CloudWebService20WebRequestRestClient7PrepareEv
3199:__ZN11UnityEngine15CloudWebService25WebRequestDownloadHandlerD2Ev
3200:__ZN11UnityEngine15CloudWebService25WebRequestDownloadHandlerD0Ev
3201:__ZN11UnityEngine15CloudWebService25WebRequestDownloadHandler13OnReceiveDataEPKvj
3202:__ZN11UnityEngine15CloudWebService25WebRequestDownloadHandler22OnReceiveContentLengthEj
3203:__ZN11UnityEngine15CloudWebService25WebRequestDownloadHandler17OnCompleteContentEv
3204:__ZNK11UnityEngine15CloudWebService25WebRequestDownloadHandler13GetMemorySizeEv
3205:__ZNK11UnityEngine15CloudWebService25WebRequestDownloadHandler11GetProgressEv
3206:__ZN11UnityEngine15CloudWebService25WebRequestDownloadHandler7OnAbortEv
3207:__ZNK15DownloadHandler6IsDoneEv
3208:__ZN11UnityEngine15CloudWebService23WebRequestUploadHandlerD2Ev
3209:__ZN11UnityEngine15CloudWebService23WebRequestUploadHandlerD0Ev
3210:__ZN11UnityEngine15CloudWebService23WebRequestUploadHandler5ResetEv
3211:__ZN11UnityEngine15CloudWebService23WebRequestUploadHandler13TransmitBytesEPvjj
3212:__ZN11UnityEngine15CloudWebService23WebRequestUploadHandler13GetUploadDataERj
3213:__ZN11UnityEngine15CloudWebService23WebRequestUploadHandler17ConsumeUploadDataEj
3214:__ZNK11UnityEngine15CloudWebService23WebRequestUploadHandler15GetNumBytesLeftEv
3215:__ZN11UnityEngine15CloudWebService23WebRequestUploadHandler8GetBytesEv
3216:__ZNK11UnityEngine15CloudWebService23WebRequestUploadHandler12GetBytesSentEv
3217:__ZNK11UnityEngine15CloudWebService23WebRequestUploadHandler11GetProgressEv
3218:__ZN13UploadHandlerD2Ev
3219:__ZNSt3__24listIP19CloudServiceHandler13stl_allocatorIS2_L18MemLabelIdentifier88ELi16EEE6removeERKS2_
3220:__ZN11UnityEngine15CloudWebService19SessionEventManager5CloseEv
3221:__ZN11UnityEngine15CloudWebService14DataDispatcher5CloseEv
3222:__ZNSt3__26__treeINS_12__value_typeIN19CloudServiceHandler11ServiceTypeEPS2_EENS_19__map_value_compareIS3_S5_NS_4lessIS3_EELb1EEE13stl_allocatorIS5_L18MemLabelIdentifier88ELi16EEE12__find_equalIS3_EERPNS_16__tree_node_baseIPvEENS_21__tree_const_iteratorIS5_PNS_11__tree_nodeIS5_SG_EEiEERPNS_15__tree_end_nodeISI_EESJ_RKT_
3223:___cxx_global_var_init_771
3224:__GLOBAL__sub_I_Modules_CloudWebServices_Public_Session_0_cpp
3225:__ZN11UnityEngine15CloudWebService18RestFileDownloaderD2Ev
3226:__ZN11UnityEngine15CloudWebService18RestFileDownloaderD0Ev
3227:__ZN11UnityEngine15CloudWebService18RestFileDownloader13OnReceiveDataEPKvj
3228:__ZN11UnityEngine15CloudWebService18RestFileDownloader22OnReceiveContentLengthEj
3229:__ZN11UnityEngine15CloudWebService18RestFileDownloader17OnCompleteContentEv
3230:__ZN11UnityEngine15CloudWebService18RestFileDownloader7OnAbortEv
3231:__ZN11UnityEngine15CloudWebService14RestDownloader6IsDoneEv
3232:__ZN11UnityEngine15CloudWebService14RestDownloader9IsAbortedEv
3233:__ZN11UnityEngine15CloudWebService14RestDownloader9ClearDoneEv
3234:__ZN11UnityEngine15CloudWebService18RestFileDownloader10InitializeERKN4core12basic_stringIcNS2_20StringStorageDefaultIcEEEE
3235:__ZN11UnityEngine15CloudWebService18RestFileDownloader7OpenVFSEv
3236:__ZN11UnityEngine15CloudWebService26CloudServiceEventWithParamD2Ev
3237:__ZN11UnityEngine15CloudWebService26CloudServiceEventWithParamD0Ev
3238:__ZN11UnityEngine15CloudWebService26CloudServiceEventWithParam12ToJsonStringER9JSONWrite
3239:__ZN5Unity9rapidjson12GenericValueINS0_4UTF8IcEE13JSONAllocatorE9AddMemberENS0_16GenericStringRefIcEERS5_RS4_
3240:__ZN5Unity9rapidjson12GenericValueINS0_4UTF8IcEE13JSONAllocatorE8CopyFromIS4_EERS5_RKNS1_IS3_T_EERS4_
3241:__ZNK5Unity9rapidjson12GenericValueINS0_4UTF8IcEE13JSONAllocatorE6AcceptINS0_15GenericDocumentIS3_S4_NS0_12CrtAllocatorEEEEEbRT_
3242:__ZN5Unity9rapidjson15GenericDocumentINS0_4UTF8IcEE13JSONAllocatorNS0_12CrtAllocatorEE6StringEPKcjb
3243:__Z29GetCloudWebServicesModuleSpecv
3244:__Z18RegisterUnityClassI23CloudWebServicesManagerEvPKc
3245:__ZN13ProduceHelperI23CloudWebServicesManagerLb0EE7ProduceE10MemLabelId18ObjectCreationMode
3246:__ZN18BaseObjectInternal9NewObjectI23CloudWebServicesManagerEEP6Object10MemLabelId18ObjectCreationMode
3247:__ZZN23CloudWebServicesManagerC1E10MemLabelId18ObjectCreationModeEN44EarlyUpdateCloudWebServicesUpdateRegistrator7ForwardEv
3248:__ZN23CloudWebServicesManager17PlayerLoopHandlerEv
3249:__ZN19CloudServiceHandler34HandleSaveFileWebRequestPlayerLoopEv
3250:__ZN11UnityEngine15CloudWebService19SessionEventManager17PlayerLoopHandlerEv
3251:__ZN11UnityEngine15CloudWebService14DataDispatcher17PlayerLoopHandlerEv
3252:__ZN11UnityEngine15CloudWebService14DataDispatcher29PreformRetryWebDispatchStaticEPv
3253:__ZN11UnityEngine15CloudWebService14DataDispatcher23PreformRetryWebDispatchEv
3254:__ZN11UnityEngine15CloudWebService16SessionContainer18GetIndexFromDataIdEy
3255:__ZN11UnityEngine15CloudWebService19SessionEventManager37OnTimerExpiredPerformArchiveJobStaticEPv
3256:__ZN11UnityEngine15CloudWebService16SessionContainer7ArchiveEv
3257:__ZN11UnityEngine15CloudWebService17WebFileDownloaderINS0_20WebRequestRestClientENS0_23WebRequestRestHeaderMapEE24ExtractResponseEtagValueEv
3258:__Z31RegisterModule_CloudWebServicesv
3259:__ZN19CloudServiceHandlerC2Ev
3260:__ZN11UnityEngine15CloudWebService20WebRequestRestClientC2Ev
3261:__ZN11UnityEngine15CloudWebService14DataDispatcherC2ERNS0_11IRestClientE
3262:__ZN11UnityEngine15CloudWebService16SessionContainerC2Ev
3263:__ZN11UnityEngine15CloudWebService14RestDownloader13OnReceiveDataEPKvj
3264:__ZN11UnityEngine15CloudWebService14RestDownloader17OnCompleteContentEv
3265:__ZN11UnityEngine15CloudWebService14RestDownloader7OnAbortEv
3266:__ZN11UnityEngine15CloudWebService19SessionEventManagerC2Ev
3267:__ZN19CloudServiceHandler31SetICloudServiceHandlerListenerEP28ICloudServiceHandlerListener
3268:__ZN19CloudServiceHandler10InitializeERKN4core12basic_stringIcNS0_20StringStorageDefaultIcEEEENS_13InitModeFlagsE
3269:__ZN19CloudServiceHandler17InitServiceFolderENS_13InitModeFlagsE
3270:__ZN11UnityEngine15CloudWebService19SessionEventManager10InitializeERKN4core12basic_stringIcNS2_20StringStorageDefaultIcEEEEPNS0_18ICloudJobSchedulerE
3271:__ZN11UnityEngine15CloudWebService14DataDispatcher10InitializeERKN4core12basic_stringIcNS2_20StringStorageDefaultIcEEEEPvjRNS0_18ICloudJobSchedulerE
3272:__Z26GetCloudWebServicesManagerv
3273:__ZN19CloudServiceHandler6RetainEv
3274:__ZN19CloudServiceHandler7ReleaseEv
3275:__ZN19CloudServiceHandler17StartEventHandlerERKN4core12basic_stringIcNS0_20StringStorageDefaultIcEEEEii
3276:__ZN11UnityEngine15CloudWebService19SessionEventManager5StartERKN4core12basic_stringIcNS2_20StringStorageDefaultIcEEEEii
3277:__ZN19CloudServiceHandler17PauseEventHandlerEb
3278:__ZN11UnityEngine15CloudWebService19SessionEventManager5PauseEb
3279:__ZN11UnityEngine15CloudWebService19SessionEventManager27ProcessFlushEventsJobStaticEPv
3280:__ZN19CloudServiceHandler16StopEventHandlerEv
3281:__ZN11UnityEngine15CloudWebService19SessionEventManager4StopEv
3282:__ZN11UnityEngine15CloudWebService19SessionEventManager20ArchivePendingEventsEv
3283:__ZN19CloudServiceHandler20StartEventDispatcherERKN11UnityEngine15CloudWebService18CloudServiceConfigERNS1_23WebRequestRestHeaderMapE
3284:__ZN11UnityEngine15CloudWebService18CloudServiceConfigaSERKS1_
3285:__ZN11UnityEngine15CloudWebService14DataDispatcher5StartERKNS0_18CloudServiceConfigE
3286:__ZN11UnityEngine15CloudWebService14DataDispatcher37SetupSessionContainerToDispatchStaticEPv
3287:__ZN19CloudServiceHandler19StopEventDispatcherEv
3288:__ZN11UnityEngine15CloudWebService14DataDispatcher4StopEv
3289:__ZN19CloudServiceHandler22ResetNetworkRetryIndexEv
3290:__ZN11UnityEngine15CloudWebService14DataDispatcher22ResetNetworkRetryIndexEv
3291:__ZN19CloudServiceHandler10QueueEventEPN11UnityEngine15CloudWebService14CloudEventInfoE
3292:__ZN11UnityEngine15CloudWebService19SessionEventManager10QueueEventEPNS0_14CloudEventInfoE
3293:__ZN11UnityEngine15CloudWebService19SessionEventManager26ProcessEventQueueJobStaticEPv
3294:__ZN11UnityEngine15CloudWebService19SessionEventManager20ProcessEventQueueJobEPNS0_14CloudEventInfoE
3295:__ZN11UnityEngine15CloudWebService16SessionContainer8AddEventEPNS0_14CloudEventInfoE
3296:__ZN19CloudServiceHandler11FlushEventsEv
3297:__ZN11UnityEngine15CloudWebService14DataDispatcher39StartJobSetupSessionContainerToDispatchEv
3298:__ZN11UnityEngine15CloudWebService19SessionEventManager11FlushEventsEv
3299:__ZN19CloudServiceHandler18SaveFileFromServerERKN4core12basic_stringIcNS0_20StringStorageDefaultIcEEEES6_PN11UnityEngine15CloudWebService23WebRequestRestHeaderMapES6_
3300:__ZN11UnityEngine15CloudWebService18RestFileDownloaderC2EPNS0_23IRestDownloaderListenerE
3301:__ZN11UnityEngine15CloudWebService17WebFileDownloaderINS0_20WebRequestRestClientENS0_23WebRequestRestHeaderMapEED2Ev
3302:__ZN11UnityEngine15CloudWebService17WebFileDownloaderINS0_20WebRequestRestClientENS0_23WebRequestRestHeaderMapEED0Ev
3303:__ZN11UnityEngine15CloudWebService17WebFileDownloaderINS0_20WebRequestRestClientENS0_23WebRequestRestHeaderMapEE10InitializeERKN4core12basic_stringIcNS5_20StringStorageDefaultIcEEEE
3304:__ZN19CloudServiceHandler8SaveFileERKN4core12basic_stringIcNS0_20StringStorageDefaultIcEEEES6_
3305:__ZN19CloudServiceHandler8SaveFileERKN4core12basic_stringIcNS0_20StringStorageDefaultIcEEEEPKvj
3306:__ZN19CloudServiceHandler15RestoreDataFileERKN4core12basic_stringIcNS0_20StringStorageDefaultIcEEEERS4_
3307:__ZN19CloudServiceHandler20RestoreDataFileAsyncERKN4core12basic_stringIcNS0_20StringStorageDefaultIcEEEE
3308:__ZN23CloudWebServicesManager15GetCloudServiceEN19CloudServiceHandler11ServiceTypeE
3309:__ZNSt3__26__treeINS_12__value_typeIN19CloudServiceHandler11ServiceTypeEPS2_EENS_19__map_value_compareIS3_S5_NS_4lessIS3_EELb1EEE13stl_allocatorIS5_L18MemLabelIdentifier88ELi16EEE25__emplace_unique_key_argsIS3_JRKNS_21piecewise_construct_tENS_5tupleIJRKS3_EEENSI_IJEEEEEENS_4pairINS_15__tree_iteratorIS5_PNS_11__tree_nodeIS5_PvEEiEEbEERKT_DpOT0_
3310:__ZN11UnityEngine15CloudWebService17CloudServiceEventC2EPKcNS0_15CloudEventFlagsE
3311:__ZN11UnityEngine15CloudWebService26CloudServiceEventWithParamC2EPKcNS0_15CloudEventFlagsE
3312:__GLOBAL__sub_I_artifacts_WebGL_modules_Core_0_cpp
3313:__GLOBAL__sub_I_artifacts_WebGL_codegenerator_0_cpp
3314:__GLOBAL__sub_I_SpriteRendererJobs_cpp
3315:___cxx_global_var_init_17
3316:__GLOBAL__sub_I_Runtime_2D_Sorting_0_cpp
3317:___cxx_global_var_init_15
3318:__GLOBAL__sub_I_Runtime_2D_SpriteAtlas_0_cpp
3319:__GLOBAL__sub_I_Runtime_2D_SpriteTiling_0_cpp
3320:___cxx_global_var_init_3_798
3321:__GLOBAL__sub_I_Runtime_Allocator_1_cpp
3322:__GLOBAL__sub_I_Runtime_Allocator_2_cpp
3323:__GLOBAL__sub_I_Runtime_Application_0_cpp
3324:__GLOBAL__sub_I_Runtime_BaseClasses_0_cpp
3325:__GLOBAL__sub_I_Runtime_BaseClasses_1_cpp
3326:__GLOBAL__sub_I_Runtime_BaseClasses_2_cpp
3327:__GLOBAL__sub_I_Runtime_BaseClasses_3_cpp
3328:__GLOBAL__sub_I_Runtime_Burst_0_cpp
3329:__GLOBAL__sub_I_Runtime_Camera_0_cpp
3330:__GLOBAL__sub_I_Runtime_Camera_1_cpp
3331:__GLOBAL__sub_I_Runtime_Camera_2_cpp
3332:__GLOBAL__sub_I_Runtime_Camera_3_cpp
3333:__GLOBAL__sub_I_Runtime_Camera_4_cpp
3334:__GLOBAL__sub_I_Runtime_Camera_5_cpp
3335:__GLOBAL__sub_I_Runtime_Camera_6_cpp
3336:__GLOBAL__sub_I_Runtime_Camera_Culling_0_cpp
3337:___cxx_global_var_init_25
3338:__GLOBAL__sub_I_Runtime_Camera_RenderLayers_0_cpp
3339:__GLOBAL__sub_I_Runtime_Camera_RenderLoops_0_cpp
3340:__GLOBAL__sub_I_Runtime_Camera_RenderLoops_2_cpp
3341:__GLOBAL__sub_I_Runtime_Core_Callbacks_0_cpp
3342:__GLOBAL__sub_I_Runtime_Containers_0_cpp
3343:___cxx_global_var_init_35
3344:___cxx_global_var_init_36
3345:___cxx_global_var_init_37
3346:___cxx_global_var_init_38
3347:___cxx_global_var_init_39
3348:___cxx_global_var_init_40
3349:___cxx_global_var_init_41
3350:___cxx_global_var_init_42
3351:___cxx_global_var_init_43
3352:___cxx_global_var_init_44
3353:___cxx_global_var_init_45
3354:___cxx_global_var_init_46_799
3355:___cxx_global_var_init_47_800
3356:___cxx_global_var_init_48
3357:__GLOBAL__sub_I_Runtime_Director_Core_1_cpp
3358:__GLOBAL__sub_I_Runtime_GameCode_0_cpp
3359:__GLOBAL__sub_I_Runtime_Geometry_1_cpp
3360:__GLOBAL__sub_I_Runtime_Geometry_2_cpp
3361:__GLOBAL__sub_I_Runtime_Graphics_0_cpp
3362:__GLOBAL__sub_I_Runtime_Graphics_1_cpp
3363:___cxx_global_var_init_41_3369
3364:__GLOBAL__sub_I_Runtime_Graphics_2_cpp
3365:__GLOBAL__sub_I_Runtime_Graphics_5_cpp
3366:___cxx_global_var_init_17_3707
3367:__GLOBAL__sub_I_Runtime_Graphics_6_cpp
3368:__GLOBAL__sub_I_Runtime_Graphics_7_cpp
3369:__GLOBAL__sub_I_Runtime_Graphics_8_cpp
3370:__GLOBAL__sub_I_Runtime_Graphics_9_cpp
3371:__GLOBAL__sub_I_Runtime_Graphics_10_cpp
3372:__GLOBAL__sub_I_Runtime_Graphics_11_cpp
3373:__GLOBAL__sub_I_Runtime_Graphics_Billboard_0_cpp
3374:__GLOBAL__sub_I_Runtime_Graphics_CommandBuffer_0_cpp
3375:__GLOBAL__sub_I_Runtime_Graphics_LOD_0_cpp
3376:___cxx_global_var_init_46_5272
3377:__GLOBAL__sub_I_Runtime_Graphics_Mesh_0_cpp
3378:___cxx_global_var_init_90
3379:__GLOBAL__sub_I_Runtime_Graphics_Mesh_1_cpp
3380:__GLOBAL__sub_I_Runtime_Graphics_Mesh_3_cpp
3381:__GLOBAL__sub_I_Runtime_Graphics_Mesh_4_cpp
3382:__GLOBAL__sub_I_Runtime_Graphics_ScriptableRenderLoop_0_cpp
3383:__GLOBAL__sub_I_Runtime_Graphics_ScriptableRenderLoop_1_cpp
3384:__GLOBAL__sub_I_Runtime_Input_0_cpp
3385:__GLOBAL__sub_I_Runtime_Interfaces_0_cpp
3386:__GLOBAL__sub_I_Runtime_Interfaces_1_cpp
3387:__GLOBAL__sub_I_Runtime_Interfaces_2_cpp
3388:__GLOBAL__sub_I_Runtime_Jobs_0_cpp
3389:__GLOBAL__sub_I_Runtime_Jobs_1_cpp
3390:__GLOBAL__sub_I_Runtime_Jobs_ScriptBindings_0_cpp
3391:__GLOBAL__sub_I_Runtime_Logging_0_cpp
3392:__GLOBAL__sub_I_Runtime_Math_2_cpp
3393:__GLOBAL__sub_I_Runtime_Math_Random_0_cpp
3394:__GLOBAL__sub_I_Runtime_Misc_0_cpp
3395:___cxx_global_var_init_70
3396:__GLOBAL__sub_I_Runtime_Misc_1_cpp
3397:___cxx_global_var_init_163
3398:___cxx_global_var_init_164
3399:__GLOBAL__sub_I_Runtime_Misc_2_cpp
3400:___cxx_global_var_init_152
3401:__GLOBAL__sub_I_Runtime_Misc_3_cpp
3402:__GLOBAL__sub_I_Runtime_Misc_4_cpp
3403:___cxx_global_var_init_149
3404:___cxx_global_var_init_150
3405:___cxx_global_var_init_151
3406:___cxx_global_var_init_152_7802
3407:___cxx_global_var_init_153
3408:___cxx_global_var_init_154
3409:___cxx_global_var_init_155
3410:___cxx_global_var_init_156
3411:___cxx_global_var_init_157
3412:___cxx_global_var_init_158
3413:___cxx_global_var_init_159
3414:___cxx_global_var_init_160
3415:___cxx_global_var_init_161
3416:___cxx_global_var_init_162
3417:___cxx_global_var_init_163_7803
3418:___cxx_global_var_init_164_7804
3419:___cxx_global_var_init_165
3420:___cxx_global_var_init_166
3421:___cxx_global_var_init_167
3422:___cxx_global_var_init_168
3423:___cxx_global_var_init_169
3424:___cxx_global_var_init_170
3425:___cxx_global_var_init_171
3426:___cxx_global_var_init_172
3427:___cxx_global_var_init_173
3428:___cxx_global_var_init_174
3429:___cxx_global_var_init_175
3430:___cxx_global_var_init_176
3431:___cxx_global_var_init_177
3432:___cxx_global_var_init_178
3433:___cxx_global_var_init_179
3434:___cxx_global_var_init_180
3435:___cxx_global_var_init_181
3436:___cxx_global_var_init_182
3437:___cxx_global_var_init_183
3438:___cxx_global_var_init_184
3439:___cxx_global_var_init_185
3440:___cxx_global_var_init_186
3441:___cxx_global_var_init_187
3442:___cxx_global_var_init_188
3443:___cxx_global_var_init_189
3444:___cxx_global_var_init_190
3445:___cxx_global_var_init_191
3446:___cxx_global_var_init_192
3447:___cxx_global_var_init_193
3448:___cxx_global_var_init_194
3449:__GLOBAL__sub_I_Runtime_Misc_5_cpp
3450:__GLOBAL__sub_I_Runtime_Network_0_cpp
3451:__GLOBAL__sub_I_Runtime_Network_PlayerCommunicator_0_cpp
3452:__GLOBAL__sub_I_Runtime_PreloadManager_0_cpp
3453:__GLOBAL__sub_I_Runtime_Profiler_0_cpp
3454:__GLOBAL__sub_I_Runtime_Profiler_1_cpp
3455:__GLOBAL__sub_I_Runtime_Profiler_2_cpp
3456:__GLOBAL__sub_I_Runtime_SceneManager_0_cpp
3457:__GLOBAL__sub_I_Runtime_Shaders_0_cpp
3458:__GLOBAL__sub_I_Runtime_Shaders_1_cpp
3459:__GLOBAL__sub_I_Runtime_Shaders_2_cpp
3460:__GLOBAL__sub_I_Runtime_Shaders_GpuPrograms_0_cpp
3461:__GLOBAL__sub_I_Runtime_Shaders_ShaderImpl_0_cpp
3462:__GLOBAL__sub_I_Runtime_Shaders_ShaderImpl_1_cpp
3463:__GLOBAL__sub_I_Runtime_Streaming_0_cpp
3464:__GLOBAL__sub_I_Runtime_Streaming_1_cpp
3465:___cxx_global_var_init_13_801
3466:__GLOBAL__sub_I_Runtime_Transform_0_cpp
3467:__GLOBAL__sub_I_Runtime_Transform_1_cpp
3468:__GLOBAL__sub_I_Runtime_Utilities_2_cpp
3469:__GLOBAL__sub_I_Runtime_Utilities_4_cpp
3470:__GLOBAL__sub_I_Runtime_Utilities_5_cpp
3471:__GLOBAL__sub_I_Runtime_Utilities_6_cpp
3472:__GLOBAL__sub_I_Runtime_Utilities_7_cpp
3473:__GLOBAL__sub_I_Runtime_Utilities_8_cpp
3474:__GLOBAL__sub_I_Runtime_VirtualFileSystem_0_cpp
3475:__GLOBAL__sub_I_Runtime_VirtualFileSystem_1_cpp
3476:__GLOBAL__sub_I_Runtime_VirtualFileSystem_ArchiveFileSystem_0_cpp
3477:__GLOBAL__sub_I_AssetBundleFileSystem_cpp
3478:__GLOBAL__sub_I_Runtime_VirtualFileSystem_MemoryFileSystem_0_cpp
3479:__GLOBAL__sub_I_Runtime_Modules_0_cpp
3480:__GLOBAL__sub_I_Modules_Profiler_Public_0_cpp
3481:__GLOBAL__sub_I_Modules_Profiler_Runtime_0_cpp
3482:__GLOBAL__sub_I_Modules_Profiler_Dispatch_0_cpp
3483:___cxx_global_var_init_38_10468
3484:__GLOBAL__sub_I_Runtime_GfxDevice_0_cpp
3485:__GLOBAL__sub_I_Runtime_GfxDevice_1_cpp
3486:__GLOBAL__sub_I_Runtime_GfxDevice_2_cpp
3487:__GLOBAL__sub_I_Runtime_GfxDevice_3_cpp
3488:__GLOBAL__sub_I_Runtime_PluginInterface_0_cpp
3489:__GLOBAL__sub_I_Runtime_ScriptingBackend_Il2Cpp_0_cpp
3490:___cxx_global_var_init_105
3491:___cxx_global_var_init_106
3492:__GLOBAL__sub_I_Runtime_Scripting_0_cpp
3493:__GLOBAL__sub_I_Runtime_Scripting_3_cpp
3494:__GLOBAL__sub_I_Runtime_Mono_0_cpp
3495:__GLOBAL__sub_I_Runtime_Mono_SerializationBackend_DirectMemoryAccess_0_cpp
3496:__GLOBAL__sub_I_Runtime_Mono_SerializationBackend_DirectMemoryAccess_1_cpp
3497:__GLOBAL__sub_I_Runtime_Serialize_0_cpp
3498:__GLOBAL__sub_I_Runtime_Serialize_TransferFunctions_0_cpp
3499:__GLOBAL__sub_I_Runtime_Serialize_TransferFunctions_1_cpp
3500:__GLOBAL__sub_I_GfxDeviceNull_cpp
3501:__GLOBAL__sub_I_PlatformDependent_WebGL_Source_0_cpp
3502:__GLOBAL__sub_I_PlatformDependent_WebGL_Source_2_cpp
3503:__GLOBAL__sub_I_LineRenderer_cpp
3504:__GLOBAL__sub_I_TrailRenderer_cpp
3505:__GLOBAL__sub_I_SkinnedMeshRendererManager_cpp
3506:__GLOBAL__sub_I_Shader_cpp
3507:__GLOBAL__sub_I_Transform_cpp
3508:__GLOBAL__sub_I_SparseTextureGLES_cpp
3509:__GLOBAL__sub_I_TransformFeedbackSkinning_cpp
3510:__ZN13RuntimeStaticINSt3__23mapIy8TFShaderNS0_4lessIyEENS0_9allocatorINS0_4pairIKyS2_EEEEEELb0EE13StaticDestroyEPv
3511:__Z15strcpy_truncatePcPKcjj
3512:__ZN13RuntimeStaticINSt3__28multimapIj25DeferredSkinningOperationNS0_4lessIjEENS0_9allocatorINS0_4pairIKjS2_EEEEEELb0EE13StaticDestroyEPv
3513:__ZNSt3__26__treeINS_12__value_typeIj25DeferredSkinningOperationEENS_19__map_value_compareIjS3_NS_4lessIjEELb1EEENS_9allocatorIS3_EEE7destroyEPNS_11__tree_nodeIS3_PvEE
3514:__Z19free_alloc_internalPvRK10MemLabelId
3515:__Z15DestroyMemLabel18MemLabelIdentifier
3516:__ZN13MemoryManagerC2Ev
3517:__ZN13MemoryManager10DeallocateEPvRK10MemLabelId
3518:__ZN13MemoryManager10DeallocateEPv
3519:__ZN12TLSAllocatorI14StackAllocatorE13TryDeallocateEPv
3520:__Z19profiler_is_enabledv
3521:__Z31profiler_get_memory_record_modev
3522:__Z14profiler_beginPN9profiling6MarkerE
3523:__ZN13MemoryManager20RegisterDeallocationEPvRK10MemLabelIdPKc
3524:__Z12profiler_endPN9profiling6MarkerE
3525:__ZN9profiling16BufferSerializer16AcquireNewBufferEj
3526:__ZL21InvokeMarkerCallbacksPN9profiling6MarkerENS0_10SampleTypeE
3527:__ZNK9profiling6Marker18GetCallbackRelaxedEv
3528:__ZN14MemoryProfiler20UnregisterAllocationEPvjRK10MemLabelId
3529:__ZN14CallbackArray3IPvjPKcE6InvokeES0_jS2_
3530:_printf_console
3531:__Z15printf_consolev7LogTypePKcPi
3532:__Z16GetMemoryManagerv
3533:__ZN13MemoryManager12GetAllocatorERK10MemLabelId
3534:__ZN14StackAllocator13TryDeallocateEPv
3535:__ZN13MemoryManager25GetAllocatorContainingPtrEPKv
3536:__ZN13BaseAllocatorC2EPKc
3537:__Z6FormatPKcz
3538:__Z17DebugStringToFileRK21DebugStringToFileData
3539:__ZN13MemoryManager22LogAllocationToConsoleERKNS_20AllocationLogDetailsE
3540:__ZN13MemoryManager24LogDeallocationToConsoleEPvjPKc
3541:__Z21profiler_begin_objectPN9profiling6MarkerE10ProfilerID
3542:__Z20push_allocation_root10MemLabelIdb
3543:__Z40DebugStringToFilePostprocessedStacktraceRK21DebugStringToFileData
3544:__Z15malloc_internaljjRK10MemLabelId15AllocateOptionsPKci
3545:__Z13GetStacktracei
3546:__Z19pop_allocation_rootv
3547:__ZN14MemoryProfiler17PopAllocationRootEv
3548:__ZN13MemoryManager8AllocateEjjRK10MemLabelId15AllocateOptionsPKci
3549:__ZN13MemoryManager18RegisterAllocationERKNS_20AllocationLogDetailsE
3550:__ZN12TLSAllocatorI14StackAllocatorE8AllocateEji
3551:__ZL16OutOfMemoryErrorjjRK10MemLabelIdiPKc
3552:__Z12FormatBufferPciPKcz
3553:__ZN14StackAllocator8AllocateEji
3554:__ZN14MemoryProfiler18RegisterAllocationEPvRK10MemLabelIdPKcij
3555:__ZN15GlobalCallbacks3GetEv
3556:__Z15CleanLogHandler7LogTypePKcz
3557:__ZL20InternalErrorConsolePKcz
3558:__ZL21InternalAssertConsolePKcz
3559:__ZL22InternalWarningConsolePKcz
3560:__ZL18InternalLogConsolePKcz
3561:__ZN14MemoryProfiler18PushAllocationRootE10MemLabelIdb
3562:__ZnwjRK10MemLabelIdjPKci
3563:__Z16realloc_internalPvjjRK10MemLabelId15AllocateOptionsPKci
3564:__ZN13MemoryManager10ReallocateEPvjjRK10MemLabelId15AllocateOptionsPKci
3565:__ZN12TLSAllocatorI14StackAllocatorE10ReallocateEPvji
3566:__ZN23AllocationRootReference7ReleaseEv
3567:__ZN14StackAllocator10ReallocateEPvji
3568:__Z26profiler_begin_instance_idPN9profiling6MarkerEi
3569:__ZN20DynamicHeapAllocatorI17LowLevelAllocatorED2Ev
3570:__ZN20DynamicHeapAllocatorI17LowLevelAllocatorED0Ev
3571:__ZN20DynamicHeapAllocatorI17LowLevelAllocatorE8AllocateEji
3572:__ZN20DynamicHeapAllocatorI17LowLevelAllocatorE10ReallocateEPvji
3573:__ZN20DynamicHeapAllocatorI17LowLevelAllocatorE10DeallocateEPv
3574:__ZN20DynamicHeapAllocatorI17LowLevelAllocatorE13TryDeallocateEPv
3575:__ZNK20DynamicHeapAllocatorI17LowLevelAllocatorE8ContainsEPKv
3576:__ZNK20DynamicHeapAllocatorI17LowLevelAllocatorE10GetPtrSizeEPKv
3577:__ZN20DynamicHeapAllocatorI17LowLevelAllocatorE14CheckIntegrityEv
3578:__ZNK13BaseAllocator26GetPeakAllocatedMemorySizeEv
3579:__ZNK13BaseAllocator22GetNumberOfAllocationsEv
3580:__ZNK20DynamicHeapAllocatorI17LowLevelAllocatorE17GetProfilerHeaderEPKv
3581:__ZNK20DynamicHeapAllocatorI17LowLevelAllocatorE19GetRequestedPtrSizeEPKv
3582:__ZNK20DynamicHeapAllocatorI17LowLevelAllocatorE15WalkAllocationsEPFvPKvjPKPvjE
3583:__Z23EnumerateTlsfAllocationI20AllocationHeaderBaseI24NullAllocationSizeHeaderEEvPvjiS3_
3584:_tlsf_walk_heap
3585:_default_walker
3586:__Z22ValidateTlsfAllocationPvjiS_
3587:_tlsf_block_size
3588:_tlsf_free
3589:__ZN17LowLevelAllocator4FreeEPvj
3590:__ZN13MemoryManager12LowLevelFreeEPvj
3591:_tlsf_realloc_align
3592:_tlsf_memalign
3593:_block_trim_used
3594:_block_locate_free
3595:_block_prepare_used
3596:__ZN17LowLevelAllocator6MallocEj
3597:_tlsf_create
3598:__ZN13MemoryManager16LowLevelAllocateEj
3599:__ZN13BaseAllocator13TryDeallocateEPv
3600:__ZdlPv
3601:__Z22assign_allocation_rootPvjRK10MemLabelIdPKcS4_
3602:__ZN14MemoryProfiler22RegisterRootAllocationEPvj10MemLabelIdPKcS3_
3603:__ZN19dynamic_block_arrayI23AllocationRootReferenceLj1024EE12emplace_backEv
3604:__ZN19dynamic_block_arrayI23AllocationRootReferenceLj1024EE4growEj
3605:__Z21SetCurrentMemoryOwnerRK10MemLabelId
3606:__ZN14MemoryProfiler23GetCurrentRootReferenceEv
3607:__ZN35RegisterRuntimeInitializeAndCleanupC2EPFvPvES2_iS0_
3608:__ZNSt3__26__treeINS_12__value_typeIy8TFShaderEENS_19__map_value_compareIyS3_NS_4lessIyEELb1EEENS_9allocatorIS3_EEE7destroyEPNS_11__tree_nodeIS3_PvEE
3609:__ZN13RuntimeStaticINSt3__23mapI9TextureID21SparseTextureInfoGLESNS0_4lessIS2_EENS0_9allocatorINS0_4pairIKS2_S3_EEEEEELb0EE13StaticDestroyEPv
3610:__ZNSt3__26__treeINS_12__value_typeI9TextureID21SparseTextureInfoGLESEENS_19__map_value_compareIS2_S4_NS_4lessIS2_EELb1EEENS_9allocatorIS4_EEE7destroyEPNS_11__tree_nodeIS4_PvEE
3611:__ZN17MessageIdentifierC2EPKcNS_7OptionsEPKN5Unity4TypeES1_
3612:__ZL17InitializeMessagePv
3613:__ZN9profiling6MarkerC2EtPKcNS0_5FlagsE
3614:__ZN9profiling21GetProfilerManagerPtrEv
3615:__ZN9profiling15ProfilerManager22RegisterExternalMarkerEPNS_6MarkerE
3616:__ZN9profiling15ProfilerManager14RegisterMarkerEPNS_6MarkerEbb
3617:__ZN4core8hash_mapINS_12basic_stringIcNS_20StringStorageDefaultIcEEEEPN9profiling6MarkerENS_4hashIS4_EENSt3__28equal_toIS4_EEE6insertERKS4_RKS7_
3618:__ZN19dynamic_block_arrayIN9profiling15ProfilerManager13MarkerStorageELj1024EE12emplace_backIS2_EERS2_RKT_
3619:__ZN19dynamic_block_arrayIN9profiling15ProfilerManager13MarkerStorageELj1024EE4growEj
3620:__ZN4core8hash_setINS_4pairIKNS_12basic_stringIcNS_20StringStorageDefaultIcEEEEPN9profiling6MarkerELb1EEENS_9hash_pairINS_4hashIS5_EES6_S9_EENS_10equal_pairINSt3__28equal_toIS5_EES6_S9_EEE4growEi
3621:_XXH32
3622:__ZL19StaticDestroyShaderPv
3623:__ZN4core20StringStorageDefaultIcED2Ev
3624:__ZN12_GLOBAL__N_116StaticInitializeEPv
3625:__ZN12_GLOBAL__N_113StaticDestroyEPv
3626:__ZN21SystemInfoStringCache16StaticInitializeEPv
3627:__ZN21SystemInfoStringCache13StaticDestroyEPv
3628:__ZNSt3__26__treeINS_12__value_typeIN4core12basic_stringIcNS2_20StringStorageDefaultIcEEEE9PrefValueEENS_19__map_value_compareIS6_S8_NS_4lessIS6_EELb1EEENS_9allocatorIS8_EEE7destroyEPNS_11__tree_nodeIS8_PvEE
3629:__Znwj
3630:__ZL30InitializeGlobalNameConversionPv
3631:__ZL27CleanupGlobalNameConversionPv
3632:__ZNSt3__26__treeINS_12__value_typeINS_4pairIPcS3_EENS_3setIS3_15compare_tstringIPKcENS_9allocatorIS3_EEEEEENS_19__map_value_compareIS4_SD_20smaller_tstring_pairIS8_ELb1EEENSA_ISD_EEE7destroyEPNS_11__tree_nodeISD_PvEE
3633:__ZNSt3__26__treeIPc15compare_tstringIPKcENS_9allocatorIS1_EEE7destroyEPNS_11__tree_nodeIS1_PvEE
3634:__ZnwjRK10MemLabelIdjPKcS3_S3_i
3635:__ZN13RuntimeStaticINSt3__23mapINS0_4pairIPcS3_EEPFbPvR14SafeBinaryReadE20smaller_tstring_pairIPKcENS0_9allocatorINS2_IKS4_S9_EEEEEELb0EE13StaticDestroyES5_
3636:__ZNSt3__26__treeINS_12__value_typeINS_4pairIPcS3_EEPFbPvR14SafeBinaryReadEEENS_19__map_value_compareIS4_SA_20smaller_tstring_pairIPKcELb1EEENS_9allocatorISA_EEE7destroyEPNS_11__tree_nodeISA_S5_EE
3637:__Z50CreateTransferFunctionScriptingTraitsCacheInternalPv
3638:__Z49ClearTransferFunctionScriptingTraitsCacheInternalPv
3639:__Z41ClearTransferFunctionScriptingTraitsCachev
3640:__ZN13RuntimeStaticINSt3__23setIPFv17ScriptingClassPtrR23CachedSerializationDataRbENS0_4lessIS7_EENS0_9allocatorIS7_EEEELb0EE13StaticDestroyEPv
3641:__ZNSt3__26__treeIPFv17ScriptingClassPtrR23CachedSerializationDataRbENS_4lessIS6_EENS_9allocatorIS6_EEE7destroyEPNS_11__tree_nodeIS6_PvEE
3642:__ZL45StaticInitScriptingManagedObjectProxyRegistryPv
3643:__ZL48StaticDestroyScriptingManagedObjectProxyRegistryPv
3644:__ZN13RuntimeStaticINSt3__23mapIN4core12basic_stringIcNS2_20StringStorageDefaultIcEEEEPvNS0_4lessIS6_EENS0_9allocatorINS0_4pairIKS6_S7_EEEEEELb0EE13StaticDestroyES7_
3645:__ZNSt3__26__treeINS_12__value_typeIN4core12basic_stringIcNS2_20StringStorageDefaultIcEEEEPvEENS_19__map_value_compareIS6_S8_NS_4lessIS6_EELb1EEENS_9allocatorIS8_EEE7destroyEPNS_11__tree_nodeIS8_S7_EE
3646:__ZL24ClearRegisteredCallbacksPv
3647:__ZL32StaticInitializeIUnityInterfacesPv
3648:__ZL29StaticCleanupIUnityInterfacesPv
3649:__ZL30StaticInitializeIUnityGraphicsPv
3650:__ZL30StaticInitializeIUnityProfilerPv
3651:__ZL27StaticCleanupIUnityProfilerPv
3652:__ZN13RuntimeStaticI13dynamic_arrayI22RenderingExtPluginDescLj0EELb0EE16StaticInitializeEPv
3653:__ZN13RuntimeStaticI13dynamic_arrayI22RenderingExtPluginDescLj0EELb0EE13StaticDestroyEPv
3654:__ZN13RuntimeStaticI37UnityShaderCompilerExtPluginConfigureLb0EE16StaticInitializeEPv
3655:__ZN13RuntimeStaticI37UnityShaderCompilerExtPluginConfigureLb0EE10InitializeEv
3656:__ZN37UnityShaderCompilerExtPluginConfigure14ReserveKeywordEPKc
3657:__ZN37UnityShaderCompilerExtPluginConfigure25SetGPUProgramCompilerMaskEj
3658:__ZN37UnityShaderCompilerExtPluginConfigure20SetShaderProgramMaskEj
3659:__ZN8keywords6CreateEPKc
3660:__Z6StrCmpPKcS0_
3661:__Z27LogRepeatingStringWithFlagsRKN4core12basic_stringIcNS_20StringStorageDefaultIcEEEE15LogMessageFlagsi
3662:__ZNSt3__26__treeINS_12__value_typeIPKciEENS_19__map_value_compareIS3_S4_15compare_tstringIS3_ELb1EEENS_9allocatorIS4_EEE21__emplace_unique_implIJNS_4pairIPciEEEEENSD_INS_15__tree_iteratorIS4_PNS_11__tree_nodeIS4_PvEEiEEbEEDpOT_
3663:__ZNSt3__26__treeI19RepeatingLogMessageNS_4lessIS1_EE13stl_allocatorIS1_L18MemLabelIdentifier74ELi16EEE4findIS1_EENS_15__tree_iteratorIS1_PNS_11__tree_nodeIS1_PvEEiEERKT_
3664:__ZNSt3__26__treeI19RepeatingLogMessageNS_4lessIS1_EE13stl_allocatorIS1_L18MemLabelIdentifier74ELi16EEE12__find_equalIS1_EERPNS_16__tree_node_baseIPvEERPNS_15__tree_end_nodeISC_EERKT_
3665:__ZNSt3__26__treeI19RepeatingLogMessageNS_4lessIS1_EE13stl_allocatorIS1_L18MemLabelIdentifier74ELi16EEE16__construct_nodeIJRKS1_EEENS_10unique_ptrINS_11__tree_nodeIS1_PvEENS_22__tree_node_destructorIS4_ISE_LS5_74ELi16EEEEEEDpOT_
3666:__ZN13RuntimeStaticI13dynamic_arrayI19ShaderExtPluginDescLj0EELb0EE10InitializeEv
3667:__ZN24ProfilerCallbacksHandlerD2Ev
3668:__ZN24ProfilerCallbacksHandler22CreateCategoryCallbackEtPv
3669:__ZN9profiling15ProfilerManager29UnregisterNewCategoryCallbackEPFvtPvES1_
3670:__ZN24ProfilerCallbacksHandler19CreateEventCallbackEPN9profiling6MarkerEPv
3671:__ZN9profiling15ProfilerManager27UnregisterNewMarkerCallbackEPFvPNS_6MarkerEPvES3_
3672:__ZN9profiling15ProfilerManager24UnregisterMarkerCallbackEPNS_6Marker8CallbackEPS1_
3673:__ZN9profiling27GetBuiltinCategoryRgbaColorEt
3674:__ZN9profiling22GetBuiltinCategoryNameEt
3675:__ZN24ProfilerCallbacksHandlerC2E10MemLabelId
3676:__Z34RegisterCreateCategoryCallbackImplPFvPK25UnityProfilerCategoryDescPvES2_
3677:__Z36UnregisterCreateCategoryCallbackImplPFvPK25UnityProfilerCategoryDescPvES2_
3678:__Z31RegisterCreateEventCallbackImplPFvPK23UnityProfilerMarkerDescPvES2_
3679:__Z33UnregisterCreateEventCallbackImplPFvPK23UnityProfilerMarkerDescPvES2_
3680:__Z25RegisterEventCallbackImplPK23UnityProfilerMarkerDescPFvS1_ttPK23UnityProfilerMarkerDataPvES5_
3681:__Z27UnregisterEventCallbackImplPK23UnityProfilerMarkerDescPFvS1_ttPK23UnityProfilerMarkerDataPvES5_
3682:__Z25RegisterFrameCallbackImplPFvPvES_
3683:__Z27UnregisterFrameCallbackImplPFvPvES_
3684:__Z32RegisterCreateThreadCallbackImplPFvPK23UnityProfilerThreadDescPvES2_
3685:__Z34UnregisterCreateThreadCallbackImplPFvPK23UnityProfilerThreadDescPvES2_
3686:__ZN9profiling8Profiler27UnregisterNewThreadCallbackEPFvPK23UnityProfilerThreadDescPvES4_
3687:__ZN9profiling8Profiler25RegisterNewThreadCallbackEPFvPK23UnityProfilerThreadDescPvES4_
3688:__ZN9profiling15ProfilerManager26UnregisterNewFrameCallbackEPFvPvES1_
3689:__ZN9profiling15ProfilerManager24RegisterNewFrameCallbackEPFvPvES1_
3690:__ZN24ProfilerCallbacksHandler23UnregisterEventCallbackEPK23UnityProfilerMarkerDescPFvS2_ttPK23UnityProfilerMarkerDataPvES6_
3691:__ZN24ProfilerCallbacksHandler28RemoveCallbackFromAllMarkersEPFvPK23UnityProfilerMarkerDescttPK23UnityProfilerMarkerDataPvES6_R13dynamic_arrayINS_17EventCallbackDataELj0EE
3692:__ZN24ProfilerCallbacksHandler24RemoveCallbackFromMarkerEPK23UnityProfilerMarkerDescPFvS2_ttPK23UnityProfilerMarkerDataPvES6_R13dynamic_arrayINS_17EventCallbackDataELj0EE
3693:__ZN9profiling15ProfilerManager22RegisterMarkerCallbackEPNS_6Marker8CallbackEPS1_
3694:__ZN9profiling15ProfilerManager25RegisterNewMarkerCallbackEPFvPNS_6MarkerEPvES3_
3695:__ZN9profiling15ProfilerManager27RegisterNewCategoryCallbackEPFvtPvES1_
3696:__ZN24ProfilerCallbacksHandler13FrameCallbackEPv
3697:__ZL15GetRendererImplv
3698:__Z31RegisterDeviceEventCallbackImplPFv23UnityGfxDeviceEventTypeE
3699:__Z33UnregisterDeviceEventCallbackImplPFv23UnityGfxDeviceEventTypeE
3700:__ZL23ReserveEventIDRangeImpli
3701:__ZN17CallbackArrayBaseIPFv23UnityGfxDeviceEventTypeEPFvPKvS0_EE8RegisterES2_S6_S4_
3702:__ZNSt3__26__treeINS_12__value_typeI18UnityInterfaceGUIDP15IUnityInterfaceEENS_19__map_value_compareIS2_S5_NS_4lessIS2_EELb1EEE13stl_allocatorIS5_L18MemLabelIdentifier7ELi16EEE7destroyEPNS_11__tree_nodeIS5_PvEE
3703:__Z46get_current_allocation_root_reference_internalv
3704:__ZL16GetInterfaceImpl18UnityInterfaceGUID
3705:__ZL21GetInterfaceSplitImplyy
3706:__ZL21RegisterInterfaceImpl18UnityInterfaceGUIDP15IUnityInterface
3707:__ZL26RegisterInterfaceSplitImplyyP15IUnityInterface
3708:__ZNSt3__26__treeINS_12__value_typeI18UnityInterfaceGUIDP15IUnityInterfaceEENS_19__map_value_compareIS2_S5_NS_4lessIS2_EELb1EEE13stl_allocatorIS5_L18MemLabelIdentifier7ELi16EEE25__emplace_unique_key_argsIS2_JNS_4pairIS2_S4_EEEEENSF_INS_15__tree_iteratorIS5_PNS_11__tree_nodeIS5_PvEEiEEbEERKT_DpOT0_
3709:__ZL25CleanupTextureIDGeneratorPv
3710:__ZN33InstancedMeshIntermediateRenderer16StaticInitializeEPv
3711:__ZN33InstancedMeshIntermediateRenderer13StaticDestroyEPv
3712:__ZN32IndirectMeshIntermediateRenderer16StaticInitializeEPv
3713:__ZN32IndirectMeshIntermediateRenderer13StaticDestroyEPv
3714:__ZN10MemoryPoolD2Ev
3715:__ZN10MemoryPoolC2ERK10MemLabelIdbPKciii
3716:__ZN13HandleManager12ClearHandlesEv
3717:__ZN13HandleManagerC2Ev
3718:__ZN9ShaderLab16FastPropertyName4InitEPKc
3719:__Z20IsVectorBuiltinParamPKcPi
3720:__Z20IsMatrixBuiltinParamPKcPi
3721:__Z20IsTexEnvBuiltinParamPKcPi
3722:__ZNSt3__26__treeINS_12__value_typeIPKciEENS_19__map_value_compareIS3_S4_N9ShaderLab14CStringCompareELb1EEENS_9allocatorIS4_EEE21__emplace_unique_implIJNS_4pairIPciEEEEENSD_INS_15__tree_iteratorIS4_PNS_11__tree_nodeIS4_PvEEiEEbEEDpOT_
3723:__ZN10InstancingL16RegisterCallbackEPv
3724:__ZN10InstancingL18UnregisterCallbackEPv
3725:__ZN10InstancingL21OnGraphicsCapsChangedEv
3726:__Z15GetGraphicsCapsv
3727:__Z12GetGfxDevicev
3728:__ZN10BootConfig15GetGlobalConfigEv
3729:__ZN13RuntimeStaticI21ScalableBufferManagerLb0EE13StaticDestroyEPv
3730:__Z19CleanupTextureIdMapPv
3731:__ZNSt3__26__treeIP17RenderSurfaceBaseNS_4lessIS2_EENS_9allocatorIS2_EEE7destroyEPNS_11__tree_nodeIS2_PvEE
3732:__ZN13RuntimeStaticI13ModuleManagerLb0EE13StaticDestroyEPv
3733:__ZN12_GLOBAL__N_138ArchiveRedirectFileSystemStaticDestroyEPv
3734:__ZN9profiling7Marker3IN4core12basic_stringIcNS1_20StringStorageDefaultIcEEEEyyEC2EtPKcNS_6Marker5FlagsES8_S8_S8_
3735:__ZN9profiling7Marker3IN4core12basic_stringIcNS1_20StringStorageDefaultIcEEEExiEC2EtPKcNS_6Marker5FlagsES8_S8_S8_
3736:__ZN13RuntimeStaticINSt3__26vectorIN4core12basic_stringIcNS2_20StringStorageDefaultIcEEEENS0_9allocatorIS6_EEEELb0EE13StaticDestroyEPv
3737:__ZN13RuntimeStaticINSt3__23setI19RepeatingLogMessageNS0_4lessIS2_EE13stl_allocatorIS2_L18MemLabelIdentifier74ELi16EEEELb0EE13StaticDestroyEPv
3738:__ZN13RuntimeStaticI14CallbackArray1IbELb0EE16StaticInitializeEPv
3739:__ZN13RuntimeStaticI14CallbackArray1IbELb0EE13StaticDestroyEPv
3740:__ZN13RuntimeStaticI14CallbackArray1IbELb0EE10InitializeEv
3741:__ZNSt3__26__treeI19RepeatingLogMessageNS_4lessIS1_EE13stl_allocatorIS1_L18MemLabelIdentifier74ELi16EEE7destroyEPNS_11__tree_nodeIS1_PvEE
3742:__ZN12UnityVersionC2EPKc
3743:__ZN10MemoryPool16StaticInitializeEPv
3744:__ZN10MemoryPool13StaticDestroyEPv
3745:__Z15InitializeCRC32Pv
3746:__ZN13crc32_table_tILj79764919EE10init_tableEv
3747:__ZN9reflectorILj32EE7reflectEj
3748:__ZN13RuntimeStaticINSt3__28multimapIi25TransformAccessArrayEntryNS0_4lessIiEENS0_9allocatorINS0_4pairIKiS2_EEEEEELb0EE13StaticDestroyEPv
3749:__ZL36TransformAccessArray_InitializeClassPv
3750:__ZL33TransformAccessArray_CleanupClassPv
3751:__ZN32TransformHierarchyChangeDispatch15InitializeClassEPv
3752:__ZN32TransformHierarchyChangeDispatch12CleanupClassEPv
3753:__ZL29TransformAccessChangeCallbackPK15TransformAccessj
3754:__ZN32TransformHierarchyChangeDispatch14RegisterSystemENS_12InterestTypeEPFvPK15TransformAccessjE
3755:__ZL30TransformAccessDestroyCallbackPK15TransformAccessj
3756:__ZL20PatchTransformAccessiRK15TransformAccessb
3757:__ZNSt3__26__treeINS_12__value_typeIi25TransformAccessArrayEntryEENS_19__map_value_compareIiS3_NS_4lessIiEELb1EEENS_9allocatorIS3_EEE7destroyEPNS_11__tree_nodeIS3_PvEE
3758:__ZN23TransformChangeDispatch15InitializeClassEPv
3759:__ZN23TransformChangeDispatch12CleanupClassEPv
3760:__ZN13RuntimeStaticIN4core12basic_stringIcNS0_20StringStorageDefaultIcEEEELb0EE16StaticInitializeEPv
3761:__ZN13RuntimeStaticIN4core12basic_stringIcNS0_20StringStorageDefaultIcEEEELb0EE13StaticDestroyEPv
3762:__ZN9ShaderLabL25StaticInitializeShaderLabEPv
3763:__ZN9ShaderLabL22StaticDestroyShaderLabEPv
3764:__ZNSt3__25stackIPN9ShaderLab21SerializedShaderStateENS_5dequeIS3_NS_9allocatorIS3_EEEEED2Ev
3765:__ZN8keywords7CleanupEv
3766:__ZN9shadertag7CleanupEv
3767:__ZNSt3__26__treeINS_12__value_typeIPKc11ShaderTagIDEENS_19__map_value_compareIS3_S5_27compare_tstring_insensitiveIS3_ELb1EEENS_9allocatorIS5_EEE7destroyEPNS_11__tree_nodeIS5_PvEE
3768:__ZNSt3__26__treeINS_12__value_typeIPKciEENS_19__map_value_compareIS3_S4_15compare_tstringIS3_ELb1EEENS_9allocatorIS4_EEE7destroyEPNS_11__tree_nodeIS4_PvEE
3769:__ZN8keywords10InitializeEv
3770:__ZN9shadertag10InitializeEv
3771:__ZN9shadertag14GetShaderTagIDERKN4core12basic_stringIcNS0_20StringStorageDefaultIcEEEE
3772:__Z7StrICmpPKcS0_
3773:__ZNSt3__26__treeINS_12__value_typeIPKc11ShaderTagIDEENS_19__map_value_compareIS3_S5_27compare_tstring_insensitiveIS3_ELb1EEENS_9allocatorIS5_EEE21__emplace_unique_implIJNS_4pairIPcS4_EEEEENSE_INS_15__tree_iteratorIS5_PNS_11__tree_nodeIS5_PvEEiEEbEEDpOT_
3774:__ZN13RuntimeStaticIN4core12basic_stringIcNS0_20StringStorageDefaultIcEEEELb0EE10InitializeEv
3775:__ZN9ShaderLab19CommonPropertyNames16StaticInitializeEPv
3776:__ZN9ShaderLab19CommonPropertyNames13StaticCleanupEPv
3777:__ZNSt3__26__treeINS_12__value_typeIPKciEENS_19__map_value_compareIS3_S4_N9ShaderLab14CStringCompareELb1EEENS_9allocatorIS4_EEE7destroyEPNS_11__tree_nodeIS4_PvEE
3778:__Z30CleanupBuiltinShaderParamNamesv
3779:__Z33InitializeBuiltinShaderParamNamesv
3780:__ZN12_GLOBAL__N_115ParamNameLookup9AddArraysEPKNS_22BuiltinArrayParamIndexEj
3781:__ZNSt3__26__sortIRNS_6__lessIN12_GLOBAL__N_114ParamNameIndexES3_EEPS3_EEvT0_S7_T_
3782:__ZN12_GLOBAL__N_115ParamNameLookup15AddBuiltinNamesEPPKcjb
3783:__ZNSt3__27__sort3IRNS_6__lessIN12_GLOBAL__N_114ParamNameIndexES3_EEPS3_EEjT0_S7_S7_T_
3784:__ZNSt3__27__sort4IRNS_6__lessIN12_GLOBAL__N_114ParamNameIndexES3_EEPS3_EEjT0_S7_S7_S7_T_
3785:__ZNSt3__27__sort5IRNS_6__lessIN12_GLOBAL__N_114ParamNameIndexES3_EEPS3_EEjT0_S7_S7_S7_S7_T_
3786:__ZNSt3__227__insertion_sort_incompleteIRNS_6__lessIN12_GLOBAL__N_114ParamNameIndexES3_EEPS3_EEbT0_S7_T_
3787:__ZN23DefaultMeshVertexFormatC2E17ShaderChannelMask
3788:__ZL22InitializeGlobalCBKeysPv
3789:__ZN13RuntimeStaticI12GraphicsCapsLb0EE16StaticInitializeEPv
3790:__ZN13RuntimeStaticI12GraphicsCapsLb0EE13StaticDestroyEPv
3791:__ZN13RuntimeStaticI12GraphicsCapsLb0EE10InitializeEv
3792:__ZN12GraphicsCapsC2Ev
3793:__ZN16GraphicsCapsGLESC2Ev
3794:__ZL35StaticInitializeRuntimeSceneManagerPv
3795:__ZL32StaticDestroyRuntimeSceneManagerPv
3796:__ZN19RuntimeSceneManagerC2ERK10MemLabelId
3797:__Z28AllocateNextLowestInstanceIDv
3798:__ZN10UnityScene14SetPathAndGUIDERKN4core12basic_stringIcNS0_20StringStorageDefaultIcEEEERK9UnityGUID
3799:__ZL32MarkLevelGameManagerDependenciesR27GarbageCollectorThreadState
3800:__ZL16SceneWasUnloadedi
3801:__ZL18ActiveSceneChangedP10UnitySceneS0_
3802:__Z23GetCoreScriptingClassesv
3803:__ZN18ScriptingArguments9AddStructEPKv
3804:__ZN19ScriptingInvocation6InvokeEP21ScriptingExceptionPtrb
3805:__Z31scripting_invoke_profiler_begin18ScriptingMethodPtr17ScriptingClassPtrS_18ScriptingObjectPtr
3806:__Z23scripting_method_invoke18ScriptingMethodPtr18ScriptingObjectPtrR18ScriptingArgumentsP21ScriptingExceptionPtrb
3807:__ZN9Scripting12LogExceptionE21ScriptingExceptionPtriPKcb
3808:__Z30scripting_stack_trace_info_for21ScriptingExceptionPtrR14StackTraceInfo
3809:__ZN18ScriptingArguments9AddObjectE18ScriptingObjectPtr
3810:__ZN18ScriptingArguments12AddOutObjectEP18ScriptingObjectPtr
3811:__Z24scripting_cpp_string_for18ScriptingStringPtr
3812:__Z21PostprocessStacktracePKcRN4core12basic_stringIcNS1_20StringStorageDefaultIcEEEE
3813:__ZN18ScriptingArguments9AddStringEPKc
3814:__ZN18ScriptingArguments10AddBooleanEb
3815:__ZN19ScriptingInvocation6InvokeI18ScriptingStringPtrEET_P21ScriptingExceptionPtrb
3816:__Z20scripting_string_newPKc
3817:__Z18ConvertUTF16toUTF8PKtiPhRi
3818:__Z18ConvertUTF16toUTF8PPKtS0_PPhS2_15ConversionFlags
3819:__ZNK18ScriptingArguments8GetCountEv
3820:__Z26scripting_object_get_class18ScriptingObjectPtr
3821:__Z26scripting_class_has_parent17ScriptingClassPtrS_
3822:__ZN9Scripting32GetCachedPtrFromScriptingWrapperE18ScriptingObjectPtr
3823:__Z25scripting_method_get_name18ScriptingMethodPtr
3824:__ZN9profiling17ScriptingProfiler18GetOrCreateSamplerE18ScriptingMethodPtrPKc17ScriptingClassPtrS1_NS_6Marker5FlagsE
3825:__ZN4core8hash_mapIPK10MethodInfoPN9profiling6MarkerENS_4hashIS3_EENSt3__28equal_toIS3_EEE6insertERKS3_RKS6_
3826:__ZN9profiling17ScriptingProfiler28CreateScriptingMethodSamplerE10MemLabelId18ScriptingMethodPtrPKc17ScriptingClassPtrS2_NS_6Marker5FlagsE
3827:__Z26scripting_method_get_class18ScriptingMethodPtr
3828:__ZN9profiling15ProfilerManager17GetOrCreateMarkerEtRKN4core12basic_stringIcNS1_20StringStorageDefaultIcEEEENS_6Marker5FlagsE
3829:__ZNK4core8hash_setINS_4pairIKNS_12basic_stringIcNS_20StringStorageDefaultIcEEEEPN9profiling6MarkerELb1EEENS_9hash_pairINS_4hashIS5_EES6_S9_EENS_10equal_pairINSt3__28equal_toIS5_EES6_S9_EEE6lookupIS5_EEPNSK_4nodeERKT_
3830:__ZN9profiling6Marker6CreateE10MemLabelIdjtN4core16basic_string_refIcEENS0_5FlagsE
3831:__ZN19ScriptingInvocationC2E18ScriptingMethodPtr
3832:__ZN18ScriptingArgumentsC2Ev
3833:__ZL30InitializeCoreScriptingClassesv
3834:__ZL27CleanupCoreScriptingClassesv
3835:__Z27SetupModuleScriptingClassesPFvvES0_
3836:__Z12OptionalTypePKcS0_S0_
3837:__Z11RequireTypePKcS0_S0_
3838:__Z13RequireMethodPKcS0_S0_S0_
3839:__Z14OptionalMethodPKcS0_S0_S0_
3840:__ZN9Scripting9GetMethodE17ScriptingClassPtrPKc
3841:__Z36scripting_class_get_method_from_name17ScriptingClassPtrPKci
3842:__Z43scripting_class_get_method_from_name_filter17ScriptingClassPtrPKciN24ScriptingMethodFiltering18MethodSearchFilterEPK16ScriptingTypePtr
3843:__ZN24ScriptingMethodFiltering17FilterOnSignatureENS_18MethodSearchFilterE
3844:__ZN24ScriptingMethodFiltering36MethodDescriptionMatchesSearchFilterENS_18MethodSearchFilterEbi
3845:__Z29scripting_class_from_fullnamePKcS0_S0_
3846:__Z32scripting_class_get_nested_types17ScriptingClassPtrRNSt3__26vectorIS_13stl_allocatorIS_L18MemLabelIdentifier1ELi16EEEE
3847:__Z14GetMonoManagerv
3848:__ZN11MonoManager17GetScriptingClassEPKcS1_S1_
3849:__Z21GetManagerFromContexti
3850:__Z20MarkInstanceIDAsRootiR27GarbageCollectorThreadState
3851:__Z24GetLastPathNameComponentRKN4core12basic_stringIcNS_20StringStorageDefaultIcEEEE
3852:__Z23DeletePathNameExtensionRKN4core12basic_stringIcNS_20StringStorageDefaultIcEEEE
3853:__ZN19RuntimeSceneManagerD2Ev
3854:__ZN19RuntimeSceneManagerD0Ev
3855:__ZN19RuntimeSceneManager8GetSceneEi
3856:__ZN19RuntimeSceneManager11MergeScenesER10UnitySceneS1_
3857:__ZN19RuntimeSceneManager14CanUnloadSceneEP10UnityScene
3858:__ZN19RuntimeSceneManager19UnloadSceneInternalEP10UnityScene
3859:__ZN19RuntimeSceneManager20RemoveAndDeleteSceneEP10UnityScene
3860:__ZN19RuntimeSceneManager14SetActiveSceneER10UnityScene
3861:__Z22DestroyObjectHighLevelP6Objectb
3862:__Z31ReadObjectFromPersistentManageri
3863:__Z20GetPersistentManagerv
3864:__ZN17PersistentManager10ReadObjectEi17AwakeFromLoadMode
3865:__ZN17PersistentManager37RegisterPartiallyLoadedObjectInternalEi
3866:__Z63ThreadAndSerializationSafeCheckGetMonoBehaviourBeingTransferredv
3867:__Z63ThreadAndSerializationSafeCheckSetMonoBehaviourBeingTransferredP13MonoBehaviour
3868:__ZN17PersistentManager18ReadObjectThreadedEiNS_9LockFlagsE
3869:__ZN17PersistentManager32LoadRemainingPreallocatedObjectsENS_9LockFlagsE
3870:__ZN17PersistentManager27IntegrateAllThreadedObjectsEv
3871:__ZN18AwakeFromLoadQueueC2E10MemLabelId
3872:__ZN17PersistentManager32CopyToAwakeFromLoadQueueInternalER18AwakeFromLoadQueue
3873:__ZN18AwakeFromLoadQueue25RegisterObjectInstanceIDsEv
3874:__ZL20SortItemByInstanceIDRKN18AwakeFromLoadQueue4ItemES2_
3875:__ZNSt3__26__sortIRPFbRKN18AwakeFromLoadQueue4ItemES4_EPS2_EEvT0_S9_T_
3876:__Z24SetExecutionRestrictions21ExecutionRestrictions
3877:__ZN18AwakeFromLoadQueue28InvokePersistentManagerAwakeEPNS_4ItemEj17AwakeFromLoadMode
3878:__ZN18AwakeFromLoadQueueD2Ev
3879:__ZNSt3__27__sort4IRPFbRKN18AwakeFromLoadQueue4ItemES4_EPS2_EEjT0_S9_S9_S9_T_
3880:__ZNSt3__218__insertion_sort_3IRPFbRKN18AwakeFromLoadQueue4ItemES4_EPS2_EEvT0_S9_T_
3881:__ZNSt3__227__insertion_sort_incompleteIRPFbRKN18AwakeFromLoadQueue4ItemES4_EPS2_EEbT0_S9_T_
3882:__ZN6Object24RegisterInstanceIDNoLockEPS_
3883:__ZN4core8hash_setINS_4pairIKiP6ObjectLb0EEENS_9hash_pairINS_4hashIiEES2_S4_EENS_10equal_pairINSt3__28equal_toIiEES2_S4_EEE6insertERKS5_
3884:__Z24profiler_register_objectP6Object
3885:__ZN19MemoryProfilerStats14RegisterObjectEP6Object
3886:__Z19TestAndInsertObjectP6ObjectPKN5Unity4TypeER13dynamic_arrayIS0_Lj0EE
3887:__ZN18AwakeFromLoadQueue3AddER6ObjectPK8TypeTreeb17AwakeFromLoadMode
3888:__ZN18AwakeFromLoadQueue19DetermineQueueIndexEPKN5Unity4TypeER6Object
3889:__Z24GetExecutionOrderManagerv
3890:__ZNK21ExecutionOrderManager30GetCustomAwakeFromLoadQueueForEPKN5Unity4TypeE
3891:__ZNSt3__26__sortIRNS_6__lessI14ObjectLoadDataS2_EEPS2_EEvT0_S6_T_
3892:__ZN17PersistentManager29ReadAndActivateObjectThreadedEiRK26SerializedObjectIdentifierP14SerializedFilebbNS_9LockFlagsE
3893:__ZN17PersistentManager34GetSerializedFileIfObjectAvailableEixNS_9LockFlagsE
3894:__ZN17PersistentManager32CreateThreadActivationQueueEntryER14SerializedFile26SerializedObjectIdentifieribNS_9LockFlagsE
3895:__ZN14SerializedFile10ReadObjectEx18ObjectCreationModebPPK8TypeTreePbR6Object
3896:__ZN17PersistentManager23PostReadActivationQueueEiPK8TypeTreebNS_9LockFlagsE
3897:__Z16GenerateTypeTreeRK6ObjectR8TypeTree24TransferInstructionFlags
3898:__Z26IsStreamedBinaryCompatibleRK16TypeTreeIteratorS1_
3899:__ZN6Object15SetIsPersistentEb
3900:__ZN14SafeBinaryRead4InitERK16TypeTreeIteratorxx24TransferInstructionFlagsRK10MemLabelId
3901:__ZN12CachedReader8InitReadER15CacheReaderBasejj
3902:__ZN12CachedReader3EndEv
3903:__ZL23OutOfBoundsReadingErrorPKN5Unity4TypeEiiR6Object
3904:__ZN12CachedReader18InitResourceImagesER18ResourceImageGroup
3905:__ZN12CachedReaderC2Ev
3906:__ZN14SafeBinaryReadD2Ev
3907:__ZNK10MonoScript22GetScriptFullClassNameEv
3908:__ZN12CachedReader16OutOfBoundsErrorEjj
3909:__ZN14SafeBinaryReadC2Ev
3910:__Z27profiler_change_persistenceibb
3911:__ZN19MemoryProfilerStats21ChangePersistenceFlagEibb
3912:__ZN8TypeTreeaSEOS_
3913:__ZN17ScriptingGCHandle28ResolveBackendNativeGCHandleEj
3914:__Z29scripting_class_instance_size17ScriptingClassPtr
3915:__ZN24GenerateTypeTreeTransfer18SetScriptingObjectE18ScriptingObjectPtri
3916:__ZN24GenerateTypeTreeTransferC2ER8TypeTree24TransferInstructionFlagsPvi
3917:__ZN8TypeTreeC2ERK10MemLabelId
3918:__ZN17PersistentManager13ProduceObjectER14SerializedFile26SerializedObjectIdentifieri18ObjectCreationModeNS_9LockFlagsE
3919:__ZN4core8hash_mapIi17ThreadedAwakeDataNS_4hashIiEENSt3__28equal_toIiEEE6insertERKiRKS1_
3920:__ZN4core8hash_setINS_4pairIKi17ThreadedAwakeDataLb0EEENS_9hash_pairINS_4hashIiEES2_S3_EENS_10equal_pairINSt3__28equal_toIiEES2_S3_EEE4growEi
3921:__ZN6Object7ProduceEPKN5Unity4TypeES3_i10MemLabelId18ObjectCreationMode
3922:__ZN17PersistentManager43LocalSerializedObjectIdentifierToInstanceIDEiRK31LocalSerializedObjectIdentifierRiNS_9LockFlagsE
3923:__ZN17PersistentManager22GetFromActivationQueueEiNS_9LockFlagsE
3924:__ZN10MonoScript8GetClassEv
3925:__ZN13MonoBehaviour19RebuildMonoInstanceE17ScriptingClassPtr18ScriptingObjectPtrP10MonoScript
3926:__ZN9Scripting31ConnectScriptingWrapperToObjectE18ScriptingObjectPtrP6Object
3927:__ZN9Scripting30SetCachedPtrOnScriptingWrapperE18ScriptingObjectPtrP6Object
3928:__ZNK15MonoScriptCache7ReleaseEv
3929:__Z27FindOrCreateMonoScriptCache17ScriptingClassPtr22InitScriptingCacheTypeP6Objecti
3930:__ZNK15MonoScriptCache6RetainEv
3931:__Z14IsWorldPlayingv
3932:__Z17IsValidScriptType14MonoScriptType
3933:__ZN13MonoBehaviour22GetScriptFullClassNameEv
3934:__Z21FormatScriptTypeError14MonoScriptTypeRKN4core12basic_stringIcNS0_20StringStorageDefaultIcEEEE
3935:__Z64scripting_unity_engine_object_new_and_invoke_default_constructor17ScriptingClassPtrP6ObjectP21ScriptingExceptionPtr
3936:__ZN16ScriptingManager19RegisterScriptCacheEP15MonoScriptCache
3937:__ZNSt3__26__treeINS_12__value_typeIiP15MonoScriptCacheEENS_19__map_value_compareIiS4_NS_4lessIiEELb1EEE13stl_allocatorIS4_L18MemLabelIdentifier79ELi16EEE25__emplace_unique_key_argsIiJRKNS_21piecewise_construct_tENS_5tupleIJRKiEEENSH_IJEEEEEENS_4pairINS_15__tree_iteratorIS4_PNS_11__tree_nodeIS4_PvEEiEEbEERKT_DpOT0_
3938:__ZN16ScriptingManager18GetMonoScriptCacheEi
3939:__Z18BuildScriptClassId17ScriptingClassPtr
3940:__Z21CreateMonoScriptCacheRKN4core12basic_stringIcNS_20StringStorageDefaultIcEEEE17ScriptingClassPtr22InitScriptingCacheTypeP6Objecti
3941:__Z27scripting_class_is_abstract17ScriptingClassPtr
3942:__Z26scripting_class_is_generic17ScriptingClassPtr
3943:__Z27scripting_class_is_inflated17ScriptingClassPtr
3944:__Z30scripting_class_is_subclass_of17ScriptingClassPtrS_
3945:__ZN14MessageHandler3GetEv
3946:__Z27scripting_class_get_methods17ScriptingClassPtrRNSt3__26vectorI18ScriptingMethodPtr13stl_allocatorIS2_L18MemLabelIdentifier1ELi16EEEE
3947:__Z26scripting_class_get_parent17ScriptingClassPtr
3948:__Z28scripting_method_is_instancePK10MethodInfo
3949:__ZNSt3__26__treeINS_12__value_typeIPKc18ScriptingMethodPtrEENS_19__map_value_compareIS3_S5_14CStringCompareLb1EEE13stl_allocatorIS5_L18MemLabelIdentifier1ELi16EEE25__emplace_unique_key_argsIS3_JRKNS_21piecewise_construct_tENS_5tupleIJOS3_EEENSH_IJEEEEEENS_4pairINS_15__tree_iteratorIS5_PNS_11__tree_nodeIS5_PvEEiEEbEERKT_DpOT0_
3950:__Z35scripting_method_get_argument_count18ScriptingMethodPtr
3951:__Z31scripting_method_get_returntype18ScriptingMethodPtr
3952:__Z25scripting_class_from_type16ScriptingTypePtr
3953:__ZNSt3__26__treeINS_12__value_typeIPKc18ScriptingMethodPtrEENS_19__map_value_compareIS3_S5_14CStringCompareLb1EEE13stl_allocatorIS5_L18MemLabelIdentifier1ELi16EEE7destroyEPNS_11__tree_nodeIS5_PvEE
3954:__ZN14MessageHandler28MessageIDToMessageIdentifierEi
3955:__Z37scripting_method_get_nth_argumenttype18ScriptingMethodPtri
3956:__Z25GetCommonScriptingClassesv
3957:__ZN16ScriptingManager27NativeTypeForScriptingClassE17ScriptingClassPtr
3958:__ZN9Scripting25GetTypeFromScriptingClassE17ScriptingClassPtr
3959:__Z26GetManagedAttributeManagerv
3960:__ZN23ManagedAttributeManager24GetDefaultExecutionOrderE17ScriptingClassPtr
3961:__ZN23ManagedAttributeManager35CallManagedGetDefaultExecutionOrderE17ScriptingClassPtr
3962:__Z26scripting_class_get_object17ScriptingClassPtr
3963:__ZN19ScriptingInvocation6InvokeIiEET_P21ScriptingExceptionPtrb
3964:__ZN5Unity4Type14FindTypeByNameEPKcNS0_22CaseSensitivityOptionsE
3965:__ZNK11TypeManager15ClassNameToRTTIEPKcb
3966:__ZNK4core8hash_setINS_4pairIKPKcPK4RTTILb0EEENS_9hash_pairIN11TypeManager23ConstCharPtrHashFunctorES4_S7_EENS_10equal_pairINSA_19ConstCharPtrEqualToES4_S7_EEE6lookupIS3_EEPNSG_4nodeERKT_
3967:__ZN17MessageIdentifier21GetRegisteredMessagesEv
3968:__Z33RenderImageFilterValidateCallback18ScriptingMethodPtr17ScriptingClassPtrP6Object
3969:__Z31AudioFilterReadValidateCallback18ScriptingMethodPtr17ScriptingClassPtrP6Object
3970:__Z21CheckMethodParameters18ScriptingMethodPtr17ScriptingClassPtrPS0_jP6ObjectR11MonoManager
3971:__Z26GetScriptClassIdComponents17ScriptingClassPtrRN4core17string_with_labelILi1EEES3_S3_
3972:__Z34scripting_class_get_declaring_type17ScriptingClassPtr
3973:__Z32scripting_class_get_assemblyname17ScriptingClassPtr
3974:__ZL21AppendNestedClassName17ScriptingClassPtrRN4core17string_with_labelILi1EEE
3975:__ZN16ScriptingManager24NotifyScriptCacheReleaseEi
3976:__ZNSt3__26__treeINS_12__value_typeIiP15MonoScriptCacheEENS_19__map_value_compareIiS4_NS_4lessIiEELb1EEE13stl_allocatorIS4_L18MemLabelIdentifier79ELi16EEE14__erase_uniqueIiEEjRKT_
3977:__ZN8Remapper23GetOrGenerateInstanceIDERK26SerializedObjectIdentifier
3978:__ZN17PersistentManager25PreallocateObjectThreadedEiNS_9LockFlagsE
3979:__ZN17PersistentManager22MakeObjectUnpersistentEi13UnpersistMode
3980:__Z28delete_object_internal_step1P6Object
3981:__Z26profiler_unregister_objectP6Object
3982:__Z15GetEventManagerv
3983:__ZN12EventManager11InvokeEventEP10EventEntryPvi
3984:__ZN12EventManager11RemoveEventEP10EventEntry
3985:__ZN10MemoryPool10DeallocateEPv
3986:__ZN19MemoryProfilerStats16UnregisterObjectEP6Object
3987:__ZN17PersistentManager15DestroyFromFileEi
3988:__ZN8Remapper6RemoveEi
3989:__ZN17PersistentManager26GetStreamNameSpaceInternalEi
3990:__ZN17PersistentManager19RemapToAbsolutePathERKN4core12basic_stringIcNS0_20StringStorageDefaultIcEEEE
3991:__Z13IsFileCreatedRKN4core12basic_stringIcNS_20StringStorageDefaultIcEEEE
3992:__Z14CreateMemLabel18MemLabelIdentifierPv
3993:__ZN14SerializedFile10ReadHeaderEv
3994:__ZN14SerializedFileD2Ev
3995:__ZN17PersistentManager31PostLoadStreamNameSpaceInternalER15StreamNameSpacei
3996:__ZNSt3__26vectorINS_4pairIiiEE13stl_allocatorIS2_L18MemLabelIdentifier38ELi16EEE6insertENS_11__wrap_iterIPKS2_EEOS2_
3997:__ZNSt3__214__split_bufferINS_4pairIiiEER13stl_allocatorIS2_L18MemLabelIdentifier38ELi16EEE9push_backEOS2_
3998:__ZN18ResourceImageGroup7CleanupEv
3999:__ZN19dynamic_block_arrayI14FileIdentifierLj1024EED2Ev
4000:__ZN14SerializedFile14SerializedTypeD2Ev
4001:__ZN13ResourceImageD2Ev
4002:__Z13ReadFileCacheR15CacheReaderBasePvjj
4003:__ZN14SerializedFile12ReadMetadataILb0EEEbijPKhjj
4004:__ZN14SerializedFile12ReadMetadataILb1EEEbijPKhjj
4005:__ZN14SerializedFile27PatchRemapDeprecatedClassesEv
4006:__ZN5Unity4Type26FindTypeByPersistentTypeIDEi
4007:__ZN5Unity4Type41GetDeserializationStubForPersistentTypeIDEi
4008:__ZL38FindOrCreateSerializedTypeForUnityTypeR13dynamic_arrayIN14SerializedFile14SerializedTypeELj0EEPKN5Unity4TypeEbsi
4009:__ZN11TypeManager45GetDeserializationRTTIStubForPersistentTypeIDEi
4010:__ZNK11TypeManager22PersistentTypeIDToRTTIEi
4011:__ZN13dynamic_arrayIN14SerializedFile14SerializedTypeELj0EE18resize_initializedEjRKS1_12ResizePolicy
4012:__ZN14SerializedFile14SerializedType8ReadTypeILb1EEEbibRPKhS3_Pi
4013:__ZL26ExtractScriptTypeReferenceRK16TypeTreeIteratorjR15CacheReaderBasebR31LocalSerializedObjectIdentifier
4014:__ZNSt3__26vectorINS_4pairIxN14SerializedFile10ObjectInfoEEENS_9allocatorIS4_EEE21__push_back_slow_pathIS4_EEvOT_
4015:__ZN19dynamic_block_arrayI14FileIdentifierLj1024EE28resize_with_resizer_internalINS1_20ResizerWithNoDefaultEEEvjRKT_
4016:__ZNSt3__26__treeINS_12__value_typeIiiEENS_19__map_value_compareIiS2_NS_4lessIiEELb1EEENS_9allocatorIS2_EEE7destroyEPNS_11__tree_nodeIS2_PvEE
4017:__ZN19dynamic_block_arrayI14FileIdentifierLj1024EE4growEj
4018:__ZN13dynamic_arrayI14FileIdentifierLj0EE18resize_initializedEj12ResizePolicy
4019:__ZN8TypeTree8BlobReadERPKhS1_ib
4020:__ZL16ReadTypeTreeImplILb1EEbR8TypeTreeRK16TypeTreeIteratorRPKhS6_i
4021:__ZL12CreateStringPjR13dynamic_arrayIcLj0EEPKc
4022:__ZN8TypeTree8AddChildEj
4023:__Z20GetCommonStringTablev
4024:__ZNK17CommonStringTable16FindCommonStringEPKc
4025:__ZN14SerializedFile14SerializedType8ReadTypeILb0EEEbibRPKhS3_Pi
4026:__ZL16ReadTypeTreeImplILb0EEbR8TypeTreeRK16TypeTreeIteratorRPKhS6_i
4027:__ZN14FileCacherReadC2E10MemLabelIdRKN4core12basic_stringIcNS1_20StringStorageDefaultIcEEEEjb
4028:__Z18PathToAbsolutePathRKN4core12basic_stringIcNS_20StringStorageDefaultIcEEEE
4029:__ZNK15FileSystemEntry4SizeEv
4030:__ZN13FileEntryDataD2Ev
4031:__ZN15FileSystemEntryC2EPKc
4032:__ZN15FileSystemEntry3SetEPKc
4033:__Z24ConvertSeparatorsToUnityPc
4034:__Z13GetFileSystemv
4035:__ZNK10FileSystem10ToAbsoluteEPKc
4036:__ZN14FileCacherReadD2Ev
4037:__ZN14FileCacherReadD0Ev
4038:__ZN14FileCacherRead10DirectReadEPvjj
4039:__ZN14FileCacherRead14LockCacheBlockEjPPhS1_
4040:__ZN14FileCacherRead16UnlockCacheBlockEj
4041:__ZN14FileCacherRead11GetPathNameEv
4042:__ZN15CacheReaderBase18GetAddressOfMemoryEv
4043:__ZN14FileCacherRead12RequestBlockEi
4044:__Z16AsyncReadRequestP16AsyncReadCommand
4045:__ZN13OpenFileCache10OpenCachedERKN4core12basic_stringIcNS0_20StringStorageDefaultIcEEEE
4046:__ZN4File4ReadEyPvj
4047:__ZN12FileAccessor4ReadEyyPvPy
4048:__Z23profiler_begin_metadataPN9profiling6MarkerEj
4049:__Z21profiler_add_metadataRKN4core12basic_stringIcNS_20StringStorageDefaultIcEEEE
4050:__Z21profiler_add_metadatay
4051:__ZN9profiling8Profiler12EmitMetaDataEy
4052:__ZN9profiling8Profiler12EmitMetaDataERKN4core12basic_stringIcNS1_20StringStorageDefaultIcEEEE
4053:__ZN9profiling8Profiler22EmitSampleWithMetadataEjNS_5proto11MessageTypeEj
4054:__ZN4File7IsValidEv
4055:__ZN4File5CloseEv
4056:__ZN4File4OpenERKN4core12basic_stringIcNS0_20StringStorageDefaultIcEEEENS_10PermissionENS_12AutoBehaviorE
4057:__ZN4File19OpenFileSystemEntryERK15FileSystemEntryNS_10PermissionENS_12AutoBehaviorE
4058:__ZN12FileAccessor5CloseEv
4059:__ZN13FileEntryDataaSERKS_
4060:__ZN12FileAccessor4OpenER15FileSystemEntry14FilePermission16FileAutoBehavior
4061:__ZN12FileAccessorC2Ev
4062:__ZN12FileAccessorD2Ev
4063:__ZN12FileAccessorD0Ev
4064:__ZNK15FileSystemEntry4PathEv
4065:__Z23AsyncReadForceCloseFileRKN4core12basic_stringIcNS_20StringStorageDefaultIcEEEE
4066:__ZN13OpenFileCache10ForceCloseERKN4core12basic_stringIcNS0_20StringStorageDefaultIcEEEE
4067:__ZNK15FileSystemEntry5IsDirEv
4068:__ZNK15FileSystemEntry6ExistsEv
4069:__ZNSt3__27__sort4IRNS_6__lessI14ObjectLoadDataS2_EEPS2_EEjT0_S6_S6_S6_T_
4070:__ZNSt3__27__sort5IRNS_6__lessI14ObjectLoadDataS2_EEPS2_EEjT0_S6_S6_S6_S6_T_
4071:__ZNSt3__218__insertion_sort_3IRNS_6__lessI14ObjectLoadDataS2_EEPS2_EEvT0_S6_T_
4072:__ZNSt3__227__insertion_sort_incompleteIRNS_6__lessI14ObjectLoadDataS2_EEPS2_EEbT0_S6_T_
4073:__ZN6Object18RegisterInstanceIDEPS_
4074:__Z24GetExecutionRestrictionsv
4075:__Z19CanReplaceComponentRN5Unity9ComponentEPKNS_4TypeEPN4core12basic_stringIcNS5_20StringStorageDefaultIcEEEE
4076:__ZNK10GameObject8IsActiveEv
4077:__ZN10GameObject17GetComponentIndexEPN5Unity9ComponentE
4078:__ZN10GameObject22RemoveComponentAtIndexEi
4079:__Z19DestroySingleObjectP6Object
4080:__ZNK10GameObject20QueryComponentByTypeEPKN5Unity4TypeE
4081:__Z26DestroyGameObjectHierarchyR10GameObject
4082:__Z15GetIAssetBundlev
4083:__ZN10GameObject10DeactivateE19DeactivateOperation
4084:__ZL19PreDestroyRecursiveR10GameObjectPj
4085:__ZN9Transform16RemoveFromParentENS_20RemoveFromParentModeE
4086:__Z17CreateBatchDeleteR11BatchDeletej
4087:__ZL26DestroyGameObjectRecursiveR10GameObjectR11BatchDelete
4088:__Z17CommitBatchDeleteR11BatchDelete
4089:__Z28delete_object_internal_step2P6Object
4090:__Z21CompleteFenceInternalR8JobFence
4091:__ZN32TransformHierarchyChangeDispatch26DispatchSelfAndAllChildrenE15TransformAccessNS_12InterestTypeE
4092:__ZN17TransformInternal20FreeTransformHandlesER18TransformHierarchyi
4093:__ZN17TransformInternal21DetachTransformThreadER18TransformHierarchyjj
4094:__ZN17TransformInternal19FreeTransformThreadER18TransformHierarchyjj
4095:__ZN17TransformInternal27UpdateDeepChildCountUpwardsER18TransformHierarchyii
4096:__ZN32TransformHierarchyChangeDispatch22DispatchSelfAndParentsE15TransformAccessNS_12InterestTypeE
4097:__ZN5Unity9Component14SendMessageAnyERK17MessageIdentifierR11MessageData
4098:__ZN10GameObject14SendMessageAnyERK17MessageIdentifierR11MessageData
4099:__ZN16MessageForwarder13HandleMessageEPviR11MessageData
4100:__ZN10GameObject21WillDestroyGameObjectEv
4101:__ZN10GameObject32ActivateAwakeRecursivelyInternalE19DeactivateOperationR18AwakeFromLoadQueue
4102:__ZN18AwakeFromLoadQueue13AwakeFromLoadE17AwakeFromLoadModeb
4103:__ZL53SortBehaviourItemByExecutionOrderAndReverseInstanceIDRKN18AwakeFromLoadQueue4ItemES2_
4104:__ZNK21ExecutionOrderManager23GetScriptExecutionOrderEiPKN5Unity4TypeE
4105:__ZNK13MonoBehaviour17GetExecutionOrderEv
4106:__ZN10GameObject18UpdateActiveGONodeEv
4107:__ZNK13MonoBehaviour8GetClassEv
4108:__Z34FindRequiredComponentsForComponentPKN5Unity4TypeE
4109:__Z24GetComponentOrScriptNameRN5Unity9ComponentE
4110:__ZN13MonoBehaviour18GetScriptClassNameEv
4111:__Z6AppendRKN4core12basic_stringIcNS_20StringStorageDefaultIcEEEEPKc
4112:__Z25InitComponentRequirementsv
4113:__ZNSt3__26__treeINS_12__value_typeIPKN5Unity4TypeE10vector_setIS5_NS_4lessIS5_EENS_9allocatorIS5_EEEEENS_19__map_value_compareIS5_SC_S8_Lb1EEENS9_ISC_EEE7destroyEPNS_11__tree_nodeISC_PvEE
4114:__Z17GetCoreModuleSpecv
4115:__Z38InitComponentRequirementsForModuleSpecRK10ModuleSpec
4116:__ZN13ModuleManager3GetEv
4117:__ZNK5Unity4Type21FindAllDerivedClassesER13dynamic_arrayIPKS0_Lj0EENS0_17TypeFilterOptionsE
4118:__ZNSt3__26vectorIPKN5Unity4TypeENS_9allocatorIS4_EEE6assignIPS4_EENS_9enable_ifIXaasr21__is_forward_iteratorIT_EE5valuesr16is_constructibleIS4_NS_15iterator_traitsISB_E9referenceEEE5valueEvE4typeESB_SB_
4119:__ZNSt3__26__sortIRNS_4lessIPKN5Unity4TypeEEEPS5_EEvT0_S9_T_
4120:__ZL23AddConflictingClassIMPLPKN5Unity4TypeES2_
4121:__ZNSt3__27__sort5IRNS_4lessIPKN5Unity4TypeEEEPS5_EEjT0_S9_S9_S9_S9_T_
4122:__ZNSt3__227__insertion_sort_incompleteIRNS_4lessIPKN5Unity4TypeEEEPS5_EEbT0_S9_T_
4123:__ZNK11TypeManager23FindAllRTTIDerivedTypesEPK4RTTIR13dynamic_arrayIS2_Lj0EEb
4124:__ZN13RuntimeStaticI13ModuleManagerLb0EE10InitializeEv
4125:__ZN13ModuleManagerC2Ev
4126:__ZN10UnityScene43RegisterLevelGameManagersWithManagerContextEv
4127:__Z22SetManagerPtrInContextiP6Object
4128:__ZL24StaticInitializeProfilerPv
4129:__ZL21StaticCleanupProfilerPv
4130:__ZN9profiling7Marker3IiN4core12basic_stringIcNS1_20StringStorageDefaultIcEEEEjEC2EtPKcNS_6Marker5FlagsES8_S8_S8_
4131:__ZN9profiling8Profiler8ShutdownEv
4132:__ZN9profiling15ProfilerManager8ShutdownEv
4133:__Z26CleanupMemoryProfilerStatsv
4134:__ZN19MemoryProfilerStatsD2Ev
4135:__ZN9profiling15ProfilerManagerD2Ev
4136:__ZN9profiling6Marker7DestroyE10MemLabelIdPS0_
4137:__ZN9profiling8ProfilerD2Ev
4138:__ZN9profiling16BufferSerializer13ReleaseBufferEv
4139:__ZN9profiling10Dispatcher7DisableEjb
4140:__ZN9profiling14DispatchStream30SetEnabledAndEmitProfilerStateEbj
4141:__ZN9profiling10Dispatcher20RemoveDispatchStreamEPNS_14DispatchStreamE
4142:__ZN9profiling17PerThreadProfiler17EmitCleanupThreadEy
4143:__ZN9profiling19DispatchBuffersPoolD2Ev
4144:__ZN16MutexLockedStack6PopAllEv
4145:__Z23DestroyMutexLockedStackP16MutexLockedStack
4146:__ZN9profiling10DispatcherD2Ev
4147:__Z23DestroyMutexLockedQueueP16MutexLockedQueue10MemLabelId
4148:__ZN9profiling14DispatchStream21ReleasePendingBuffersEv
4149:__ZN9profiling10Dispatcher17ReleaseFreeBufferEPNS_14DispatchBufferE
4150:__ZN9profiling19DispatchBuffersPool10PushBufferEPNS_14DispatchBufferE
4151:__ZN9profiling14DispatchStream25EmitProfilerStateInternalEbj
4152:__ZN9profiling14DispatchStream19WritePendingBuffersEv
4153:__Z35GetTimeToNanosecondsConversionRatiov
4154:__ZN9profiling14DispatchStream16WriteThreadInfosEv
4155:__ZN9profiling14DispatchStream17WriteSamplerInfosEv
4156:__ZN9profiling14DispatchStream23OnCreateSamplerCallbackEPNS_6MarkerEPv
4157:__ZN9profiling14DispatchStream15EmitSamplerInfoEPNS_6MarkerE
4158:__ZNK9profiling8Profiler14GetThreadInfosER13dynamic_arrayINS_5proto10ThreadInfoELj0EE
4159:__ZN9profiling14DispatchStream14EmitThreadInfoEyRKN4core12basic_stringIcNS1_20StringStorageDefaultIcEEEES7_j
4160:__ZN13dynamic_arrayIN9profiling5proto10ThreadInfoELj0EE18resize_initializedEj12ResizePolicy
4161:__ZN9profiling14DispatchStream5WriteEPKNS_14DispatchBufferE
4162:__Z29InitializeMemoryProfilerStatsv
4163:__ZN9profiling15ProfilerManager10InitializeEv
4164:__ZN9profiling8Profiler10InitializeEb
4165:__ZN9profiling8ProfilerC2ERK10MemLabelId
4166:__ZN9profiling8Profiler16InitializeThreadEPKcS2_PFvjPvES3_
4167:__ZN9profiling8Profiler34SetProfilerConnectionStreamEnabledEb
4168:__Z20profiler_set_enabledb
4169:__ZN9profiling8Profiler10SetEnabledEb
4170:__ZN9profiling10Dispatcher6EnableEj
4171:__ZN9profiling10Dispatcher17AddDispatchStreamEPNS_14DispatchStreamE
4172:__ZN9profiling32ProfilerConnectionDispatchStreamC2E10MemLabelIdPNS_8ProfilerEPNS_15ProfilerManagerEPNS_10DispatcherE
4173:__ZN9profiling16BufferSerializerC2Ev
4174:__ZN9profiling14DispatchStreamD2Ev
4175:__ZN9profiling32ProfilerConnectionDispatchStreamD0Ev
4176:__ZN9profiling14DispatchStream13AcquireBufferEj
4177:__ZN9profiling14DispatchStream13ReleaseBufferEPNS_14DispatchBufferE
4178:__ZN9profiling32ProfilerConnectionDispatchStream10WriteBlockEPKhj
4179:__ZN18ProfilerConnection21SendFrameDataToEditorEPKvj
4180:__ZN16PlayerConnection3GetEv
4181:__ZN17GeneralConnection11SendMessageEj9UnityGUIDPKvjb
4182:__ZN17GeneralConnection10Connection11SendMessageERNS_14NetworkMessageEPKvb
4183:__ZN20BufferedSocketStream4SendEPKvj
4184:__ZN12SocketStream7SendAllEPKvjl
4185:__ZN23dynamic_ringbuffer_baseIhE9write_ptrERj
4186:__ZN9profiling10Dispatcher17AcquireFreeBufferEj
4187:__ZN9profiling19DispatchBuffersPool9PopBufferEj
4188:__ZN9profiling8Profiler23CreatePerThreadProfilerEv
4189:__ZN9profiling17PerThreadProfiler14EmitThreadInfoERKN4core12basic_stringIcNS1_20StringStorageDefaultIcEEEES7_j
4190:__ZN9profiling17PerThreadProfilerC2ERK10MemLabelIdPNS_10DispatcherE
4191:__ZN9profiling17PerThreadProfilerD2Ev
4192:__ZN9profiling17PerThreadProfilerD0Ev
4193:__ZN9profiling17PerThreadProfiler13AcquireBufferEj
4194:__ZN9profiling17PerThreadProfiler13ReleaseBufferEPNS_14DispatchBufferE
4195:__ZN9profiling10Dispatcher18EnqueueForDispatchEPNS_14DispatchBufferE
4196:__ZN9profiling17PerThreadProfiler19CleanupGfxResourcesEv
4197:__ZN9profiling19DispatchBuffersPool17SetPoolMemorySizeEj
4198:__ZN9profiling19DispatchBuffersPool20SetMaxUsedMemorySizeEj
4199:__ZN9profiling8Profiler29OnUsedMemoryThresholdCallbackEbPv
4200:__ZN9profiling19DispatchBuffersPool32SetOnUsedMemoryThresholdCallbackEPFvbPvES1_
4201:__ZN9profiling10DispatcherC2E10MemLabelIdPNS_19DispatchBuffersPoolEb
4202:__Z22CreateMutexLockedQueue10MemLabelId
4203:__ZN9profiling19DispatchBuffersPoolC2E10MemLabelIdjj
4204:__Z22CreateMutexLockedStackv
4205:__ZN9profiling19DispatchBuffersPool18PreallocateBuffersEjj
4206:__ZN9profiling15ProfilerManagerC2ERK10MemLabelId
4207:__ZN9profiling15ProfilerManager16RegisterBuiltinsEv
4208:__ZN9profiling6Marker19GetLastStaticMarkerEv
4209:__ZN19MemoryProfilerStatsC2E10MemLabelId
4210:__Z12StringToGUIDPKc
4211:__Z12StringToGUIDPKcj
4212:__ZN13RuntimeStaticI21AssetReferenceStorageLb0EE16StaticInitializeEPv
4213:__ZN13RuntimeStaticI21AssetReferenceStorageLb0EE13StaticDestroyEPv
4214:__ZN13RuntimeStaticI29DeprecatedFrameStatsRecordersLb0EE16StaticInitializeEPv
4215:__ZN13RuntimeStaticI29DeprecatedFrameStatsRecordersLb0EE13StaticDestroyEPv
4216:__ZL19StaticCleanupPlayerPv
4217:__ZN22BuiltinResourceManager16StaticInitializeEPv
4218:__ZN22BuiltinResourceManager13StaticDestroyEPv
4219:__ZN29DeprecatedFrameStatsRecordersD2Ev
4220:__ZN13RuntimeStaticI29DeprecatedFrameStatsRecordersLb0EE10InitializeEv
4221:__ZN21AssetReferenceStorageD2Ev
4222:__ZN21AssetReferenceStorage22GarbageCollectCallbackEPS_R27GarbageCollectorThreadState
4223:__ZN13RuntimeStaticI21AssetReferenceStorageLb0EE10InitializeEv
4224:__ZN21AssetReferenceStorageC2Ev
4225:__ZN13RuntimeStaticI19EndOfFrameCallbacksLb0EE16StaticInitializeEPv
4226:__ZN13RuntimeStaticI19EndOfFrameCallbacksLb0EE13StaticDestroyEPv
4227:__ZN13RuntimeStaticI19UnityPluginRegistryLb0EE16StaticInitializeEPv
4228:__ZN13RuntimeStaticI19UnityPluginRegistryLb0EE13StaticDestroyEPv
4229:__ZN13RuntimeStaticINSt3__23mapIN4core12basic_stringIcNS2_20StringStorageDefaultIcEEEES6_NS0_4lessIS6_EE13stl_allocatorINS0_4pairIKS6_S6_EEL18MemLabelIdentifier13ELi16EEEELb0EE13StaticDestroyEPv
4230:__ZNSt3__26__treeINS_12__value_typeIN4core12basic_stringIcNS2_20StringStorageDefaultIcEEEES6_EENS_19__map_value_compareIS6_S7_NS_4lessIS6_EELb1EEE13stl_allocatorIS7_L18MemLabelIdentifier13ELi16EEE7destroyEPNS_11__tree_nodeIS7_PvEE
4231:__ZN13RuntimeStaticI19UnityPluginRegistryLb0EE10InitializeEv
4232:__ZN19EndOfFrameCallbacks8DequeAllEv
4233:__ZN13RuntimeStaticI19EndOfFrameCallbacksLb0EE10InitializeEv
4234:__ZN17ScriptingGCHandle15ReleaseAndClearEv
4235:__ZN21ComponentRequirements16StaticInitializeEPv
4236:__ZN21ComponentRequirements13StaticDestroyEPv
4237:__Z22CleanupCachingManagersPv
4238:__ZN15FileSystemEntry6DeleteEb
4239:__ZL30InitializeHalfConversionTablesPv
4240:__ZL30InitializeRegisterDomainReloadPv
4241:__ZL27CleanupAllJobReflectionDatav
4242:__ZN13RuntimeStaticI22VirtualJoystickManagerLb0EE16StaticInitializeEPv
4243:__ZN13RuntimeStaticI22VirtualJoystickManagerLb0EE13StaticDestroyEPv
4244:__ZN13RuntimeStaticI15GUIEventManagerLb0EE16StaticInitializeEPv
4245:__ZN13RuntimeStaticI15GUIEventManagerLb0EE13StaticDestroyEPv
4246:__ZN13RuntimeStaticI15GUIEventManagerLb0EE7DestroyEv
4247:__ZNSt3__212__deque_baseI10InputEventNS_9allocatorIS1_EEE5clearEv
4248:__ZN10InputEventD2Ev
4249:__ZN13RuntimeStaticI15GUIEventManagerLb0EE10InitializeEv
4250:__ZN13RuntimeStaticI22VirtualJoystickManagerLb0EE10InitializeEv
4251:__ZN13RuntimeStaticI22ThreadSharedObjectPoolI26ScriptableShadowCasterDataELb1EE16StaticInitializeEPv
4252:__ZN13RuntimeStaticI22ThreadSharedObjectPoolI26ScriptableShadowCasterDataELb1EE13StaticDestroyEPv
4253:__ZN22ThreadSharedObjectPoolI26ScriptableShadowCasterDataE5ClearEv
4254:__ZN26ScriptableShadowCasterDataD2Ev
4255:__ZN15RenderNodeQueueD2Ev
4256:__ZN15RenderNodeQueue5ResetEb
4257:__ZN19AtomicPageAllocatorD2Ev
4258:__ZN19AtomicPageAllocator5ClearEv
4259:__ZN26ScriptableShadowCasterData5ResetEv
4260:__ZN13RuntimeStaticI22ThreadSharedObjectPoolI26ScriptableShadowCasterDataELb1EE10InitializeEv
4261:__ZN23DefaultMeshVertexFormatC2E18VertexChannelsInfo
4262:__ZN13RuntimeStaticI17UniqueIDGeneratorLb0EE16StaticInitializeEPv
4263:__ZN13RuntimeStaticI17UniqueIDGeneratorLb0EE10InitializeEv
4264:__ZN17UniqueIDGeneratorC2E10MemLabelId
4265:__ZN13RuntimeStaticI23MeshVertexFormatManagerLb0EE13StaticDestroyEPv
4266:__ZNSt3__26__treeINS_12__value_typeI18VertexChannelsInfo16MeshVertexFormatEENS_19__map_value_compareIS2_S4_NS_4lessIS2_EELb1EEE13stl_allocatorIS4_L18MemLabelIdentifier17ELi16EEE7destroyEPNS_11__tree_nodeIS4_PvEE
4267:__Z25InitializeLODGroupManagerPv
4268:__Z22CleanupLODGroupManagerPv
4269:__ZN15LODGroupManagerD2Ev
4270:__ZN17UniqueIDGenerator7CleanupEv
4271:__ZN23TransformChangeDispatch16UnregisterSystemER27TransformChangeSystemHandle
4272:__ZN17UniqueIDGenerator16DestroyPureIndexEj
4273:__ZN15LODGroupManagerC2E10MemLabelId
4274:__ZN23TransformChangeDispatch14RegisterSystemENS_12InterestTypeE
4275:__ZN17UniqueIDGenerator15CreatePureIndexEv
4276:__ZN17UniqueIDGenerator8CreateIDEv
4277:__ZN21BillboardBatchManager16StaticInitializeEPv
4278:__ZN21BillboardBatchManager13StaticCleanupEPv
4279:__Z28BuildSingleStreamChannelInfoP11ChannelInfoRK20VertexChannelsLayout17ShaderChannelMaskS4_
4280:__Z26GetMeshVertexFormatManagerv
4281:__ZN23MeshVertexFormatManager19GetMeshVertexFormatERK18VertexChannelsInfo
4282:__ZNK18VertexChannelsInfoltERKS_
4283:__ZN16MeshVertexFormatC2ERK18VertexChannelsInfo
4284:__ZNSt3__26__treeINS_12__value_typeI18VertexChannelsInfo16MeshVertexFormatEENS_19__map_value_compareIS2_S4_NS_4lessIS2_EELb1EEE13stl_allocatorIS4_L18MemLabelIdentifier17ELi16EEE30__emplace_hint_unique_key_argsIS2_JNS_4pairIKS2_S3_EEEEENS_15__tree_iteratorIS4_PNS_11__tree_nodeIS4_PvEEiEENS_21__tree_const_iteratorIS4_SL_iEERKT_DpOT0_
4285:__ZNSt3__26__treeINS_12__value_typeI18VertexChannelsInfo16MeshVertexFormatEENS_19__map_value_compareIS2_S4_NS_4lessIS2_EELb1EEE13stl_allocatorIS4_L18MemLabelIdentifier17ELi16EEE12__find_equalIS2_EERPNS_16__tree_node_baseIPvEENS_21__tree_const_iteratorIS4_PNS_11__tree_nodeIS4_SF_EEiEERPNS_15__tree_end_nodeISH_EESI_RKT_
4286:__ZN13RuntimeStaticI10WatermarksLb0EE16StaticInitializeEPv
4287:__ZN20DiagnosticSwitchBaseC2EPKcS1_NS_11SwitchFlagsE
4288:__ZN16DiagnosticSwitchIbE18SetValueFromStringEPKc
4289:__ZN16DiagnosticSwitchIbE20ApplyPersistentValueEv
4290:__ZN16DiagnosticSwitchIbE20CollectScriptingInfoERN20DiagnosticSwitchBase13ScriptingInfoE
4291:__ZN16DiagnosticSwitchIbE24UpdateFromScriptingValueE18ScriptingObjectPtrb
4292:__ZN9Scripting26RaiseArgumentNullExceptionEPKc
4293:__ZN9Scripting22RaiseArgumentExceptionEPKcz
4294:__ZN9Scripting24RaiseSystemExceptionImplEPKcS1_Pi
4295:__ZN9Scripting24RaiseDotNetExceptionImplEPKcS1_S1_Pi
4296:__ZN9Scripting26CreateManagedExceptionImplEPKcS1_S1_Pi
4297:__Z30CreateBoxedObjectFromPrimitiveb
4298:__ZN16DiagnosticSwitchIbE18GetPersistentValueEv
4299:__Z19scripting_value_box17ScriptingClassPtrPv
4300:__Z14IsStringNumberPKc
4301:__Z14StringToUInt32RKN4core16basic_string_refIcEE
4302:__ZN13RuntimeStaticI10WatermarksLb0EE10InitializeEv
4303:__ZN18AsyncUploadManager16StaticInitializeEPv
4304:__ZN18AsyncUploadManager13StaticDestroyEPv
4305:__ZN18AsyncUploadManagerD2Ev
4306:__ZN18ConcurrentFreeListI12AsyncCommandE7CleanUpEv
4307:__ZN18AsyncUploadManagerC2E10MemLabelId
4308:__ZN13RuntimeStaticIN4core8hash_mapIiiNS0_4hashIiEENSt3__28equal_toIiEEEELb0EE16StaticInitializeEPv
4309:__ZN13RuntimeStaticIN4core8hash_mapIiiNS0_4hashIiEENSt3__28equal_toIiEEEELb0EE13StaticDestroyEPv
4310:__ZN13RuntimeStaticIN4core8hash_mapIiiNS0_4hashIiEENSt3__28equal_toIiEEEELb0EE10InitializeEv
4311:__ZL38StaticRegister_LightmapSettingsManagerPv
4312:__ZL33StaticUnregister_LightmapSettingsPv
4313:__ZL14DidUnloadScenei
4314:__ZL21SceneLoadedAfterAwakeiR18AwakeFromLoadQueue16SceneLoadingMode
4315:__Z20DidChangeActiveSceneP10UnitySceneS0_
4316:__ZL12WipeSettingsv
4317:__ZNK10UnityScene19GetLevelGameManagerEi
4318:__ZN16LightmapSettings8CopyFromEPKS_
4319:__ZN21EnlightenSceneMappingaSERKS_
4320:__ZN16LightmapSettings7RebuildEv
4321:__ZN16LightmapSettings28SetDynamicGILightmapTexturesEPK22RealtimeLightmapIDDataj
4322:__Znaj
4323:__ZN10builtintex17GetBlackTextureIDEv
4324:__ZNSt3__26vectorINS_4pairIijEENS_9allocatorIS2_EEE6assignIPS2_EENS_9enable_ifIXaasr21__is_forward_iteratorIT_EE5valuesr16is_constructibleIS2_NS_15iterator_traitsIS9_E9referenceEEE5valueEvE4typeES9_S9_
4325:__ZN4core8hash_mapIiP16LightmapSettingsNS_4hashIiEENSt3__28equal_toIiEEEixERKi
4326:__ZNK23LightmapSettingsManager24CheckSettingsConsistencyEv
4327:__Z19GetLightmapSettingsv
4328:__ZN16LightmapSettings24GetEnlightenSceneMappingEv
4329:__ZN16LightmapSettings15AppendLightmapsEiRK13dynamic_arrayI12LightmapDataLj0EE
4330:__ZN21EnlightenSceneMapping14SetSceneHandleEi
4331:__ZN21EnlightenSceneMapping6AppendEiRKS_
4332:__ZN16LightmapSettings14GetLightProbesEv
4333:__ZNK11LightProbes14LightProbeData12GetNumProbesEv
4334:__ZN16LightmapSettings14SetLightProbesEP11LightProbes
4335:__ZN16LightmapSettings14SetSceneHandleEi
4336:__Z26GetLightmapSettingsManagerv
4337:__ZN23LightmapSettingsManager25GetMergedLightmapSettingsEv
4338:__Z24InitializeMainSceneRangeiiiR13dynamic_arrayI10SceneRangeLj0EE
4339:__Z16AppendSceneRangeiiiiiR13dynamic_arrayI10SceneRangeLj0EE
4340:__ZNSt3__26vectorINS_4pairIijEENS_9allocatorIS2_EEE21__push_back_slow_pathIS2_EEvOT_
4341:__ZN13sorted_vectorINSt3__24pairIijEEN10vector_mapIijNS0_4lessIiEENS0_9allocatorIS2_EEE13value_compareES7_E21sort_clear_duplicatesEv
4342:__ZnwjRKSt9nothrow_t
4343:__ZNSt3__213__stable_sortIRN10vector_mapIijNS_4lessIiEENS_9allocatorINS_4pairIijEEEEE13value_compareENS_11__wrap_iterIPS6_EEEEvT0_SE_T_NS_15iterator_traitsISE_E15difference_typeEPNSH_10value_typeEi
4344:__ZNSt3__218__stable_sort_moveIRN10vector_mapIijNS_4lessIiEENS_9allocatorINS_4pairIijEEEEE13value_compareENS_11__wrap_iterIPS6_EEEEvT0_SE_T_NS_15iterator_traitsISE_E15difference_typeEPNSH_10value_typeE
4345:__ZNSt3__215__inplace_mergeIRN10vector_mapIijNS_4lessIiEENS_9allocatorINS_4pairIijEEEEE13value_compareENS_11__wrap_iterIPS6_EEEEvT0_SE_SE_T_NS_15iterator_traitsISE_E15difference_typeESI_PNSH_10value_typeEi
4346:__ZNSt3__224__buffered_inplace_mergeIRN10vector_mapIijNS_4lessIiEENS_9allocatorINS_4pairIijEEEEE13value_compareENS_11__wrap_iterIPS6_EEEEvT0_SE_SE_T_NS_15iterator_traitsISE_E15difference_typeESI_PNSH_10value_typeE
4347:__ZN16LightmapSettings17GetGIWorkflowModeEv
4348:__ZNK10GISettings26GetEnableRealtimeLightmapsEv
4349:__Z17GetRenderSettingsv
4350:__Z12FormatStringPKcz
4351:__Z12FormatBufferPciPKcPi
4352:__ZN20CoreScriptingClasses32IsLightmapBakeTypeSupportedByRefEiPvP21ScriptingExceptionPtr
4353:__ZN18ScriptingArguments7AddEnumEi
4354:__ZN18ScriptingArguments9AddIntPtrEPv
4355:__ZN19ScriptingInvocation6InvokeIvEET_P21ScriptingExceptionPtrb
4356:__ZN23LightmapSettingsManager19RemoveSceneSettingsEi
4357:__ZN21EnlightenSceneMapping5EraseEi
4358:__ZN16LightmapSettings15RemoveLightmapsEi
4359:__Z26ExtractAllRenderersInSceneR13dynamic_arrayIP8RendererLj0EE
4360:__Z25ExtractAllTerrainsInSceneR13dynamic_arrayIP7TerrainLj0EE
4361:__ZN6Object17FindObjectsOfTypeEPKN5Unity4TypeER13dynamic_arrayIPS_Lj0EEb
4362:__ZL31FindObjectsOfTypeImplementationPN4core8hash_setIP6ObjectNS_4hashIS2_EENSt3__28equal_toIS2_EEEEPKN5Unity4TypeER13dynamic_arrayIS2_Lj0EE
4363:__ZNSt3__26__sortIR17CompareInstanceIDPP6ObjectEEvT0_S6_T_
4364:__ZNSt3__27__sort5IR17CompareInstanceIDPP6ObjectEEjT0_S6_S6_S6_S6_T_
4365:__ZNSt3__227__insertion_sort_incompleteIR17CompareInstanceIDPP6ObjectEEbT0_S6_T_
4366:__Z14FindSceneIndexRK13dynamic_arrayI10SceneRangeLj0EEi
4367:__ZL31InitializeRendererUpdateManagerPv
4368:__ZL28CleanupRendererUpdateManagerPv
4369:__ZN21RendererUpdateManagerD2Ev
4370:__ZN11MatrixStack5ResetEv
4371:__ZN10Matrix4x4f11SetIdentityEv
4372:__ZN13RuntimeStaticI17UniqueIDGeneratorLb1EE16StaticInitializeEPv
4373:__Z37InitializeIntermediateRendererManagerPv
4374:__Z34CleanupIntermediateRendererManagerPv
4375:__ZN27IntermediateRendererManager27RemoveIntermediateRenderersEi
4376:__ZN21IntermediateRenderers5ClearEj
4377:__ZN13RuntimeStaticI17UniqueIDGeneratorLb1EE10InitializeEv
4378:__ZL28InitializeAsyncUploadTexturePv
4379:__ZL26ShutdownAsyncUploadTexturePv
4380:__ZN18ConcurrentFreeListI24TextureUploadInstructionE7CleanUpEv
4381:__ZN13RuntimeStaticI15DirectorManagerLb0EE16StaticInitializeEPv
4382:__ZN13RuntimeStaticI15DirectorManagerLb0EE13StaticDestroyEPv
4383:__ZN15DirectorManager14ConnectionPool8DestructEv
4384:__ZN15DirectorManager14ConnectionPool11ClearUnsafeEv
4385:__ZN15DirectorManagerD2Ev
4386:__ZN15DirectorManager12CleanupClassEv
4387:__ZNSt3__26__treeINS_12__value_typeIPvsEENS_19__map_value_compareIS2_S3_NS_4lessIS2_EELb1EEE13stl_allocatorIS3_L18MemLabelIdentifier86ELi16EEE7destroyEPNS_11__tree_nodeIS3_S2_EE
4388:__ZN13RuntimeStaticI15DirectorManagerLb0EE10InitializeEv
4389:__ZN15DirectorManagerC2Ev
4390:__ZN15DirectorManager15InitializeClassEv
4391:__ZZN15DirectorManager15InitializeClassEvEN40EarlyUpdateDirectorSampleTimeRegistrator7ForwardEv
4392:__ZZN15DirectorManager15InitializeClassEvEN45FixedUpdateDirectorFixedSampleTimeRegistrator7ForwardEv
4393:__ZZN15DirectorManager15InitializeClassEvEN41FixedUpdateDirectorFixedUpdateRegistrator7ForwardEv
4394:__ZZN15DirectorManager15InitializeClassEvEN52FixedUpdateDirectorFixedUpdatePostPhysicsRegistrator7ForwardEv
4395:__ZZN15DirectorManager15InitializeClassEvEN31UpdateDirectorUpdateRegistrator7ForwardEv
4396:__ZZN15DirectorManager15InitializeClassEvEN48PreLateUpdateDirectorDeferredEvaluateRegistrator7ForwardEv
4397:__ZZN15DirectorManager15InitializeClassEvEN43PostLateUpdateDirectorLateUpdateRegistrator7ForwardEv
4398:__ZZN15DirectorManager15InitializeClassEvEN44PostLateUpdateDirectorRenderImageRegistrator7ForwardEv
4399:__ZZN15DirectorManager15InitializeClassEvEN52PreLateUpdateDirectorUpdateAnimationBeginRegistrator7ForwardEv
4400:__ZZN15DirectorManager15InitializeClassEvEN50PreLateUpdateDirectorUpdateAnimationEndRegistrator7ForwardEv
4401:__ZZN15DirectorManager15InitializeClassEvEN42shutdownBeforeCleanupAllObjectsRegistrator7ForwardEv
4402:__ZZN15DirectorManager15InitializeClassEvEN41shutdownAfterCleanupAllObjectsRegistrator7ForwardEv
4403:__ZZN15DirectorManager15InitializeClassEvEN44exitPlayModeBeforeAwakeInEditModeRegistrator7ForwardEv
4404:__ZZN15DirectorManager15InitializeClassEvEN32enterPlayModePreStartRegistrator7ForwardEv
4405:__ZN15DirectorManager14ConnectionPool14InitializePoolEjf
4406:__ZN9profiling21CallbacksProfilerBase20CreateDynamicSamplerEPKc
4407:__ZN9profiling21CallbacksProfilerBase19BeginSampleInternalEPNS_6MarkerE
4408:__ZN17DirectorFrameTime14ResetDSPValuesEv
4409:__ZN9profiling21CallbacksProfilerBase17EndSampleInternalEPNS_6MarkerE
4410:__ZN15DirectorManager23ProcessPlayStateChangesEv
4411:__Z18FlushGraphCommandsR13dynamic_arrayI16GraphCommandPairLj0EER16MutexLockedStack
4412:__ZN13PlayableGraph12PrepareFrameE16PrepareFrameTypedyj21DirectorThreadContext
4413:__ZNK8Playable6HandleEv
4414:__ZN13PlayableGraph27SchedulePlayableDestructionERK9HPlayable
4415:__ZN13PlayableGraph23DestroyPendingPlayablesEv
4416:__ZN13PlayableGraph14DestroyOutputsEv
4417:__ZN13PlayableGraphD2Ev
4418:__ZN15DirectorManager21RebuildStageCallbacksEv
4419:__ZN15DirectorManager12RegisterJobsEP13PlayableGraph
4420:__ZNSt3__26vectorI20ProcessCallbackGroupNS_9allocatorIS1_EEE21__push_back_slow_pathIRKS1_EEvOT_
4421:__ZNSt3__26vectorI20ProcessCallbackGroupNS_9allocatorIS1_EEE26__swap_out_circular_bufferERNS_14__split_bufferIS1_RS3_EE
4422:__ZN14PlayableOutput7DestroyEv
4423:__Z18GetDirectorManagerv
4424:__ZN15DirectorManager14FreeOutputNodeEP19HPlayableOutputNode
4425:__ZN14PlayableOutput26ClearInvalidSourcePlayableEv
4426:__ZN8Playable16DisconnectInputsEPS_
4427:__ZN8Playable21DisconnectFromOutputsEPS_
4428:__ZN8Playable10DisconnectEPS_i
4429:__ZN15DirectorManager11AcquireNodeEv
4430:__ZN14PlayableOutput15PrepareTraverseERK9FrameDatai
4431:__ZN8Playable19PrepareFrameVisitorER19DirectorVisitorInfo
4432:__ZN25PreOrderPlayableTraverser8TraverseER19DirectorVisitorInfo
4433:__ZN13PlayableGraph18DisableMultithreadEv
4434:__ZN8Playable16ProcessPlayStateERK19DirectorVisitorInfo
4435:__ZN8Playable16CallOnGraphStartEv
4436:__ZN15DirectorManager29CacheScriptingMethodsForClassE17ScriptingClassPtr
4437:__ZNK15DirectorManager16GetScriptMethodsEs
4438:__ZNK15PlayableMethods20InvokeBehaviourDelayER18ScriptingObjectPtrRK9HPlayableP18ScriptingFrameData
4439:__ZNK15PlayableMethods13CanInvokePlayEv
4440:__ZNK15PlayableMethods19InvokeBehaviourPlayER18ScriptingObjectPtrRK9HPlayableP18ScriptingFrameData
4441:__ZNK15PlayableMethods14CanInvokePauseEv
4442:__ZNK15PlayableMethods20InvokeBehaviourPauseER18ScriptingObjectPtrRK9HPlayableP18ScriptingFrameData
4443:__ZN8Playable15CallOnGraphStopEv
4444:__ZNK15PlayableMethods20CanInvokeOnGraphStopEv
4445:__ZNK15PlayableMethods17InvokeOnGraphStopER18ScriptingObjectPtrRK9HPlayable
4446:__ZN9Scripting29GetFirstNonGenericParentClassE17ScriptingClassPtrS0_
4447:__ZN9Scripting21GetOverrideMethodOnlyEPKc17ScriptingClassPtrS2_
4448:__ZNSt3__26__treeINS_12__value_typeIPvsEENS_19__map_value_compareIS2_S3_NS_4lessIS2_EELb1EEE13stl_allocatorIS3_L18MemLabelIdentifier86ELi16EEE25__emplace_unique_key_argsIS2_JNS_4pairIS2_sEEEEENSD_INS_15__tree_iteratorIS3_PNS_11__tree_nodeIS3_S2_EEiEEbEERKT_DpOT0_
4449:__ZNK15PlayableMethods21CanInvokeOnGraphStartEv
4450:__ZNK15PlayableMethods18InvokeOnGraphStartER18ScriptingObjectPtrRK9HPlayable
4451:__ZN15DirectorManager20ExecutePrepareFramesE13DirectorStage
4452:__ZL19PrepareFrameJobFuncP15PrepareFrameJobj
4453:__Z26ScheduleJobForEachInternalR8JobFencePFvPvjES1_iPFvS1_E11JobPriority
4454:__ZN14PlayableOutput25FireConnectionHashChangedEv
4455:__Z22NeedToPerformRenderingv
4456:__ZN13PlayableGraph8EvaluateEdyj
4457:__ZN15DirectorManager17OnSampleFixedTimeEv
4458:__Z14GetTimeManagerv
4459:__ZN17DirectorFrameTime10SampleTimeEfffb
4460:__ZN17DirectorFrameTime21CalculateDSPDeltaTimeEv
4461:__Z9GetIAudiov
4462:__ZN15DirectorManager12OnSampleTimeEv
4463:__ZN15DirectorManager14ConnectionPool16GrowEmptyBucketsEv
4464:__ZN15DirectorManager14ConnectionPool10CreateItemEi
4465:__ZN17CommonStringTable16StaticInitializeEPv
4466:__ZN17CommonStringTable13StaticCleanupEPv
4467:__ZN17CommonStringTableD2Ev
4468:__ZN17CommonStringTableC2ERK10MemLabelId
4469:__ZN15GlobalCallbacksC2Ev
4470:__ZL24CleanupPrepassRenderLoopPv
4471:__ZN16memory_pool_implILi20EE15AutoPoolWrapper10InitializeEPv
4472:__ZN16memory_pool_implILi20EE15AutoPoolWrapper12UninitializeEPv
4473:__ZN10MemoryPool24RegisterStaticMemoryPoolEPS_
4474:__ZNSt3__26vectorIP10MemoryPool13stl_allocatorIS2_L18MemLabelIdentifier76ELi16EEE21__push_back_slow_pathIRKS2_EEvOT_
4475:__ZN19CullingGroupManager15InitializeClassEPv
4476:__ZN19CullingGroupManager12CleanupClassEPv
4477:__ZN13RuntimeStaticI13RendererSceneLb0EE16StaticInitializeEPv
4478:__ZN13RuntimeStaticI13RendererSceneLb0EE13StaticDestroyEPv
4479:__ZN13RendererSceneD2Ev
4480:__ZN13RendererScene14RemoveRendererEi
4481:__ZN13RendererScene28SceneAfterCullingOutputReadyEPK9IndexListPK16RendererCullData
4482:__ZN13RendererScene16UpdateVisibilityEPK9IndexList
4483:__ZN13RuntimeStaticI13RendererSceneLb0EE10InitializeEv
4484:__ZN13RendererSceneC2Ev
4485:__ZL33CleanupCubemapGPUUtilityMaterialsPv
4486:__ZL25CleanupImageFilterGlobalsPv
4487:__ZN24MeshIntermediateRenderer16StaticInitializeEPv
4488:__ZN24MeshIntermediateRenderer13StaticDestroyEPv
4489:__ZL14CleanupShadowsPv
4490:__ZN13RuntimeStaticI20BurstCompilerServiceLb0EE16StaticInitializeEPv
4491:__ZN13RuntimeStaticI20BurstCompilerServiceLb0EE13StaticDestroyEPv
4492:__ZL44DelegateCache_InitializeRegisterDomainReloadPv
4493:__ZL25CleanupAllCachedDelegatesv
4494:__ZN13RuntimeStaticI20BurstCompilerServiceLb0EE7DestroyEv
4495:__ZN13RuntimeStaticI20BurstCompilerServiceLb0EE10InitializeEv
4496:__ZN20BurstCompilerServiceC2Ev
4497:__ZL22RegisterICallWithBurstPKcPKv
4498:__Z41scripting_add_icall_registration_callbackPFvPKcPKvE
4499:__Z11burst_abortPKcS0_
4500:__ZN20BurstCompilerService24RegisterInternalFunctionEPKcPKv
4501:__ZN4core8hash_mapINS_12basic_stringIcNS_20StringStorageDefaultIcEEEEPKvNS_4hashIS4_EENSt3__28equal_toIS4_EEEixERKS4_
4502:__Z17DebugStringToFileIN4core12basic_stringIcNS0_20StringStorageDefaultIcEEEEEvRKT_iPKci15LogMessageFlagsiiPFvRK11CppLogEntryE
4503:__ZN17BaseObjectManager16StaticInitializeEPv
4504:__ZN17BaseObjectManager13StaticDestroyEPv
4505:__ZN11TypeManager21CleanupGlobalInstanceEv
4506:__ZN11TypeManagerD2Ev
4507:__ZNSt3__26__treeINS_12__value_typeIiN11TypeManager18TypeCallbackStructEEENS_19__map_value_compareIiS4_NS_4lessIiEELb1EEENS_9allocatorIS4_EEE7destroyEPNS_11__tree_nodeIS4_PvEE
4508:__ZN11TypeManager24InitializeGlobalInstanceEv
4509:__ZN6Object16StaticInitializeEv
4510:__ZN11TypeManager12RegisterTypeERK20TypeRegistrationDesc
4511:__ZN11TypeManager36FatalErrorOnPersistentTypeIDConflictEiPKc
4512:__ZN4core8hash_mapIPKcPK4RTTIN11TypeManager23ConstCharPtrHashFunctorENS6_19ConstCharPtrEqualToEEixERKS2_
4513:__ZN13RuntimeStaticI12EventManagerLb1EE16StaticInitializeEPv
4514:__ZN13RuntimeStaticI12EventManagerLb1EE13StaticDestroyEPv
4515:__ZN13RuntimeStaticI14MessageHandlerLb0EE16StaticInitializeEPv
4516:__ZN13RuntimeStaticI14MessageHandlerLb0EE13StaticDestroyEPv
4517:__ZNSt3__213__vector_baseI16MessageForwarder13stl_allocatorIS1_L18MemLabelIdentifier7ELi8EEED2Ev
4518:__ZN13RuntimeStaticI14MessageHandlerLb0EE10InitializeEv
4519:__ZN13RuntimeStaticI12EventManagerLb1EE10InitializeEv
4520:__ZL39CreateRegisteredMessageIdentifiersArrayPv
4521:__ZL40DestroyRegisteredMessageIdentifiersArrayPv
4522:__ZN13RuntimeStaticI12AdsIdHandlerLb0EE16StaticInitializeEPv
4523:__ZN13RuntimeStaticI12AdsIdHandlerLb0EE13StaticDestroyEPv
4524:__ZN13RuntimeStaticI15ApplicationInfoLb0EE16StaticInitializeEPv
4525:__ZN13RuntimeStaticI15ApplicationInfoLb0EE13StaticDestroyEPv
4526:__ZN13RuntimeStaticI15ApplicationInfoLb0EE7DestroyEv
4527:__ZN13RuntimeStaticI15ApplicationInfoLb0EE10InitializeEv
4528:__ZN12AdsIdHandlerD2Ev
4529:__ZN13RuntimeStaticI12AdsIdHandlerLb0EE10InitializeEv
4530:__ZN13RuntimeStaticI5MutexLb0EE16StaticInitializeEPv
4531:__ZN13RuntimeStaticI5MutexLb0EE13StaticDestroyEPv
4532:__ZL26CleanupExternalAllocationsPv
4533:__ZNSt3__26__treeINS_12__value_typeIPv17ExternalAllocInfoEENS_19__map_value_compareIS2_S4_NS_4lessIS2_EELb1EEE13stl_allocatorIS4_L18MemLabelIdentifier59ELi16EEE7destroyEPNS_11__tree_nodeIS4_S2_EE
4534:__ZN13RuntimeStaticI5MutexLb0EE10InitializeEv
4535:__ZN13RuntimeStaticI18SpriteAtlasManagerLb1EE16StaticInitializeEPv
4536:__ZN13RuntimeStaticI18SpriteAtlasManagerLb1EE10InitializeEv
4537:__ZZN18SpriteAtlasManagerC1E10MemLabelIdEN46EarlyUpdateSpriteAtlasManagerUpdateRegistrator7ForwardEv
4538:__ZN18SpriteAtlasManager21CleanupInvalidAtlasesEv
4539:__ZN18SpriteAtlasManager21RequestAtlasViaScriptEv
4540:__ZN13sorted_vectorIN4core12basic_stringIcNS0_20StringStorageDefaultIcEEEENSt3__24lessIS4_EE13stl_allocatorIS4_L18MemLabelIdentifier81ELi16EEE21sort_clear_duplicatesEv
4541:__ZN19ScriptingInvocation6InvokeIbEET_P21ScriptingExceptionPtrb
4542:__Z13FormatOrderedPKcz
4543:__ZL20FormatOrderedProcessPKcP17FormatOrderedDataPc
4544:__ZNSt3__213__stable_sortIRNS_4lessIN4core12basic_stringIcNS2_20StringStorageDefaultIcEEEEEENS_11__wrap_iterIPS6_EEEEvT0_SC_T_NS_15iterator_traitsISC_E15difference_typeEPNSF_10value_typeEi
4545:__Z17remove_duplicatesINSt3__211__wrap_iterIPN4core12basic_stringIcNS2_20StringStorageDefaultIcEEEEEENS0_4lessIS6_EEET_SB_SB_T0_
4546:__ZNSt3__216__insertion_sortIRNS_4lessIN4core12basic_stringIcNS2_20StringStorageDefaultIcEEEEEENS_11__wrap_iterIPS6_EEEEvT0_SC_T_
4547:__ZNSt3__218__stable_sort_moveIRNS_4lessIN4core12basic_stringIcNS2_20StringStorageDefaultIcEEEEEENS_11__wrap_iterIPS6_EEEEvT0_SC_T_NS_15iterator_traitsISC_E15difference_typeEPNSF_10value_typeE
4548:__ZNSt3__219__merge_move_assignIRNS_4lessIN4core12basic_stringIcNS2_20StringStorageDefaultIcEEEEEEPS6_S9_NS_11__wrap_iterIS9_EEEEvT0_SC_T1_SD_T2_T_
4549:__ZNSt3__215__inplace_mergeIRNS_4lessIN4core12basic_stringIcNS2_20StringStorageDefaultIcEEEEEENS_11__wrap_iterIPS6_EEEEvT0_SC_SC_T_NS_15iterator_traitsISC_E15difference_typeESG_PNSF_10value_typeEi
4550:__ZNSt3__224__buffered_inplace_mergeIRNS_4lessIN4core12basic_stringIcNS2_20StringStorageDefaultIcEEEEEENS_11__wrap_iterIPS6_EEEEvT0_SC_SC_T_NS_15iterator_traitsISC_E15difference_typeESG_PNSF_10value_typeE
4551:__ZNSt3__216__rotate_forwardINS_11__wrap_iterIPN4core12basic_stringIcNS2_20StringStorageDefaultIcEEEEEEEET_S9_S9_S9_
4552:__ZNSt3__221__insertion_sort_moveIRNS_4lessIN4core12basic_stringIcNS2_20StringStorageDefaultIcEEEEEENS_11__wrap_iterIPS6_EEEEvT0_SC_PNS_15iterator_traitsISC_E10value_typeET_
4553:__ZNSt3__222__merge_move_constructIRNS_4lessIN4core12basic_stringIcNS2_20StringStorageDefaultIcEEEEEENS_11__wrap_iterIPS6_EESB_EEvT0_SC_T1_SD_PNS_15iterator_traitsISC_E10value_typeET_
4554:__ZN18SpriteAtlasManagerD2Ev
4555:__ZN18SpriteAtlasManagerD0Ev
4556:__Z29InitializeSortingGroupManagerPv
4557:__Z26CleanupSortingGroupManagerPv
4558:__ZZ29InitializeSortingGroupManagerPvEN44PostLateUpdateSortingGroupsUpdateRegistrator7ForwardEv
4559:__ZN19SortingGroupManager6UpdateEv
4560:__ZNK9Transform11GetPositionEv
4561:__ZN6prcoreL17RemapGenericFloatI15TexFormatRFloat16TexFormatRGFloatEEvPKNS_9InnerInfoE
4562:__ZN6prcoreL17RemapGenericFloatI15TexFormatRFloat17TexFormatRGBFloatEEvPKNS_9InnerInfoE
4563:__ZN6prcoreL17RemapGenericFloatI15TexFormatRFloat18TexFormatRGBAFloatEEvPKNS_9InnerInfoE
4564:__ZN6prcoreL17RemapGenericFloatI15TexFormatRFloat18TexFormatARGBFloatEEvPKNS_9InnerInfoE
4565:__ZN6prcoreL17RemapGenericFloatI15TexFormatRFloat14TexFormatRHalfEEvPKNS_9InnerInfoE
4566:__ZN6prcoreL17RemapGenericFloatI15TexFormatRFloat15TexFormatRGHalfEEvPKNS_9InnerInfoE
4567:__ZN6prcoreL17RemapGenericFloatI15TexFormatRFloat17TexFormatRGBAHalfEEvPKNS_9InnerInfoE
4568:__ZN6prcoreL17RemapGenericFloatI16TexFormatRGFloat15TexFormatRFloatEEvPKNS_9InnerInfoE
4569:__ZN6prcoreL17RemapGenericFloatI16TexFormatRGFloat17TexFormatRGBFloatEEvPKNS_9InnerInfoE
4570:__ZN6prcoreL17RemapGenericFloatI16TexFormatRGFloat18TexFormatRGBAFloatEEvPKNS_9InnerInfoE
4571:__ZN6prcoreL17RemapGenericFloatI16TexFormatRGFloat18TexFormatARGBFloatEEvPKNS_9InnerInfoE
4572:__ZN6prcoreL17RemapGenericFloatI16TexFormatRGFloat14TexFormatRHalfEEvPKNS_9InnerInfoE
4573:__ZN6prcoreL17RemapGenericFloatI16TexFormatRGFloat15TexFormatRGHalfEEvPKNS_9InnerInfoE
4574:__ZN6prcoreL17RemapGenericFloatI16TexFormatRGFloat17TexFormatRGBAHalfEEvPKNS_9InnerInfoE
4575:__ZN6prcoreL17RemapGenericFloatI17TexFormatRGBFloat15TexFormatRFloatEEvPKNS_9InnerInfoE
4576:__ZN6prcoreL17RemapGenericFloatI17TexFormatRGBFloat16TexFormatRGFloatEEvPKNS_9InnerInfoE
4577:__ZN6prcoreL17RemapGenericFloatI17TexFormatRGBFloat18TexFormatRGBAFloatEEvPKNS_9InnerInfoE
4578:__ZN6prcoreL17RemapGenericFloatI17TexFormatRGBFloat18TexFormatARGBFloatEEvPKNS_9InnerInfoE
4579:__ZN6prcoreL17RemapGenericFloatI17TexFormatRGBFloat14TexFormatRHalfEEvPKNS_9InnerInfoE
4580:__ZN6prcoreL17RemapGenericFloatI17TexFormatRGBFloat15TexFormatRGHalfEEvPKNS_9InnerInfoE
4581:__ZN6prcoreL17RemapGenericFloatI17TexFormatRGBFloat17TexFormatRGBAHalfEEvPKNS_9InnerInfoE
4582:__ZN6prcoreL17RemapGenericFloatI18TexFormatRGBAFloat15TexFormatRFloatEEvPKNS_9InnerInfoE
4583:__ZN6prcoreL17RemapGenericFloatI18TexFormatRGBAFloat16TexFormatRGFloatEEvPKNS_9InnerInfoE
4584:__ZN6prcoreL17RemapGenericFloatI18TexFormatRGBAFloat17TexFormatRGBFloatEEvPKNS_9InnerInfoE
4585:__ZN6prcoreL17RemapGenericFloatI18TexFormatRGBAFloat18TexFormatARGBFloatEEvPKNS_9InnerInfoE
4586:__ZN6prcoreL17RemapGenericFloatI18TexFormatRGBAFloat14TexFormatRHalfEEvPKNS_9InnerInfoE
4587:__ZN6prcoreL17RemapGenericFloatI18TexFormatRGBAFloat15TexFormatRGHalfEEvPKNS_9InnerInfoE
4588:__ZN6prcoreL17RemapGenericFloatI18TexFormatRGBAFloat17TexFormatRGBAHalfEEvPKNS_9InnerInfoE
4589:__ZN6prcoreL17RGBAFloatToRGB9e5EPKNS_9InnerInfoE
4590:__ZN6prcoreL17RemapGenericFloatI18TexFormatARGBFloat15TexFormatRFloatEEvPKNS_9InnerInfoE
4591:__ZN6prcoreL17RemapGenericFloatI18TexFormatARGBFloat16TexFormatRGFloatEEvPKNS_9InnerInfoE
4592:__ZN6prcoreL17RemapGenericFloatI18TexFormatARGBFloat17TexFormatRGBFloatEEvPKNS_9InnerInfoE
4593:__ZN6prcoreL17RemapGenericFloatI18TexFormatARGBFloat18TexFormatRGBAFloatEEvPKNS_9InnerInfoE
4594:__ZN6prcoreL17RemapGenericFloatI18TexFormatARGBFloat14TexFormatRHalfEEvPKNS_9InnerInfoE
4595:__ZN6prcoreL17RemapGenericFloatI18TexFormatARGBFloat15TexFormatRGHalfEEvPKNS_9InnerInfoE
4596:__ZN6prcoreL17RemapGenericFloatI18TexFormatARGBFloat17TexFormatRGBAHalfEEvPKNS_9InnerInfoE
4597:__ZN6prcoreL17RemapGenericFloatI14TexFormatRHalf15TexFormatRFloatEEvPKNS_9InnerInfoE
4598:__ZN6prcoreL17RemapGenericFloatI14TexFormatRHalf16TexFormatRGFloatEEvPKNS_9InnerInfoE
4599:__ZN6prcoreL17RemapGenericFloatI14TexFormatRHalf17TexFormatRGBFloatEEvPKNS_9InnerInfoE
4600:__ZN6prcoreL17RemapGenericFloatI14TexFormatRHalf18TexFormatRGBAFloatEEvPKNS_9InnerInfoE
4601:__ZN6prcoreL17RemapGenericFloatI14TexFormatRHalf18TexFormatARGBFloatEEvPKNS_9InnerInfoE
4602:__ZN6prcoreL17RemapGenericFloatI14TexFormatRHalf15TexFormatRGHalfEEvPKNS_9InnerInfoE
4603:__ZN6prcoreL17RemapGenericFloatI14TexFormatRHalf17TexFormatRGBAHalfEEvPKNS_9InnerInfoE
4604:__ZN6prcoreL17RemapGenericFloatI15TexFormatRGHalf15TexFormatRFloatEEvPKNS_9InnerInfoE
4605:__ZN6prcoreL17RemapGenericFloatI15TexFormatRGHalf16TexFormatRGFloatEEvPKNS_9InnerInfoE
4606:__ZN6prcoreL17RemapGenericFloatI15TexFormatRGHalf17TexFormatRGBFloatEEvPKNS_9InnerInfoE
4607:__ZN6prcoreL17RemapGenericFloatI15TexFormatRGHalf18TexFormatRGBAFloatEEvPKNS_9InnerInfoE
4608:__ZN6prcoreL17RemapGenericFloatI15TexFormatRGHalf18TexFormatARGBFloatEEvPKNS_9InnerInfoE
4609:__ZN6prcoreL17RemapGenericFloatI15TexFormatRGHalf14TexFormatRHalfEEvPKNS_9InnerInfoE
4610:__ZN6prcoreL17RemapGenericFloatI15TexFormatRGHalf17TexFormatRGBAHalfEEvPKNS_9InnerInfoE
4611:__ZN6prcoreL17RemapGenericFloatI17TexFormatRGBAHalf15TexFormatRFloatEEvPKNS_9InnerInfoE
4612:__ZN6prcoreL17RemapGenericFloatI17TexFormatRGBAHalf16TexFormatRGFloatEEvPKNS_9InnerInfoE
4613:__ZN6prcoreL17RemapGenericFloatI17TexFormatRGBAHalf17TexFormatRGBFloatEEvPKNS_9InnerInfoE
4614:__ZN6prcoreL17RemapGenericFloatI17TexFormatRGBAHalf18TexFormatRGBAFloatEEvPKNS_9InnerInfoE
4615:__ZN6prcoreL17RemapGenericFloatI17TexFormatRGBAHalf18TexFormatARGBFloatEEvPKNS_9InnerInfoE
4616:__ZN6prcoreL17RemapGenericFloatI17TexFormatRGBAHalf14TexFormatRHalfEEvPKNS_9InnerInfoE
4617:__ZN6prcoreL17RemapGenericFloatI17TexFormatRGBAHalf15TexFormatRGHalfEEvPKNS_9InnerInfoE
4618:__ZN6prcoreL17RGB9e5ToRGBAFloatEPKNS_9InnerInfoE
4619:__ZN6prcoreL27StretchGenericFloatBilinearI15TexFormatRFloatEEvPKNS_9InnerInfoE
4620:__ZN6prcoreL27StretchGenericFloatBilinearI16TexFormatRGFloatEEvPKNS_9InnerInfoE
4621:__ZN6prcoreL27StretchGenericFloatBilinearI17TexFormatRGBFloatEEvPKNS_9InnerInfoE
4622:__ZN6prcoreL27StretchGenericFloatBilinearI18TexFormatRGBAFloatEEvPKNS_9InnerInfoE
4623:__ZN6prcoreL27StretchGenericFloatBilinearI14TexFormatRHalfEEvPKNS_9InnerInfoE
4624:__ZN6prcoreL27StretchGenericFloatBilinearI15TexFormatRGHalfEEvPKNS_9InnerInfoE
4625:__ZN6prcoreL27StretchGenericFloatBilinearI17TexFormatRGBAHalfEEvPKNS_9InnerInfoE
4626:__ZN6prcoreL21StretchRGB9e5BilinearEPKNS_9InnerInfoE
4627:__ZN6prcoreL26RemapGenericIntegerToFloatI17TexFormatARGB888815TexFormatRFloatEEvPKNS_9InnerInfoE
4628:__ZN6prcoreL26RemapGenericIntegerToFloatI17TexFormatARGB888816TexFormatRGFloatEEvPKNS_9InnerInfoE
4629:__ZN6prcoreL26RemapGenericIntegerToFloatI17TexFormatARGB888817TexFormatRGBFloatEEvPKNS_9InnerInfoE
4630:__ZN6prcoreL26RemapGenericIntegerToFloatI17TexFormatARGB888818TexFormatRGBAFloatEEvPKNS_9InnerInfoE
4631:__ZN6prcoreL26RemapGenericIntegerToFloatI17TexFormatARGB888818TexFormatARGBFloatEEvPKNS_9InnerInfoE
4632:__ZN6prcoreL26RemapGenericIntegerToFloatI17TexFormatARGB888814TexFormatRHalfEEvPKNS_9InnerInfoE
4633:__ZN6prcoreL26RemapGenericIntegerToFloatI17TexFormatARGB888815TexFormatRGHalfEEvPKNS_9InnerInfoE
4634:__ZN6prcoreL26RemapGenericIntegerToFloatI17TexFormatARGB888817TexFormatRGBAHalfEEvPKNS_9InnerInfoE
4635:__ZN6prcoreL16ARGB8888ToRGB9e5EPKNS_9InnerInfoE
4636:__ZN6prcoreL26RemapGenericFloatToIntegerI15TexFormatRFloat17TexFormatARGB8888EEvPKNS_9InnerInfoE
4637:__ZN6prcoreL26RemapGenericFloatToIntegerI16TexFormatRGFloat17TexFormatARGB8888EEvPKNS_9InnerInfoE
4638:__ZN6prcoreL26RemapGenericFloatToIntegerI17TexFormatRGBFloat17TexFormatARGB8888EEvPKNS_9InnerInfoE
4639:__ZN6prcoreL26RemapGenericFloatToIntegerI18TexFormatRGBAFloat17TexFormatARGB8888EEvPKNS_9InnerInfoE
4640:__ZN6prcoreL26RemapGenericFloatToIntegerI18TexFormatARGBFloat17TexFormatARGB8888EEvPKNS_9InnerInfoE
4641:__ZN6prcoreL26RemapGenericFloatToIntegerI14TexFormatRHalf17TexFormatARGB8888EEvPKNS_9InnerInfoE
4642:__ZN6prcoreL26RemapGenericFloatToIntegerI15TexFormatRGHalf17TexFormatARGB8888EEvPKNS_9InnerInfoE
4643:__ZN6prcoreL26RemapGenericFloatToIntegerI17TexFormatRGBAHalf17TexFormatARGB8888EEvPKNS_9InnerInfoE
4644:__ZN6prcoreL16RGB9e5ToARGB8888EPKNS_9InnerInfoE
4645:__ZN6prcoreL12RemapGenericI17TexFormatARGB888811TexFormatI8EEvPKNS_9InnerInfoE
4646:__ZN6prcoreL12RemapGenericI17TexFormatARGB888811TexFormatA8EEvPKNS_9InnerInfoE
4647:__ZN6prcoreL12RemapGenericI17TexFormatARGB888815TexFormatRGB565EEvPKNS_9InnerInfoE
4648:__ZN6prcoreL12RemapGenericI17TexFormatARGB888815TexFormatRGB888EEvPKNS_9InnerInfoE
4649:__ZN6prcoreL12RemapGenericI17TexFormatARGB888817TexFormatARGB1555EEvPKNS_9InnerInfoE
4650:__ZN6prcoreL12RemapGenericI17TexFormatARGB888817TexFormatARGB4444EEvPKNS_9InnerInfoE
4651:__ZN6prcoreL12RemapGenericI17TexFormatARGB888815TexFormatBGR888EEvPKNS_9InnerInfoE
4652:__ZN6prcoreL12RemapGenericI17TexFormatARGB888817TexFormatABGR8888EEvPKNS_9InnerInfoE
4653:__ZN6prcoreL12RemapGenericI17TexFormatARGB888817TexFormatRGBA4444EEvPKNS_9InnerInfoE
4654:__ZN6prcoreL12RemapGenericI17TexFormatARGB888817TexFormatBGRA8888EEvPKNS_9InnerInfoE
4655:__ZN6prcoreL12RemapGenericI17TexFormatARGB888817TexFormatRGBA8888EEvPKNS_9InnerInfoE
4656:__ZN6prcoreL12RemapGenericI17TexFormatARGB888811TexFormatR8EEvPKNS_9InnerInfoE
4657:__ZN6prcoreL12RemapGenericI17TexFormatARGB888813TexFormatRG88EEvPKNS_9InnerInfoE
4658:__ZN6prcoreL12RemapGenericI11TexFormatI817TexFormatARGB8888EEvPKNS_9InnerInfoE
4659:__ZN6prcoreL12RemapGenericI11TexFormatI815TexFormatRGB565EEvPKNS_9InnerInfoE
4660:__ZN6prcoreL12RemapGenericI11TexFormatI815TexFormatRGB888EEvPKNS_9InnerInfoE
4661:__ZN6prcoreL12RemapGenericI11TexFormatI817TexFormatARGB4444EEvPKNS_9InnerInfoE
4662:__ZN6prcoreL12RemapGenericI11TexFormatA817TexFormatARGB8888EEvPKNS_9InnerInfoE
4663:__ZN6prcoreL12RemapGenericI15TexFormatRGB56517TexFormatARGB8888EEvPKNS_9InnerInfoE
4664:__ZN6prcoreL12RemapGenericI15TexFormatRGB56511TexFormatI8EEvPKNS_9InnerInfoE
4665:__ZN6prcoreL12RemapGenericI15TexFormatRGB56515TexFormatRGB888EEvPKNS_9InnerInfoE
4666:__ZN6prcoreL12RemapGenericI15TexFormatRGB56517TexFormatARGB4444EEvPKNS_9InnerInfoE
4667:__ZN6prcoreL12RemapGenericI15TexFormatRGB56515TexFormatBGR888EEvPKNS_9InnerInfoE
4668:__ZN6prcoreL12RemapGenericI15TexFormatRGB88817TexFormatARGB8888EEvPKNS_9InnerInfoE
4669:__ZN6prcoreL12RemapGenericI15TexFormatRGB88811TexFormatI8EEvPKNS_9InnerInfoE
4670:__ZN6prcoreL12RemapGenericI15TexFormatRGB88815TexFormatRGB565EEvPKNS_9InnerInfoE
4671:__ZN6prcoreL12RemapGenericI15TexFormatRGB88817TexFormatARGB4444EEvPKNS_9InnerInfoE
4672:__ZN6prcoreL12RemapGenericI17TexFormatARGB155517TexFormatARGB8888EEvPKNS_9InnerInfoE
4673:__ZN6prcoreL12RemapGenericI17TexFormatARGB155517TexFormatRGBA8888EEvPKNS_9InnerInfoE
4674:__ZN6prcoreL12RemapGenericI17TexFormatARGB444417TexFormatARGB8888EEvPKNS_9InnerInfoE
4675:__ZN6prcoreL12RemapGenericI17TexFormatARGB444411TexFormatI8EEvPKNS_9InnerInfoE
4676:__ZN6prcoreL12RemapGenericI17TexFormatARGB444415TexFormatRGB565EEvPKNS_9InnerInfoE
4677:__ZN6prcoreL12RemapGenericI17TexFormatARGB444415TexFormatRGB888EEvPKNS_9InnerInfoE
4678:__ZN6prcoreL12RemapGenericI17TexFormatARGB444417TexFormatABGR8888EEvPKNS_9InnerInfoE
4679:__ZN6prcoreL12RemapGenericI15TexFormatBGR88817TexFormatARGB8888EEvPKNS_9InnerInfoE
4680:__ZN6prcoreL12RemapGenericI17TexFormatABGR888817TexFormatARGB8888EEvPKNS_9InnerInfoE
4681:__ZN6prcoreL12RemapGenericI17TexFormatRGBA444417TexFormatARGB8888EEvPKNS_9InnerInfoE
4682:__ZN6prcoreL12RemapGenericI17TexFormatRGBA444417TexFormatABGR8888EEvPKNS_9InnerInfoE
4683:__ZN6prcoreL12RemapGenericI17TexFormatBGRA888817TexFormatABGR8888EEvPKNS_9InnerInfoE
4684:__ZN6prcoreL12RemapGenericI17TexFormatRGBA888817TexFormatARGB8888EEvPKNS_9InnerInfoE
4685:__ZN6prcoreL12RemapGenericI17TexFormatRGBA888817TexFormatARGB1555EEvPKNS_9InnerInfoE
4686:__ZN6prcoreL12RemapGenericI11TexFormatR817TexFormatARGB8888EEvPKNS_9InnerInfoE
4687:__ZN6prcoreL12RemapGenericI13TexFormatRG8817TexFormatARGB8888EEvPKNS_9InnerInfoE
4688:__ZN6prcoreL13inner_stretchILj1ELj1EEEvPKNS_9InnerInfoE
4689:__ZN6prcoreL13inner_stretchILj2ELj2EEEvPKNS_9InnerInfoE
4690:__ZN6prcoreL13inner_stretchILj3ELj3EEEvPKNS_9InnerInfoE
4691:__ZN6prcoreL13inner_stretchILj4ELj4EEEvPKNS_9InnerInfoE
4692:__ZN6prcoreL31inner_stretch_argb8888_bilinearEPKNS_9InnerInfoE
4693:__ZN6prcoreL25inner_stretch_i8_bilinearEPKNS_9InnerInfoE
4694:__ZN6prcoreL29inner_stretch_rgb565_bilinearEPKNS_9InnerInfoE
4695:__ZN6prcoreL29inner_stretch_rgb888_bilinearEPKNS_9InnerInfoE
4696:__ZN6prcoreL31inner_stretch_argb4444_bilinearEPKNS_9InnerInfoE
4697:__ZN6prcoreL27inner_stretch_rg88_bilinearEPKNS_9InnerInfoE
4698:__Z16rgb9e5_to_float36rgb9e5P10ColorRGBAf
4699:f64-to-int
4700:__Z16float3_to_rgb9e5RK10ColorRGBAfP6rgb9e5
4701:__ZN17ScriptingGCHandle7AcquireE18ScriptingObjectPtr25ScriptingGCHandleWeakness
4702:__ZL50__ManagedRegistrationHelperFunction_AllocatorProxyPv
4703:__ZL75__ManagedRegistrationHelperFunction_DeallocateOnJobCompletionAttributeProxyPv
4704:__ZL65__ManagedRegistrationHelperFunction_NativeContainerAttributeProxyPv
4705:__ZL82__ManagedRegistrationHelperFunction_NativeContainerIsAtomicWriteOnlyAttributeProxyPv
4706:__ZL75__ManagedRegistrationHelperFunction_NativeContainerIsReadOnlyAttributeProxyPv
4707:__ZL81__ManagedRegistrationHelperFunction_NativeContainerNeedsThreadIndexAttributeProxyPv
4708:__ZL98__ManagedRegistrationHelperFunction_NativeContainerSupportsDeallocateOnJobCompletionAttributeProxyPv
4709:__ZL90__ManagedRegistrationHelperFunction_NativeContainerSupportsDeferredConvertListToArrayProxyPv
4710:__ZL95__ManagedRegistrationHelperFunction_NativeContainerSupportsMinMaxWriteRestrictionAttributeProxyPv
4711:__ZL89__ManagedRegistrationHelperFunction_NativeDisableContainerSafetyRestrictionAttributeProxyPv
4712:__ZL83__ManagedRegistrationHelperFunction_NativeDisableUnsafePtrRestrictionAttributeProxyPv
4713:__ZL84__ManagedRegistrationHelperFunction_NativeSetClassTypeToNullOnScheduleAttributeProxyPv
4714:__ZL70__ManagedRegistrationHelperFunction_NativeSetThreadIndexAttributeProxyPv
4715:__ZL85__ManagedRegistrationHelperFunction_NativeDisableParallelForRestrictionAttributeProxyPv
4716:__ZL67__ManagedRegistrationHelperFunction_NativeFixedLengthAttributeProxyPv
4717:__ZL80__ManagedRegistrationHelperFunction_NativeMatchesParallelForLengthAttributeProxyPv
4718:__ZL58__ManagedRegistrationHelperFunction_ReadOnlyAttributeProxyPv
4719:__ZL59__ManagedRegistrationHelperFunction_WriteOnlyAttributeProxyPv
4720:__ZL55__ManagedRegistrationHelperFunction_AnimationCurveProxyPv
4721:__ZL52__ManagedRegistrationHelperFunction_ApplicationProxyPv
4722:__ZL65__ManagedRegistrationHelperFunction_AssemblyIsEditorAssemblyProxyPv
4723:__ZL57__ManagedRegistrationHelperFunction_YieldInstructionProxyPv
4724:__ZL55__ManagedRegistrationHelperFunction_AsyncOperationProxyPv
4725:__ZL62__ManagedRegistrationHelperFunction_AttributeHelperEngineProxyPv
4726:__ZL47__ManagedRegistrationHelperFunction_ObjectProxyPv
4727:__ZL50__ManagedRegistrationHelperFunction_ComponentProxyPv
4728:__ZL50__ManagedRegistrationHelperFunction_BehaviourProxyPv
4729:__ZL51__ManagedRegistrationHelperFunction_BoneWeightProxyPv
4730:__ZL55__ManagedRegistrationHelperFunction_BootConfigDataProxyPv
4731:__ZL48__ManagedRegistrationHelperFunction_Vector3ProxyPv
4732:__ZL47__ManagedRegistrationHelperFunction_BoundsProxyPv
4733:__ZL50__ManagedRegistrationHelperFunction_BoundsIntProxyPv
4734:__ZL58__ManagedRegistrationHelperFunction_CachedAssetBundleProxyPv
4735:__ZL51__ManagedRegistrationHelperFunction_CacheIndexProxyPv
4736:__ZL47__ManagedRegistrationHelperFunction_CameraProxyPv
4737:__ZL64__ManagedRegistrationHelperFunction_ClassLibraryInitializerProxyPv
4738:__ZL46__ManagedRegistrationHelperFunction_ColorProxyPv
4739:__ZL48__ManagedRegistrationHelperFunction_Color32ProxyPv
4740:__ZL51__ManagedRegistrationHelperFunction_ColorGamutProxyPv
4741:__ZL54__ManagedRegistrationHelperFunction_ComputeBufferProxyPv
4742:__ZL52__ManagedRegistrationHelperFunction_ContextMenuProxyPv
4743:__ZL50__ManagedRegistrationHelperFunction_CoroutineProxyPv
4744:__ZL48__ManagedRegistrationHelperFunction_TextureProxyPv
4745:__ZL48__ManagedRegistrationHelperFunction_CubemapProxyPv
4746:__ZL53__ManagedRegistrationHelperFunction_CullingGroupProxyPv
4747:__ZL54__ManagedRegistrationHelperFunction_RenderTextureProxyPv
4748:__ZL60__ManagedRegistrationHelperFunction_CustomRenderTextureProxyPv
4749:__ZL70__ManagedRegistrationHelperFunction_CustomRenderTextureUpdateZoneProxyPv
4750:__ZL62__ManagedRegistrationHelperFunction_DefaultExecutionOrderProxyPv
4751:__ZL57__ManagedRegistrationHelperFunction_DiagnosticSwitchProxyPv
4752:__ZL48__ManagedRegistrationHelperFunction_DisplayProxyPv
4753:__ZL49__ManagedRegistrationHelperFunction_EnumInfoProxyPv
4754:__ZL55__ManagedRegistrationHelperFunction_UnityEventBaseProxyPv
4755:__ZL51__ManagedRegistrationHelperFunction_UnityEventProxyPv
4756:__ZL74__ManagedRegistrationHelperFunction_ExcludeFromObjectFactoryAttributeProxyPv
4757:__ZL67__ManagedRegistrationHelperFunction_ExcludeFromPresetAttributeProxyPv
4758:__ZL52__ManagedRegistrationHelperFunction_LightDataGIProxyPv
4759:__ZL53__ManagedRegistrationHelperFunction_LightmappingProxyPv
4760:__ZL65__ManagedRegistrationHelperFunction_PlayerLoopSystemInternalProxyPv
4761:__ZL55__ManagedRegistrationHelperFunction_CameraPlayableProxyPv
4762:__ZL63__ManagedRegistrationHelperFunction_MaterialEffectPlayableProxyPv
4763:__ZL61__ManagedRegistrationHelperFunction_TextureMixerPlayableProxyPv
4764:__ZL62__ManagedRegistrationHelperFunction_TexturePlayableOutputProxyPv
4765:__ZL52__ManagedRegistrationHelperFunction_EarlyUpdateProxyPv
4766:__ZL52__ManagedRegistrationHelperFunction_FixedUpdateProxyPv
4767:__ZL55__ManagedRegistrationHelperFunction_InitializationProxyPv
4768:__ZL55__ManagedRegistrationHelperFunction_PostLateUpdateProxyPv
4769:__ZL54__ManagedRegistrationHelperFunction_PreLateUpdateProxyPv
4770:__ZL50__ManagedRegistrationHelperFunction_PreUpdateProxyPv
4771:__ZL47__ManagedRegistrationHelperFunction_UpdateProxyPv
4772:__ZL57__ManagedRegistrationHelperFunction_CameraPropertiesProxyPv
4773:__ZL57__ManagedRegistrationHelperFunction_CoreCameraValuesProxyPv
4774:__ZL52__ManagedRegistrationHelperFunction_CullResultsProxyPv
4775:__ZL60__ManagedRegistrationHelperFunction_DrawShadowsSettingsProxyPv
4776:__ZL62__ManagedRegistrationHelperFunction_RenderPipelineManagerProxyPv
4777:__ZL68__ManagedRegistrationHelperFunction_ScriptableCullingParametersProxyPv
4778:__ZL56__ManagedRegistrationHelperFunction_ShadowSplitDataProxyPv
4779:__ZL67__ManagedRegistrationHelperFunction_SupportedRenderingFeaturesProxyPv
4780:__ZL53__ManagedRegistrationHelperFunction_VisibleLightProxyPv
4781:__ZL63__ManagedRegistrationHelperFunction_VisibleReflectionProbeProxyPv
4782:__ZL51__ManagedRegistrationHelperFunction_SpriteBoneProxyPv
4783:__ZL65__ManagedRegistrationHelperFunction_FailedToLoadScriptObjectProxyPv
4784:__ZL51__ManagedRegistrationHelperFunction_GameObjectProxyPv
4785:__ZL49__ManagedRegistrationHelperFunction_GradientProxyPv
4786:__ZL57__ManagedRegistrationHelperFunction_GradientAlphaKeyProxyPv
4787:__ZL57__ManagedRegistrationHelperFunction_GradientColorKeyProxyPv
4788:__ZL48__ManagedRegistrationHelperFunction_Hash128ProxyPv
4789:__ZL57__ManagedRegistrationHelperFunction_HelpURLAttributeProxyPv
4790:__ZL56__ManagedRegistrationHelperFunction_HideInInspectorProxyPv
4791:__ZL62__ManagedRegistrationHelperFunction_ImageEffectAfterScaleProxyPv
4792:__ZL58__ManagedRegistrationHelperFunction_ImageEffectOpaqueProxyPv
4793:__ZL67__ManagedRegistrationHelperFunction_ImageEffectTransformsToLDRProxyPv
4794:__ZL49__ManagedRegistrationHelperFunction_KeyframeProxyPv
4795:__ZL50__ManagedRegistrationHelperFunction_LayerMaskProxyPv
4796:__ZL53__ManagedRegistrationHelperFunction_LightmapDataProxyPv
4797:__ZL44__ManagedRegistrationHelperFunction_LODProxyPv
4798:__ZL60__ManagedRegistrationHelperFunction_LowerResBlitTextureProxyPv
4799:__ZL61__ManagedRegistrationHelperFunction_ManagedStreamHelpersProxyPv
4800:__ZL49__ManagedRegistrationHelperFunction_MaterialProxyPv
4801:__ZL50__ManagedRegistrationHelperFunction_Matrix4x4ProxyPv
4802:__ZL45__ManagedRegistrationHelperFunction_MeshProxyPv
4803:__ZL51__ManagedRegistrationHelperFunction_MeshFilterProxyPv
4804:__ZL49__ManagedRegistrationHelperFunction_RendererProxyPv
4805:__ZL53__ManagedRegistrationHelperFunction_MeshRendererProxyPv
4806:__ZL54__ManagedRegistrationHelperFunction_MonoBehaviourProxyPv
4807:__ZL57__ManagedRegistrationHelperFunction_ScriptableObjectProxyPv
4808:__ZL57__ManagedRegistrationHelperFunction_PlayerConnectionProxyPv
4809:__ZL46__ManagedRegistrationHelperFunction_PlaneProxyPv
4810:__ZL49__ManagedRegistrationHelperFunction_PlayableProxyPv
4811:__ZL54__ManagedRegistrationHelperFunction_PlayableAssetProxyPv
4812:__ZL58__ManagedRegistrationHelperFunction_PlayableBehaviourProxyPv
4813:__ZL54__ManagedRegistrationHelperFunction_PlayableGraphProxyPv
4814:__ZL55__ManagedRegistrationHelperFunction_PlayableHandleProxyPv
4815:__ZL55__ManagedRegistrationHelperFunction_PlayableOutputProxyPv
4816:__ZL61__ManagedRegistrationHelperFunction_PlayableOutputHandleProxyPv
4817:__ZL61__ManagedRegistrationHelperFunction_ScriptPlayableOutputProxyPv
4818:__ZL66__ManagedRegistrationHelperFunction_PreferBinarySerializationProxyPv
4819:__ZL52__ManagedRegistrationHelperFunction_PreloadDataProxyPv
4820:__ZL48__ManagedRegistrationHelperFunction_SamplerProxyPv
4821:__ZL54__ManagedRegistrationHelperFunction_CustomSamplerProxyPv
4822:__ZL49__ManagedRegistrationHelperFunction_ProfilerProxyPv
4823:__ZL49__ManagedRegistrationHelperFunction_RecorderProxyPv
4824:__ZL53__ManagedRegistrationHelperFunction_PropertyNameProxyPv
4825:__ZL51__ManagedRegistrationHelperFunction_QuaternionProxyPv
4826:__ZL45__ManagedRegistrationHelperFunction_RectProxyPv
4827:__ZL48__ManagedRegistrationHelperFunction_RectIntProxyPv
4828:__ZL51__ManagedRegistrationHelperFunction_RectOffsetProxyPv
4829:__ZL50__ManagedRegistrationHelperFunction_TransformProxyPv
4830:__ZL54__ManagedRegistrationHelperFunction_RectTransformProxyPv
4831:__ZL56__ManagedRegistrationHelperFunction_ReflectionProbeProxyPv
4832:__ZL64__ManagedRegistrationHelperFunction_AsyncGPUReadbackRequestProxyPv
4833:__ZL54__ManagedRegistrationHelperFunction_CommandBufferProxyPv
4834:__ZL49__ManagedRegistrationHelperFunction_GPUFenceProxyPv
4835:__ZL59__ManagedRegistrationHelperFunction_GraphicsDeviceTypeProxyPv
4836:__ZL59__ManagedRegistrationHelperFunction_PlatformKeywordSetProxyPv
4837:__ZL65__ManagedRegistrationHelperFunction_ReflectionProbeBlendInfoProxyPv
4838:__ZL54__ManagedRegistrationHelperFunction_ShaderKeywordProxyPv
4839:__ZL57__ManagedRegistrationHelperFunction_ShaderKeywordSetProxyPv
4840:__ZL61__ManagedRegistrationHelperFunction_SphericalHarmonicsL2ProxyPv
4841:__ZL51__ManagedRegistrationHelperFunction_ResolutionProxyPv
4842:__ZL56__ManagedRegistrationHelperFunction_ResourceRequestProxyPv
4843:__ZL53__ManagedRegistrationHelperFunction_SceneManagerProxyPv
4844:__ZL56__ManagedRegistrationHelperFunction_SendMouseEventsProxyPv
4845:__ZL70__ManagedRegistrationHelperFunction_FormerlySerializedAsAttributeProxyPv
4846:__ZL55__ManagedRegistrationHelperFunction_SerializeFieldProxyPv
4847:__ZL66__ManagedRegistrationHelperFunction_SerializePrivateVariablesProxyPv
4848:__ZL55__ManagedRegistrationHelperFunction_SetupCoroutineProxyPv
4849:__ZL47__ManagedRegistrationHelperFunction_SpriteProxyPv
4850:__ZL58__ManagedRegistrationHelperFunction_StackTraceUtilityProxyPv
4851:__ZL50__ManagedRegistrationHelperFunction_Texture2DProxyPv
4852:__ZL55__ManagedRegistrationHelperFunction_Texture2DArrayProxyPv
4853:__ZL50__ManagedRegistrationHelperFunction_Texture3DProxyPv
4854:__ZL57__ManagedRegistrationHelperFunction_TrackedReferenceProxyPv
4855:__ZL59__ManagedRegistrationHelperFunction_SpriteAtlasManagerProxyPv
4856:__ZL55__ManagedRegistrationHelperFunction_UnityExceptionProxyPv
4857:__ZL68__ManagedRegistrationHelperFunction_UnitySynchronizationContextProxyPv
4858:__ZL48__ManagedRegistrationHelperFunction_Vector2ProxyPv
4859:__ZL51__ManagedRegistrationHelperFunction_Vector2IntProxyPv
4860:__ZL51__ManagedRegistrationHelperFunction_Vector3IntProxyPv
4861:__ZL48__ManagedRegistrationHelperFunction_Vector4ProxyPv
4862:__ZL58__ManagedRegistrationHelperFunction_WaitForEndOfFrameProxyPv
4863:__ZL59__ManagedRegistrationHelperFunction_WaitForFixedUpdateProxyPv
4864:__ZL55__ManagedRegistrationHelperFunction_WaitForSecondsProxyPv
4865:__Z38GetScriptingManagedObjectProxyRegistryv
4866:__ZN9Scripting11UnityEngine19WaitForSecondsProxy9InitProxyEv
4867:__ZN9Scripting11UnityEngine19WaitForSecondsProxy12CleanupProxyEv
4868:__ZN35ScriptingManagedObjectProxyRegistry13RegisterProxyEPKcPFvvES3_
4869:__Z19scripting_array_new17ScriptingClassPtrjj
4870:__ZN17ScriptingGCHandle13AcquireStrongE18ScriptingObjectPtr
4871:__ZN9Scripting11UnityEngine23WaitForFixedUpdateProxy9InitProxyEv
4872:__ZN9Scripting11UnityEngine23WaitForFixedUpdateProxy12CleanupProxyEv
4873:__ZN9Scripting11UnityEngine22WaitForEndOfFrameProxy9InitProxyEv
4874:__ZN9Scripting11UnityEngine22WaitForEndOfFrameProxy12CleanupProxyEv
4875:__ZN9Scripting11UnityEngine12Vector4Proxy9InitProxyEv
4876:__ZN9Scripting11UnityEngine12Vector4Proxy12CleanupProxyEv
4877:__ZN9Scripting11UnityEngine15Vector3IntProxy9InitProxyEv
4878:__ZN9Scripting11UnityEngine15Vector3IntProxy12CleanupProxyEv
4879:__ZN9Scripting11UnityEngine15Vector2IntProxy9InitProxyEv
4880:__ZN9Scripting11UnityEngine15Vector2IntProxy12CleanupProxyEv
4881:__ZN9Scripting11UnityEngine12Vector2Proxy9InitProxyEv
4882:__ZN9Scripting11UnityEngine12Vector2Proxy12CleanupProxyEv
4883:__ZN9Scripting11UnityEngine32UnitySynchronizationContextProxy9InitProxyEv
4884:__ZN9Scripting11UnityEngine32UnitySynchronizationContextProxy12CleanupProxyEv
4885:__ZN9Scripting11UnityEngine19UnityExceptionProxy9InitProxyEv
4886:__ZN9Scripting11UnityEngine19UnityExceptionProxy12CleanupProxyEv
4887:__ZN9Scripting11UnityEngine3U2D23SpriteAtlasManagerProxy9InitProxyEv
4888:__ZN9Scripting11UnityEngine3U2D23SpriteAtlasManagerProxy12CleanupProxyEv
4889:__ZN9Scripting11UnityEngine21TrackedReferenceProxy9InitProxyEv
4890:__ZN9Scripting11UnityEngine21TrackedReferenceProxy12CleanupProxyEv
4891:__ZN9Scripting11UnityEngine14Texture3DProxy9InitProxyEv
4892:__ZN9Scripting11UnityEngine14Texture3DProxy12CleanupProxyEv
4893:__ZN9Scripting11UnityEngine19Texture2DArrayProxy9InitProxyEv
4894:__ZN9Scripting11UnityEngine19Texture2DArrayProxy12CleanupProxyEv
4895:__ZN9Scripting11UnityEngine14Texture2DProxy9InitProxyEv
4896:__ZN9Scripting11UnityEngine14Texture2DProxy12CleanupProxyEv
4897:__ZN9Scripting11UnityEngine22StackTraceUtilityProxy9InitProxyEv
4898:__ZN9Scripting11UnityEngine22StackTraceUtilityProxy12CleanupProxyEv
4899:__ZN9Scripting11UnityEngine11SpriteProxy9InitProxyEv
4900:__ZN9Scripting11UnityEngine11SpriteProxy12CleanupProxyEv
4901:__ZN9Scripting11UnityEngine19SetupCoroutineProxy9InitProxyEv
4902:__ZN9Scripting11UnityEngine19SetupCoroutineProxy12CleanupProxyEv
4903:__ZN9Scripting11UnityEngine30SerializePrivateVariablesProxy9InitProxyEv
4904:__ZN9Scripting11UnityEngine30SerializePrivateVariablesProxy12CleanupProxyEv
4905:__ZN9Scripting11UnityEngine19SerializeFieldProxy9InitProxyEv
4906:__ZN9Scripting11UnityEngine19SerializeFieldProxy12CleanupProxyEv
4907:__ZN9Scripting11UnityEngine13Serialization34FormerlySerializedAsAttributeProxy9InitProxyEv
4908:__ZN9Scripting11UnityEngine13Serialization34FormerlySerializedAsAttributeProxy12CleanupProxyEv
4909:__ZN9Scripting11UnityEngine20SendMouseEventsProxy9InitProxyEv
4910:__ZN9Scripting11UnityEngine20SendMouseEventsProxy12CleanupProxyEv
4911:__ZN9Scripting11UnityEngine15SceneManagement17SceneManagerProxy9InitProxyEv
4912:__ZN9Scripting11UnityEngine15SceneManagement17SceneManagerProxy12CleanupProxyEv
4913:__ZN9Scripting11UnityEngine20ResourceRequestProxy9InitProxyEv
4914:__ZN9Scripting11UnityEngine20ResourceRequestProxy12CleanupProxyEv
4915:__ZN9Scripting11UnityEngine15ResolutionProxy9InitProxyEv
4916:__ZN9Scripting11UnityEngine15ResolutionProxy12CleanupProxyEv
4917:__ZN9Scripting11UnityEngine9Rendering25SphericalHarmonicsL2Proxy9InitProxyEv
4918:__ZN9Scripting11UnityEngine9Rendering25SphericalHarmonicsL2Proxy12CleanupProxyEv
4919:__ZN9Scripting11UnityEngine9Rendering21ShaderKeywordSetProxy9InitProxyEv
4920:__ZN9Scripting11UnityEngine9Rendering21ShaderKeywordSetProxy12CleanupProxyEv
4921:__ZN9Scripting11UnityEngine9Rendering18ShaderKeywordProxy9InitProxyEv
4922:__ZN9Scripting11UnityEngine9Rendering18ShaderKeywordProxy12CleanupProxyEv
4923:__ZN9Scripting11UnityEngine9Rendering29ReflectionProbeBlendInfoProxy9InitProxyEv
4924:__ZN9Scripting11UnityEngine9Rendering29ReflectionProbeBlendInfoProxy12CleanupProxyEv
4925:__ZN9Scripting11UnityEngine9Rendering23PlatformKeywordSetProxy9InitProxyEv
4926:__ZN9Scripting11UnityEngine9Rendering23PlatformKeywordSetProxy12CleanupProxyEv
4927:__ZN9Scripting11UnityEngine9Rendering23GraphicsDeviceTypeProxy9InitProxyEv
4928:__ZN9Scripting11UnityEngine9Rendering23GraphicsDeviceTypeProxy12CleanupProxyEv
4929:__ZN9Scripting11UnityEngine9Rendering13GPUFenceProxy9InitProxyEv
4930:__ZN9Scripting11UnityEngine9Rendering13GPUFenceProxy12CleanupProxyEv
4931:__ZN9Scripting11UnityEngine9Rendering18CommandBufferProxy9InitProxyEv
4932:__ZN9Scripting11UnityEngine9Rendering18CommandBufferProxy12CleanupProxyEv
4933:__ZN9Scripting11UnityEngine9Rendering28AsyncGPUReadbackRequestProxy9InitProxyEv
4934:__ZN9Scripting11UnityEngine9Rendering28AsyncGPUReadbackRequestProxy12CleanupProxyEv
4935:__ZN9Scripting11UnityEngine20ReflectionProbeProxy9InitProxyEv
4936:__ZN9Scripting11UnityEngine20ReflectionProbeProxy12CleanupProxyEv
4937:__ZN9Scripting11UnityEngine18RectTransformProxy9InitProxyEv
4938:__ZN9Scripting11UnityEngine18RectTransformProxy12CleanupProxyEv
4939:__ZN9Scripting11UnityEngine14TransformProxy9InitProxyEv
4940:__ZN9Scripting11UnityEngine14TransformProxy12CleanupProxyEv
4941:__ZN9Scripting11UnityEngine15RectOffsetProxy9InitProxyEv
4942:__ZN9Scripting11UnityEngine15RectOffsetProxy12CleanupProxyEv
4943:__ZN9Scripting11UnityEngine12RectIntProxy9InitProxyEv
4944:__ZN9Scripting11UnityEngine12RectIntProxy12CleanupProxyEv
4945:__ZN9Scripting11UnityEngine9RectProxy9InitProxyEv
4946:__ZN9Scripting11UnityEngine9RectProxy12CleanupProxyEv
4947:__ZN9Scripting11UnityEngine15QuaternionProxy9InitProxyEv
4948:__ZN9Scripting11UnityEngine15QuaternionProxy12CleanupProxyEv
4949:__ZN9Scripting11UnityEngine17PropertyNameProxy9InitProxyEv
4950:__ZN9Scripting11UnityEngine17PropertyNameProxy12CleanupProxyEv
4951:__ZN9Scripting11UnityEngine9Profiling13RecorderProxy9InitProxyEv
4952:__ZN9Scripting11UnityEngine9Profiling13RecorderProxy12CleanupProxyEv
4953:__ZN9Scripting11UnityEngine9Profiling13ProfilerProxy9InitProxyEv
4954:__ZN9Scripting11UnityEngine9Profiling13ProfilerProxy12CleanupProxyEv
4955:__ZN9Scripting11UnityEngine9Profiling18CustomSamplerProxy9InitProxyEv
4956:__ZN9Scripting11UnityEngine9Profiling18CustomSamplerProxy12CleanupProxyEv
4957:__ZN9Scripting11UnityEngine9Profiling12SamplerProxy9InitProxyEv
4958:__ZN9Scripting11UnityEngine9Profiling12SamplerProxy12CleanupProxyEv
4959:__ZN9Scripting11UnityEngine16PreloadDataProxy9InitProxyEv
4960:__ZN9Scripting11UnityEngine16PreloadDataProxy12CleanupProxyEv
4961:__ZN9Scripting11UnityEngine30PreferBinarySerializationProxy9InitProxyEv
4962:__ZN9Scripting11UnityEngine30PreferBinarySerializationProxy12CleanupProxyEv
4963:__ZN9Scripting11UnityEngine9Playables25ScriptPlayableOutputProxy9InitProxyEv
4964:__ZN9Scripting11UnityEngine9Playables25ScriptPlayableOutputProxy12CleanupProxyEv
4965:__ZN9Scripting11UnityEngine9Playables25PlayableOutputHandleProxy9InitProxyEv
4966:__ZN9Scripting11UnityEngine9Playables25PlayableOutputHandleProxy12CleanupProxyEv
4967:__ZN9Scripting11UnityEngine9Playables19PlayableOutputProxy9InitProxyEv
4968:__ZN9Scripting11UnityEngine9Playables19PlayableOutputProxy12CleanupProxyEv
4969:__ZN9Scripting11UnityEngine9Playables19PlayableHandleProxy9InitProxyEv
4970:__ZN9Scripting11UnityEngine9Playables19PlayableHandleProxy12CleanupProxyEv
4971:__ZN9Scripting11UnityEngine9Playables18PlayableGraphProxy9InitProxyEv
4972:__ZN9Scripting11UnityEngine9Playables18PlayableGraphProxy12CleanupProxyEv
4973:__ZN9Scripting11UnityEngine9Playables22PlayableBehaviourProxy9InitProxyEv
4974:__ZN9Scripting11UnityEngine9Playables22PlayableBehaviourProxy12CleanupProxyEv
4975:__ZN9Scripting11UnityEngine9Playables18PlayableAssetProxy9InitProxyEv
4976:__ZN9Scripting11UnityEngine9Playables18PlayableAssetProxy12CleanupProxyEv
4977:__ZN9Scripting11UnityEngine9Playables13PlayableProxy9InitProxyEv
4978:__ZN9Scripting11UnityEngine9Playables13PlayableProxy12CleanupProxyEv
4979:__ZN9Scripting11UnityEngine10PlaneProxy9InitProxyEv
4980:__ZN9Scripting11UnityEngine10PlaneProxy12CleanupProxyEv
4981:__ZN9Scripting11UnityEngine10Networking16PlayerConnection21PlayerConnectionProxy9InitProxyEv
4982:__ZN9Scripting11UnityEngine10Networking16PlayerConnection21PlayerConnectionProxy12CleanupProxyEv
4983:__ZN9Scripting11UnityEngine21ScriptableObjectProxy9InitProxyEv
4984:__ZN9Scripting11UnityEngine21ScriptableObjectProxy12CleanupProxyEv
4985:__ZN9Scripting11UnityEngine18MonoBehaviourProxy9InitProxyEv
4986:__ZN9Scripting11UnityEngine18MonoBehaviourProxy12CleanupProxyEv
4987:__ZN9Scripting11UnityEngine17MeshRendererProxy9InitProxyEv
4988:__ZN9Scripting11UnityEngine17MeshRendererProxy12CleanupProxyEv
4989:__ZN9Scripting11UnityEngine13RendererProxy9InitProxyEv
4990:__ZN9Scripting11UnityEngine13RendererProxy12CleanupProxyEv
4991:__ZN9Scripting11UnityEngine15MeshFilterProxy9InitProxyEv
4992:__ZN9Scripting11UnityEngine15MeshFilterProxy12CleanupProxyEv
4993:__ZN9Scripting11UnityEngine9MeshProxy9InitProxyEv
4994:__ZN9Scripting11UnityEngine9MeshProxy12CleanupProxyEv
4995:__ZN9Scripting11UnityEngine14Matrix4x4Proxy9InitProxyEv
4996:__ZN9Scripting11UnityEngine14Matrix4x4Proxy12CleanupProxyEv
4997:__ZN9Scripting11UnityEngine13MaterialProxy9InitProxyEv
4998:__ZN9Scripting11UnityEngine13MaterialProxy12CleanupProxyEv
4999:__ZN9Scripting11UnityEngine25ManagedStreamHelpersProxy9InitProxyEv
5000:__ZN9Scripting11UnityEngine25ManagedStreamHelpersProxy12CleanupProxyEv
5001:__ZN9Scripting11UnityEngine24LowerResBlitTextureProxy9InitProxyEv
5002:__ZN9Scripting11UnityEngine24LowerResBlitTextureProxy12CleanupProxyEv
5003:__ZN9Scripting11UnityEngine8LODProxy9InitProxyEv
5004:__ZN9Scripting11UnityEngine8LODProxy12CleanupProxyEv
5005:__ZN9Scripting11UnityEngine17LightmapDataProxy9InitProxyEv
5006:__ZN9Scripting11UnityEngine17LightmapDataProxy12CleanupProxyEv
5007:__ZN9Scripting11UnityEngine14LayerMaskProxy9InitProxyEv
5008:__ZN9Scripting11UnityEngine14LayerMaskProxy12CleanupProxyEv
5009:__ZN9Scripting11UnityEngine13KeyframeProxy9InitProxyEv
5010:__ZN9Scripting11UnityEngine13KeyframeProxy12CleanupProxyEv
5011:__ZN9Scripting11UnityEngine31ImageEffectTransformsToLDRProxy9InitProxyEv
5012:__ZN9Scripting11UnityEngine31ImageEffectTransformsToLDRProxy12CleanupProxyEv
5013:__ZN9Scripting11UnityEngine22ImageEffectOpaqueProxy9InitProxyEv
5014:__ZN9Scripting11UnityEngine22ImageEffectOpaqueProxy12CleanupProxyEv
5015:__ZN9Scripting11UnityEngine26ImageEffectAfterScaleProxy9InitProxyEv
5016:__ZN9Scripting11UnityEngine26ImageEffectAfterScaleProxy12CleanupProxyEv
5017:__ZN9Scripting11UnityEngine20HideInInspectorProxy9InitProxyEv
5018:__ZN9Scripting11UnityEngine20HideInInspectorProxy12CleanupProxyEv
5019:__ZN9Scripting11UnityEngine21HelpURLAttributeProxy9InitProxyEv
5020:__ZN9Scripting11UnityEngine21HelpURLAttributeProxy12CleanupProxyEv
5021:__ZN9Scripting11UnityEngine12Hash128Proxy9InitProxyEv
5022:__ZN9Scripting11UnityEngine12Hash128Proxy12CleanupProxyEv
5023:__ZN9Scripting11UnityEngine21GradientColorKeyProxy9InitProxyEv
5024:__ZN9Scripting11UnityEngine21GradientColorKeyProxy12CleanupProxyEv
5025:__ZN9Scripting11UnityEngine21GradientAlphaKeyProxy9InitProxyEv
5026:__ZN9Scripting11UnityEngine21GradientAlphaKeyProxy12CleanupProxyEv
5027:__ZN9Scripting11UnityEngine13GradientProxy9InitProxyEv
5028:__ZN9Scripting11UnityEngine13GradientProxy12CleanupProxyEv
5029:__ZN9Scripting11UnityEngine15GameObjectProxy9InitProxyEv
5030:__ZN9Scripting11UnityEngine15GameObjectProxy12CleanupProxyEv
5031:__ZN9Scripting11UnityEngine29FailedToLoadScriptObjectProxy9InitProxyEv
5032:__ZN9Scripting11UnityEngine29FailedToLoadScriptObjectProxy12CleanupProxyEv
5033:__ZN9Scripting11UnityEngine12Experimental3U2D15SpriteBoneProxy9InitProxyEv
5034:__ZN9Scripting11UnityEngine12Experimental3U2D15SpriteBoneProxy12CleanupProxyEv
5035:__ZN9Scripting11UnityEngine12Experimental9Rendering27VisibleReflectionProbeProxy9InitProxyEv
5036:__ZN9Scripting11UnityEngine12Experimental9Rendering27VisibleReflectionProbeProxy12CleanupProxyEv
5037:__ZN9Scripting11UnityEngine12Experimental9Rendering17VisibleLightProxy9InitProxyEv
5038:__ZN9Scripting11UnityEngine12Experimental9Rendering17VisibleLightProxy12CleanupProxyEv
5039:__ZN9Scripting11UnityEngine12Experimental9Rendering31SupportedRenderingFeaturesProxy9InitProxyEv
5040:__ZN9Scripting11UnityEngine12Experimental9Rendering31SupportedRenderingFeaturesProxy12CleanupProxyEv
5041:__ZN9Scripting11UnityEngine12Experimental9Rendering20ShadowSplitDataProxy9InitProxyEv
5042:__ZN9Scripting11UnityEngine12Experimental9Rendering20ShadowSplitDataProxy12CleanupProxyEv
5043:__ZN9Scripting11UnityEngine12Experimental9Rendering32ScriptableCullingParametersProxy9InitProxyEv
5044:__ZN9Scripting11UnityEngine12Experimental9Rendering32ScriptableCullingParametersProxy12CleanupProxyEv
5045:__ZN9Scripting11UnityEngine12Experimental9Rendering26RenderPipelineManagerProxy9InitProxyEv
5046:__ZN9Scripting11UnityEngine12Experimental9Rendering26RenderPipelineManagerProxy12CleanupProxyEv
5047:__ZN9Scripting11UnityEngine12Experimental9Rendering24DrawShadowsSettingsProxy9InitProxyEv
5048:__ZN9Scripting11UnityEngine12Experimental9Rendering24DrawShadowsSettingsProxy12CleanupProxyEv
5049:__ZN9Scripting11UnityEngine12Experimental9Rendering16CullResultsProxy9InitProxyEv
5050:__ZN9Scripting11UnityEngine12Experimental9Rendering16CullResultsProxy12CleanupProxyEv
5051:__ZN9Scripting11UnityEngine12Experimental9Rendering21CoreCameraValuesProxy9InitProxyEv
5052:__ZN9Scripting11UnityEngine12Experimental9Rendering21CoreCameraValuesProxy12CleanupProxyEv
5053:__ZN9Scripting11UnityEngine12Experimental9Rendering21CameraPropertiesProxy9InitProxyEv
5054:__ZN9Scripting11UnityEngine12Experimental9Rendering21CameraPropertiesProxy12CleanupProxyEv
5055:__ZN9Scripting11UnityEngine12Experimental10PlayerLoop11UpdateProxy9InitProxyEv
5056:__ZN9Scripting11UnityEngine12Experimental10PlayerLoop11UpdateProxy12CleanupProxyEv
5057:__ZN9Scripting11UnityEngine12Experimental10PlayerLoop14PreUpdateProxy9InitProxyEv
5058:__ZN9Scripting11UnityEngine12Experimental10PlayerLoop14PreUpdateProxy12CleanupProxyEv
5059:__ZN9Scripting11UnityEngine12Experimental10PlayerLoop18PreLateUpdateProxy9InitProxyEv
5060:__ZN9Scripting11UnityEngine12Experimental10PlayerLoop18PreLateUpdateProxy12CleanupProxyEv
5061:__ZN9Scripting11UnityEngine12Experimental10PlayerLoop19PostLateUpdateProxy9InitProxyEv
5062:__ZN9Scripting11UnityEngine12Experimental10PlayerLoop19PostLateUpdateProxy12CleanupProxyEv
5063:__ZN9Scripting11UnityEngine12Experimental10PlayerLoop19InitializationProxy9InitProxyEv
5064:__ZN9Scripting11UnityEngine12Experimental10PlayerLoop19InitializationProxy12CleanupProxyEv
5065:__ZN9Scripting11UnityEngine12Experimental10PlayerLoop16FixedUpdateProxy9InitProxyEv
5066:__ZN9Scripting11UnityEngine12Experimental10PlayerLoop16FixedUpdateProxy12CleanupProxyEv
5067:__ZN9Scripting11UnityEngine12Experimental10PlayerLoop16EarlyUpdateProxy9InitProxyEv
5068:__ZN9Scripting11UnityEngine12Experimental10PlayerLoop16EarlyUpdateProxy12CleanupProxyEv
5069:__ZN9Scripting11UnityEngine12Experimental9Playables26TexturePlayableOutputProxy9InitProxyEv
5070:__ZN9Scripting11UnityEngine12Experimental9Playables26TexturePlayableOutputProxy12CleanupProxyEv
5071:__ZN9Scripting11UnityEngine12Experimental9Playables25TextureMixerPlayableProxy9InitProxyEv
5072:__ZN9Scripting11UnityEngine12Experimental9Playables25TextureMixerPlayableProxy12CleanupProxyEv
5073:__ZN9Scripting11UnityEngine12Experimental9Playables27MaterialEffectPlayableProxy9InitProxyEv
5074:__ZN9Scripting11UnityEngine12Experimental9Playables27MaterialEffectPlayableProxy12CleanupProxyEv
5075:__ZN9Scripting11UnityEngine12Experimental9Playables19CameraPlayableProxy9InitProxyEv
5076:__ZN9Scripting11UnityEngine12Experimental9Playables19CameraPlayableProxy12CleanupProxyEv
5077:__ZN9Scripting11UnityEngine12Experimental8LowLevel29PlayerLoopSystemInternalProxy9InitProxyEv
5078:__ZN9Scripting11UnityEngine12Experimental8LowLevel29PlayerLoopSystemInternalProxy12CleanupProxyEv
5079:__ZN9Scripting11UnityEngine12Experimental18GlobalIllumination17LightmappingProxy9InitProxyEv
5080:__ZN9Scripting11UnityEngine12Experimental18GlobalIllumination17LightmappingProxy12CleanupProxyEv
5081:__ZN9Scripting11UnityEngine12Experimental18GlobalIllumination16LightDataGIProxy9InitProxyEv
5082:__ZN9Scripting11UnityEngine12Experimental18GlobalIllumination16LightDataGIProxy12CleanupProxyEv
5083:__ZN9Scripting11UnityEngine31ExcludeFromPresetAttributeProxy9InitProxyEv
5084:__ZN9Scripting11UnityEngine31ExcludeFromPresetAttributeProxy12CleanupProxyEv
5085:__ZN9Scripting11UnityEngine38ExcludeFromObjectFactoryAttributeProxy9InitProxyEv
5086:__ZN9Scripting11UnityEngine38ExcludeFromObjectFactoryAttributeProxy12CleanupProxyEv
5087:__ZN9Scripting11UnityEngine6Events15UnityEventProxy9InitProxyEv
5088:__ZN9Scripting11UnityEngine6Events15UnityEventProxy12CleanupProxyEv
5089:__ZN9Scripting11UnityEngine6Events19UnityEventBaseProxy9InitProxyEv
5090:__ZN9Scripting11UnityEngine6Events19UnityEventBaseProxy12CleanupProxyEv
5091:__ZN9Scripting11UnityEngine13EnumInfoProxy9InitProxyEv
5092:__ZN9Scripting11UnityEngine13EnumInfoProxy12CleanupProxyEv
5093:__ZN9Scripting11UnityEngine12DisplayProxy9InitProxyEv
5094:__ZN9Scripting11UnityEngine12DisplayProxy12CleanupProxyEv
5095:__ZN9Scripting11UnityEngine21DiagnosticSwitchProxy9InitProxyEv
5096:__ZN9Scripting11UnityEngine21DiagnosticSwitchProxy12CleanupProxyEv
5097:__ZN9Scripting11UnityEngine26DefaultExecutionOrderProxy9InitProxyEv
5098:__ZN9Scripting11UnityEngine26DefaultExecutionOrderProxy12CleanupProxyEv
5099:__ZN9Scripting11UnityEngine34CustomRenderTextureUpdateZoneProxy9InitProxyEv
5100:__ZN9Scripting11UnityEngine34CustomRenderTextureUpdateZoneProxy12CleanupProxyEv
5101:__ZN9Scripting11UnityEngine24CustomRenderTextureProxy9InitProxyEv
5102:__ZN9Scripting11UnityEngine24CustomRenderTextureProxy12CleanupProxyEv
5103:__ZN9Scripting11UnityEngine18RenderTextureProxy9InitProxyEv
5104:__ZN9Scripting11UnityEngine18RenderTextureProxy12CleanupProxyEv
5105:__ZN9Scripting11UnityEngine17CullingGroupProxy9InitProxyEv
5106:__ZN9Scripting11UnityEngine17CullingGroupProxy12CleanupProxyEv
5107:__ZN9Scripting11UnityEngine12CubemapProxy9InitProxyEv
5108:__ZN9Scripting11UnityEngine12CubemapProxy12CleanupProxyEv
5109:__ZN9Scripting11UnityEngine12TextureProxy9InitProxyEv
5110:__ZN9Scripting11UnityEngine12TextureProxy12CleanupProxyEv
5111:__ZN9Scripting11UnityEngine14CoroutineProxy9InitProxyEv
5112:__ZN9Scripting11UnityEngine14CoroutineProxy12CleanupProxyEv
5113:__ZN9Scripting11UnityEngine16ContextMenuProxy9InitProxyEv
5114:__ZN9Scripting11UnityEngine16ContextMenuProxy12CleanupProxyEv
5115:__ZN9Scripting11UnityEngine18ComputeBufferProxy9InitProxyEv
5116:__ZN9Scripting11UnityEngine18ComputeBufferProxy12CleanupProxyEv
5117:__ZN9Scripting11UnityEngine15ColorGamutProxy9InitProxyEv
5118:__ZN9Scripting11UnityEngine15ColorGamutProxy12CleanupProxyEv
5119:__ZN9Scripting11UnityEngine12Color32Proxy9InitProxyEv
5120:__ZN9Scripting11UnityEngine12Color32Proxy12CleanupProxyEv
5121:__ZN9Scripting11UnityEngine10ColorProxy9InitProxyEv
5122:__ZN9Scripting11UnityEngine10ColorProxy12CleanupProxyEv
5123:__ZN9Scripting11UnityEngine28ClassLibraryInitializerProxy9InitProxyEv
5124:__ZN9Scripting11UnityEngine28ClassLibraryInitializerProxy12CleanupProxyEv
5125:__ZN9Scripting11UnityEngine11CameraProxy9InitProxyEv
5126:__ZN9Scripting11UnityEngine11CameraProxy12CleanupProxyEv
5127:__ZN9Scripting11UnityEngine15CacheIndexProxy9InitProxyEv
5128:__ZN9Scripting11UnityEngine15CacheIndexProxy12CleanupProxyEv
5129:__ZN9Scripting11UnityEngine22CachedAssetBundleProxy9InitProxyEv
5130:__ZN9Scripting11UnityEngine22CachedAssetBundleProxy12CleanupProxyEv
5131:__ZN9Scripting11UnityEngine14BoundsIntProxy9InitProxyEv
5132:__ZN9Scripting11UnityEngine14BoundsIntProxy12CleanupProxyEv
5133:__ZN9Scripting11UnityEngine11BoundsProxy9InitProxyEv
5134:__ZN9Scripting11UnityEngine11BoundsProxy12CleanupProxyEv
5135:__ZN9Scripting11UnityEngine12Vector3Proxy9InitProxyEv
5136:__ZN9Scripting11UnityEngine12Vector3Proxy12CleanupProxyEv
5137:__ZN9Scripting11UnityEngine19BootConfigDataProxy9InitProxyEv
5138:__ZN9Scripting11UnityEngine19BootConfigDataProxy12CleanupProxyEv
5139:__ZN9Scripting11UnityEngine15BoneWeightProxy9InitProxyEv
5140:__ZN9Scripting11UnityEngine15BoneWeightProxy12CleanupProxyEv
5141:__ZN9Scripting11UnityEngine14BehaviourProxy9InitProxyEv
5142:__ZN9Scripting11UnityEngine14BehaviourProxy12CleanupProxyEv
5143:__ZN9Scripting11UnityEngine14ComponentProxy9InitProxyEv
5144:__ZN9Scripting11UnityEngine14ComponentProxy12CleanupProxyEv
5145:__ZN9Scripting11UnityEngine11ObjectProxy9InitProxyEv
5146:__ZN9Scripting11UnityEngine11ObjectProxy12CleanupProxyEv
5147:__Z35scripting_class_get_field_from_name17ScriptingClassPtrPKc
5148:__ZN9Scripting11UnityEngine26AttributeHelperEngineProxy9InitProxyEv
5149:__ZN9Scripting11UnityEngine26AttributeHelperEngineProxy12CleanupProxyEv
5150:__ZN9Scripting11UnityEngine19AsyncOperationProxy9InitProxyEv
5151:__ZN9Scripting11UnityEngine19AsyncOperationProxy12CleanupProxyEv
5152:__ZN9Scripting11UnityEngine21YieldInstructionProxy9InitProxyEv
5153:__ZN9Scripting11UnityEngine21YieldInstructionProxy12CleanupProxyEv
5154:__ZN9Scripting11UnityEngine29AssemblyIsEditorAssemblyProxy9InitProxyEv
5155:__ZN9Scripting11UnityEngine29AssemblyIsEditorAssemblyProxy12CleanupProxyEv
5156:__ZN9Scripting11UnityEngine16ApplicationProxy9InitProxyEv
5157:__ZN9Scripting11UnityEngine16ApplicationProxy12CleanupProxyEv
5158:__ZN9Scripting11UnityEngine19AnimationCurveProxy9InitProxyEv
5159:__ZN9Scripting11UnityEngine19AnimationCurveProxy12CleanupProxyEv
5160:__ZN9Scripting5Unity11Collections23WriteOnlyAttributeProxy9InitProxyEv
5161:__ZN9Scripting5Unity11Collections23WriteOnlyAttributeProxy12CleanupProxyEv
5162:__ZN9Scripting5Unity11Collections22ReadOnlyAttributeProxy9InitProxyEv
5163:__ZN9Scripting5Unity11Collections22ReadOnlyAttributeProxy12CleanupProxyEv
5164:__ZN9Scripting5Unity11Collections44NativeMatchesParallelForLengthAttributeProxy9InitProxyEv
5165:__ZN9Scripting5Unity11Collections44NativeMatchesParallelForLengthAttributeProxy12CleanupProxyEv
5166:__ZN9Scripting5Unity11Collections31NativeFixedLengthAttributeProxy9InitProxyEv
5167:__ZN9Scripting5Unity11Collections31NativeFixedLengthAttributeProxy12CleanupProxyEv
5168:__ZN9Scripting5Unity11Collections49NativeDisableParallelForRestrictionAttributeProxy9InitProxyEv
5169:__ZN9Scripting5Unity11Collections49NativeDisableParallelForRestrictionAttributeProxy12CleanupProxyEv
5170:__ZN9Scripting5Unity11Collections8LowLevel6Unsafe34NativeSetThreadIndexAttributeProxy9InitProxyEv
5171:__ZN9Scripting5Unity11Collections8LowLevel6Unsafe34NativeSetThreadIndexAttributeProxy12CleanupProxyEv
5172:__ZN9Scripting5Unity11Collections8LowLevel6Unsafe48NativeSetClassTypeToNullOnScheduleAttributeProxy9InitProxyEv
5173:__ZN9Scripting5Unity11Collections8LowLevel6Unsafe48NativeSetClassTypeToNullOnScheduleAttributeProxy12CleanupProxyEv
5174:__ZN9Scripting5Unity11Collections8LowLevel6Unsafe47NativeDisableUnsafePtrRestrictionAttributeProxy9InitProxyEv
5175:__ZN9Scripting5Unity11Collections8LowLevel6Unsafe47NativeDisableUnsafePtrRestrictionAttributeProxy12CleanupProxyEv
5176:__ZN9Scripting5Unity11Collections8LowLevel6Unsafe53NativeDisableContainerSafetyRestrictionAttributeProxy9InitProxyEv
5177:__ZN9Scripting5Unity11Collections8LowLevel6Unsafe53NativeDisableContainerSafetyRestrictionAttributeProxy12CleanupProxyEv
5178:__ZN9Scripting5Unity11Collections8LowLevel6Unsafe59NativeContainerSupportsMinMaxWriteRestrictionAttributeProxy9InitProxyEv
5179:__ZN9Scripting5Unity11Collections8LowLevel6Unsafe59NativeContainerSupportsMinMaxWriteRestrictionAttributeProxy12CleanupProxyEv
5180:__ZN9Scripting5Unity11Collections8LowLevel6Unsafe54NativeContainerSupportsDeferredConvertListToArrayProxy9InitProxyEv
5181:__ZN9Scripting5Unity11Collections8LowLevel6Unsafe54NativeContainerSupportsDeferredConvertListToArrayProxy12CleanupProxyEv
5182:__ZN9Scripting5Unity11Collections8LowLevel6Unsafe62NativeContainerSupportsDeallocateOnJobCompletionAttributeProxy9InitProxyEv
5183:__ZN9Scripting5Unity11Collections8LowLevel6Unsafe62NativeContainerSupportsDeallocateOnJobCompletionAttributeProxy12CleanupProxyEv
5184:__ZN9Scripting5Unity11Collections8LowLevel6Unsafe45NativeContainerNeedsThreadIndexAttributeProxy9InitProxyEv
5185:__ZN9Scripting5Unity11Collections8LowLevel6Unsafe45NativeContainerNeedsThreadIndexAttributeProxy12CleanupProxyEv
5186:__ZN9Scripting5Unity11Collections8LowLevel6Unsafe39NativeContainerIsReadOnlyAttributeProxy9InitProxyEv
5187:__ZN9Scripting5Unity11Collections8LowLevel6Unsafe39NativeContainerIsReadOnlyAttributeProxy12CleanupProxyEv
5188:__ZN9Scripting5Unity11Collections8LowLevel6Unsafe46NativeContainerIsAtomicWriteOnlyAttributeProxy9InitProxyEv
5189:__ZN9Scripting5Unity11Collections8LowLevel6Unsafe46NativeContainerIsAtomicWriteOnlyAttributeProxy12CleanupProxyEv
5190:__ZN9Scripting5Unity11Collections8LowLevel6Unsafe29NativeContainerAttributeProxy9InitProxyEv
5191:__ZN9Scripting5Unity11Collections8LowLevel6Unsafe29NativeContainerAttributeProxy12CleanupProxyEv
5192:__ZN9Scripting5Unity11Collections39DeallocateOnJobCompletionAttributeProxy9InitProxyEv
5193:__ZN9Scripting5Unity11Collections39DeallocateOnJobCompletionAttributeProxy12CleanupProxyEv
5194:__ZN9Scripting5Unity11Collections14AllocatorProxy9InitProxyEv
5195:__ZN9Scripting5Unity11Collections14AllocatorProxy12CleanupProxyEv
5196:__ZN5Unity9Component16CheckConsistencyEv
5197:__ZNK5Unity9Component7GetNameEv
5198:__ZN5Unity9Component7SetNameEPKc
5199:__ZNK6Object20GetRuntimeMemorySizeEv
5200:__ZN6Object24SetCachedScriptingObjectE18ScriptingObjectPtr
5201:__ZN9Behaviour10DeactivateE19DeactivateOperation
5202:__ZN9Behaviour10SetEnabledEb
5203:__ZN9Transform18GetTransformAccessEv
5204:__ZN32TransformHierarchyChangeDispatch19SetSystemInterestedE15TransformAccess36TransformHierarchyChangeSystemHandleb
5205:__Z25FindAncestorComponentImplR10GameObjectPKN5Unity4TypeE
5206:__ZN14SafeBinaryRead13BeginTransferEPKcS1_PPFbPvRS_Eb
5207:__ZN14SafeBinaryRead11EndTransferEv
5208:__ZN9Behaviour8TransferI14SafeBinaryReadEEvRT_
5209:__ZN12CachedReader15UpdateReadCacheEPvj
5210:__ZN5Unity9Component8TransferI14SafeBinaryReadEEvRT_
5211:__ZN12ImmediatePtrI10GameObjectE8TransferI14SafeBinaryReadEEvRT_
5212:__Z43LocalSerializedObjectIdentifierToInstanceIDRK31LocalSerializedObjectIdentifierRi
5213:__Z38PreallocateObjectFromPersistentManagerib
5214:__ZN17PersistentManager43LocalSerializedObjectIdentifierToInstanceIDERK31LocalSerializedObjectIdentifierRiNS_9LockFlagsE
5215:__ZNK16TypeTreeIterator4NameEv
5216:__ZNK16TypeTreeIterator8ChildrenEv
5217:__ZL4WalkRK16TypeTreeIteratorR12CachedReaderPxb
5218:__ZNK16TypeTreeIterator4NextEv
5219:__Z29GetGlobalAllowNameConversionsv
5220:__Z23GetAllowNameConversionsPK20AllowNameConversionsPKcS3_
5221:__ZNK16TypeTreeIterator7GetNodeEv
5222:__ZNK16TypeTreeIterator4TypeEv
5223:__Z13FindConverterPKcS0_
5224:__ZN24GenerateTypeTreeTransfer13BeginTransferEPKcS1_Pc17TransferMetaFlags
5225:__ZN24GenerateTypeTreeTransfer11EndTransferEv
5226:__ZNK16TypeTreeIterator6FatherEv
5227:__ZN9Behaviour8TransferI24GenerateTypeTreeTransferEEvRT_
5228:__ZN24GenerateTypeTreeTransfer5AlignEv
5229:__ZNK16TypeTreeIterator4LastEv
5230:__ZN5Unity9Component8TransferI24GenerateTypeTreeTransferEEvRT_
5231:__ZN8TypeTree8AddChildERK16TypeTreeIterator
5232:__ZN8TypeTree16AssignTypeStringERK16TypeTreeIteratorPKc
5233:__ZN8TypeTree16AssignNameStringERK16TypeTreeIteratorPKc
5234:__ZN8TypeTree16AssignByteOffsetERK16TypeTreeIteratorj
5235:__ZN9Behaviour8TransferI17RemapPPtrTransferEEvRT_
5236:__ZN5Unity9Component8TransferI17RemapPPtrTransferEEvRT_
5237:__ZN17RemapPPtrTransfer12PushMetaFlagE17TransferMetaFlags
5238:__ZN17RemapPPtrTransfer11PopMetaFlagEv
5239:__ZN9Behaviour8TransferI18StreamedBinaryReadEEvRT_
5240:__ZN18StreamedBinaryRead5AlignEv
5241:__ZN12CachedReader10Align4ReadEv
5242:__ZN5Unity9Component8TransferI18StreamedBinaryReadEEvRT_
5243:__ZN12ImmediatePtrI10GameObjectE8TransferI18StreamedBinaryReadEEvRT_
5244:__ZN9Behaviour8TransferI19StreamedBinaryWriteEEvRT_
5245:__ZN12CachedWriter16UpdateWriteCacheEPKvj
5246:__ZN19StreamedBinaryWrite5AlignEv
5247:__ZN12CachedWriter11Align4WriteEv
5248:__ZN5Unity9Component8TransferI19StreamedBinaryWriteEEvRT_
5249:__ZN12ImmediatePtrI10GameObjectE8TransferI19StreamedBinaryWriteEEvRT_
5250:__Z43InstanceIDToLocalSerializedObjectIdentifieriR31LocalSerializedObjectIdentifier
5251:__ZN17PersistentManager43InstanceIDToLocalSerializedObjectIdentifierEiR31LocalSerializedObjectIdentifier
5252:__ZN17PersistentManager32GlobalToLocalSerializedFileIndexERK26SerializedObjectIdentifier
5253:__ZN19dynamic_block_arrayI14FileIdentifierLj1024EE12emplace_backIS0_EERS0_RKT_
5254:__ZN10GameObject20AddComponentInternalEPN5Unity9ComponentE
5255:__ZN10GameObject28FinalizeAddComponentInternalEPN5Unity9ComponentE
5256:__ZN9Behaviour13AwakeFromLoadE17AwakeFromLoadMode
5257:__ZNK5Unity9Component22GetTypeVirtualInternalEv
5258:__ZN5Unity9Component23VirtualRedirectTransferER18StreamedBinaryRead
5259:__ZN5Unity9Component23VirtualRedirectTransferER24GenerateTypeTreeTransfer
5260:__ZN5Unity9Component23VirtualRedirectTransferER14SafeBinaryRead
5261:__ZN5Unity9Component10SetEnabledEb
5262:__ZN9BehaviourD2Ev
5263:__ZNK9Behaviour22GetTypeVirtualInternalEv
5264:__ZN9Behaviour23VirtualRedirectTransferER18StreamedBinaryRead
5265:__ZN9Behaviour23VirtualRedirectTransferER24GenerateTypeTreeTransfer
5266:__ZN9Behaviour23VirtualRedirectTransferER14SafeBinaryRead
5267:__ZN11NamedObject7SetNameEPKc
5268:__ZN11NamedObject8TransferI14SafeBinaryReadEEvRT_
5269:__ZN14SafeBinaryRead21TransferSTLStyleArrayI13dynamic_arrayIN4core12basic_stringIcNS2_20StringStorageDefaultIcEEEELj0EEEEvRT_17TransferMetaFlags
5270:__ZN14SafeBinaryRead18BeginArrayTransferEPKcS1_Ri
5271:__ZN14SafeBinaryRead16EndArrayTransferEv
5272:__ZN10SpookyHash7Hash128EPKvjPyS2_
5273:__ZNK7Hash12812PackToUInt32Ev
5274:__ZN10SpookyHash5ShortEPKvjPyS2_
5275:__ZN5RectTIfE8TransferI14SafeBinaryReadEEvRT_
5276:__ZN14SafeBinaryRead10SetVersionEi
5277:__ZN14ConstantString6assignEPKc10MemLabelId
5278:__ZN11NamedObject8TransferI24GenerateTypeTreeTransferEEvRT_
5279:__ZN24GenerateTypeTreeTransfer18BeginArrayTransferEPKcS1_Ri17TransferMetaFlags
5280:__ZN24GenerateTypeTreeTransfer16EndArrayTransferEv
5281:__ZN24GenerateTypeTreeTransfer10SetVersionEi
5282:__ZN11NamedObject8TransferI17RemapPPtrTransferEEvRT_
5283:__ZN11NamedObject8TransferI18StreamedBinaryReadEEvRT_
5284:__ZN11NamedObject8TransferI19StreamedBinaryWriteEEvRT_
5285:__ZN14ConstantStringD2Ev
5286:__ZNK11NamedObject22GetTypeVirtualInternalEv
5287:__ZN11NamedObject23VirtualRedirectTransferER18StreamedBinaryRead
5288:__ZN11NamedObject23VirtualRedirectTransferER24GenerateTypeTreeTransfer
5289:__ZN11NamedObject23VirtualRedirectTransferER14SafeBinaryRead
5290:__ZN12TLSAllocatorI14StackAllocatorED2Ev
5291:__ZN12TLSAllocatorI14StackAllocatorED0Ev
5292:__ZN12TLSAllocatorI14StackAllocatorE10DeallocateEPv
5293:__ZNK12TLSAllocatorI14StackAllocatorE8ContainsEPKv
5294:__ZNK12TLSAllocatorI14StackAllocatorE10GetPtrSizeEPKv
5295:__ZNK12TLSAllocatorI14StackAllocatorE10IsAssignedEv
5296:__ZNK12TLSAllocatorI14StackAllocatorE22GetAllocatedMemorySizeEv
5297:__ZNK12TLSAllocatorI14StackAllocatorE21GetReservedMemorySizeEv
5298:__ZNK12TLSAllocatorI14StackAllocatorE24GetBookKeepingMemorySizeEv
5299:__ZN12TLSAllocatorI14StackAllocatorE16ThreadInitializeEP13BaseAllocator
5300:__ZN12TLSAllocatorI14StackAllocatorE13ThreadCleanupEv
5301:__ZN12TLSAllocatorI14StackAllocatorE16FrameMaintenanceEb
5302:__ZNK12TLSAllocatorI14StackAllocatorE17GetProfilerHeaderEPKv
5303:__ZNK12TLSAllocatorI14StackAllocatorE19GetRequestedPtrSizeEPKv
5304:__ZNK12TLSAllocatorI14StackAllocatorE15WalkAllocationsEPFvPKvjPKPvjE
5305:__ZNK14StackAllocator15WalkAllocationsEPFvPKvjPKPvjE
5306:__ZNK14StackAllocator20IsOverflowAllocationEPKv
5307:__ZN25ThreadsafeLinearAllocatorD2Ev
5308:__ZN25ThreadsafeLinearAllocatorD0Ev
5309:__ZN25ThreadsafeLinearAllocator8AllocateEji
5310:__ZN25ThreadsafeLinearAllocator10ReallocateEPvji
5311:__ZN25ThreadsafeLinearAllocator10DeallocateEPv
5312:__ZN25ThreadsafeLinearAllocator13TryDeallocateEPv
5313:__ZNK25ThreadsafeLinearAllocator8ContainsEPKv
5314:__ZNK25ThreadsafeLinearAllocator10GetPtrSizeEPKv
5315:__ZNK25ThreadsafeLinearAllocator22GetAllocatedMemorySizeEv
5316:__ZNK25ThreadsafeLinearAllocator21GetReservedMemorySizeEv
5317:__ZN25ThreadsafeLinearAllocator16FrameMaintenanceEb
5318:__ZNK25ThreadsafeLinearAllocator19GetRequestedPtrSizeEPKv
5319:__ZN25ThreadsafeLinearAllocator15SelectFreeBlockEv
5320:__ZN14StackAllocatorD2Ev
5321:__ZN14StackAllocatorD0Ev
5322:__ZNK14StackAllocator8ContainsEPKv
5323:__ZN14StackAllocator16FrameMaintenanceEb
5324:__ZN13MemoryManager18LowLevelReallocateEPvjj
5325:__ZN10TagManagerD2Ev
5326:__ZN10TagManagerD0Ev
5327:__ZN11GameManager17MainThreadCleanupEv
5328:__ZN10TagManager5ResetEv
5329:__ZNK10TagManager22GetTypeVirtualInternalEv
5330:__ZN10TagManager23VirtualRedirectTransferER19StreamedBinaryWrite
5331:__ZN10TagManager23VirtualRedirectTransferER18StreamedBinaryRead
5332:__ZN10TagManager23VirtualRedirectTransferER17RemapPPtrTransfer
5333:__ZN10TagManager23VirtualRedirectTransferER24GenerateTypeTreeTransfer
5334:__ZN10TagManager23VirtualRedirectTransferER14SafeBinaryRead
5335:__ZN10TagManager8TransferI14SafeBinaryReadEEvRT_
5336:__ZN10TagManager32RegisterDefaultTagsAndLayerMasksEv
5337:__ZN10TagManager11RegisterTagEjRKN4core12basic_stringIcNS0_20StringStorageDefaultIcEEEE
5338:__ZN14SafeBinaryRead12IsOldVersionEi
5339:__ZN10TagManager13RegisterLayerEjRKN4core12basic_stringIcNS0_20StringStorageDefaultIcEEEE
5340:__ZN14SafeBinaryRead21TransferSTLStyleArrayI13dynamic_arrayI17SortingLayerEntryLj0EEEEvRT_17TransferMetaFlags
5341:__ZN13dynamic_arrayI17SortingLayerEntryLj0EE6insertEPS0_jRKS0_
5342:__ZN13dynamic_arrayI17SortingLayerEntryLj0EE18resize_initializedEj12ResizePolicy
5343:__ZN15SerializeTraitsI17SortingLayerEntryE8TransferI14SafeBinaryReadEEvRS0_RT_
5344:__ZNSt3__26__treeINS_12__value_typeIN4core12basic_stringIcNS2_20StringStorageDefaultIcEEEEjEENS_19__map_value_compareIS6_S7_NS_4lessIS6_EELb1EEE13stl_allocatorIS7_L18MemLabelIdentifier7ELi16EEE25__emplace_unique_key_argsIS6_JNS_4pairIS6_jEEEEENSH_INS_15__tree_iteratorIS7_PNS_11__tree_nodeIS7_PvEEiEEbEERKT_DpOT0_
5345:__ZNSt3__26__treeINS_12__value_typeIjN4core12basic_stringIcNS2_20StringStorageDefaultIcEEEEEENS_19__map_value_compareIjS7_NS_4lessIjEELb1EEE13stl_allocatorIS7_L18MemLabelIdentifier7ELi16EEE25__emplace_unique_key_argsIjJNS_4pairIjS6_EEEEENSH_INS_15__tree_iteratorIS7_PNS_11__tree_nodeIS7_PvEEiEEbEERKT_DpOT0_
5346:__ZNSt3__26__treeINS_12__value_typeIN4core12basic_stringIcNS2_20StringStorageDefaultIcEEEEjEENS_19__map_value_compareIS6_S7_NS_4lessIS6_EELb1EEE13stl_allocatorIS7_L18MemLabelIdentifier7ELi16EEE7destroyEPNS_11__tree_nodeIS7_PvEE
5347:__ZNSt3__26__treeINS_12__value_typeIjN4core12basic_stringIcNS2_20StringStorageDefaultIcEEEEEENS_19__map_value_compareIjS7_NS_4lessIjEELb1EEE13stl_allocatorIS7_L18MemLabelIdentifier7ELi16EEE7destroyEPNS_11__tree_nodeIS7_PvEE
5348:__ZN10TagManager8TransferI24GenerateTypeTreeTransferEEvRT_
5349:__ZN15SerializeTraitsI13dynamic_arrayI17SortingLayerEntryLj0EEE8TransferI24GenerateTypeTreeTransferEEvRS2_RT_
5350:__ZN10TagManager8TransferI17RemapPPtrTransferEEvRT_
5351:__ZN10TagManager8TransferI18StreamedBinaryReadEEvRT_
5352:__ZN18StreamedBinaryRead21TransferSTLStyleArrayI13dynamic_arrayI17SortingLayerEntryLj0EEEEvRT_17TransferMetaFlags
5353:__ZN10TagManager8TransferI19StreamedBinaryWriteEEvRT_
5354:__ZN15SerializeTraitsI13dynamic_arrayI17SortingLayerEntryLj0EEE8TransferI19StreamedBinaryWriteEEvRS2_RT_
5355:__Z17GetManagerContextv
5356:__ZN10TagManager15ThreadedCleanupEv
5357:__ZN11GameManagerD2Ev
5358:__ZN11GameManagerD0Ev
5359:__ZNK11GameManager22GetTypeVirtualInternalEv
5360:__ZNK17GlobalGameManager22GetTypeVirtualInternalEv
5361:__ZN17GlobalGameManager23VirtualRedirectTransferER18StreamedBinaryRead
5362:__ZN17GlobalGameManager23VirtualRedirectTransferER24GenerateTypeTreeTransfer
5363:__ZN17GlobalGameManager23VirtualRedirectTransferER14SafeBinaryRead
5364:__ZNK6Object22GetTypeVirtualInternalEv
5365:__ZNK16LevelGameManager22GetTypeVirtualInternalEv
5366:__ZN16LevelGameManager23VirtualRedirectTransferER24GenerateTypeTreeTransfer
5367:__ZN16LevelGameManager23VirtualRedirectTransferER14SafeBinaryRead
5368:__ZN10GameObjectD2Ev
5369:__ZN10GameObjectD0Ev
5370:__ZN10GameObject13AwakeFromLoadE17AwakeFromLoadMode
5371:__ZN10GameObject16CheckConsistencyEv
5372:__ZN10GameObject5ResetEv
5373:__ZNK10GameObject22GetTypeVirtualInternalEv
5374:__ZNK10GameObject7GetNameEv
5375:__ZN10GameObject7SetNameEPKc
5376:__ZN10GameObject12SetHideFlagsEN6Object9HideFlagsE
5377:__ZN10GameObject23VirtualRedirectTransferER19StreamedBinaryWrite
5378:__ZN10GameObject23VirtualRedirectTransferER18StreamedBinaryRead
5379:__ZN10GameObject23VirtualRedirectTransferER17RemapPPtrTransfer
5380:__ZN10GameObject23VirtualRedirectTransferER24GenerateTypeTreeTransfer
5381:__ZN10GameObject23VirtualRedirectTransferER14SafeBinaryRead
5382:__ZN10GameObject8TransferI14SafeBinaryReadEEvRT_
5383:__ZN10GameObject18TransferComponentsI14SafeBinaryReadEEvRT_
5384:__ZN14SafeBinaryRead23IsVersionSmallerOrEqualEi
5385:__ZN14SafeBinaryRead21TransferSTLStyleArrayI13dynamic_arrayINSt3__24pairIi12ImmediatePtrIN5Unity9ComponentEEEELj0EEEEvRT_17TransferMetaFlags
5386:__ZN14SafeBinaryRead21TransferSTLStyleArrayI13dynamic_arrayIN10GameObject13ComponentPairELj0EEEEvRT_17TransferMetaFlags
5387:__ZN12ImmediatePtrIN5Unity9ComponentEE8TransferI14SafeBinaryReadEEvRT_
5388:__ZN14SafeBinaryRead8TransferIN10GameObject13ComponentPairEEEvRT_PKc17TransferMetaFlags
5389:__ZN15SerializeTraitsINSt3__24pairIi12ImmediatePtrIN5Unity9ComponentEEEEE8TransferI14SafeBinaryReadEEvRS6_RT_
5390:__ZN10GameObject8TransferI24GenerateTypeTreeTransferEEvRT_
5391:__ZN10GameObject18TransferComponentsI24GenerateTypeTreeTransferEEvRT_
5392:__ZN17RemapPPtrTransfer8TransferI13dynamic_arrayIN10GameObject13ComponentPairELj0EEEEvRT_PKc17TransferMetaFlags
5393:__ZN10GameObject8TransferI18StreamedBinaryReadEEvRT_
5394:__ZN18StreamedBinaryRead21TransferSTLStyleArrayI13dynamic_arrayIN10GameObject13ComponentPairELj0EEEEvRT_17TransferMetaFlags
5395:__ZN12ImmediatePtrIN5Unity9ComponentEE8TransferI18StreamedBinaryReadEEvRT_
5396:__ZN10GameObject8TransferI19StreamedBinaryWriteEEvRT_
5397:__Z17IsObjectAvailablei
5398:__ZN10GameObject21EnsureUniqueTransformEv
5399:__Z24MergeTransformComponentsR9TransformS0_b
5400:__Z30AddTransformComponentUncheckedR10GameObjectPKN5Unity4TypeE
5401:__ZN13dynamic_arrayIN10GameObject13ComponentPairELj0EE6insertEPS1_jRKS1_
5402:__ZN9Transform7GetRootEv
5403:__ZN9Transform47ClearTransformHierarchyAndApplyToSerializedDataEv
5404:__ZN9Transform8GetSceneEv
5405:__ZN10UnityScene19RemoveRootFromSceneER9Transformb
5406:__ZN10UnityScene14AddRootToSceneERS_R9Transform
5407:__ZN9Transform4FindEPKS_
5408:__ZN9Transform25RebuildTransformHierarchyEv
5409:__ZN9Transform30EnsureTransformHierarchyExistsEv
5410:__ZN9Transform35SetLocalPositionWithoutNotificationERKN4math7_float3Ey
5411:__ZN9Transform35SetLocalRotationWithoutNotificationERKN4math7_float4Ey
5412:__ZN9Transform32SetLocalScaleWithoutNotificationERKN4math7_float3Ey
5413:__ZN2UI13RectTransform38SetAnchoredPositionWithoutNotificationERK8Vector2f
5414:__ZN17TransformInternal36OnScaleChangedCalculateTransformTypeE15TransformAccess
5415:__ZNK9Transform14CountNodesDeepEv
5416:__ZN17TransformInternal24CreateTransformHierarchyEj10MemLabelId
5417:__ZN17TransformInternal23AllocateTransformThreadER18TransformHierarchyjj
5418:__ZN9Transform37InitializeTransformHierarchyRecursiveER18TransformHierarchyRii
5419:__ZN23TransformChangeDispatch32QueueTransformChangeIfHasChangedERK15TransformAccess
5420:__ZN17TransformInternal25DestroyTransformHierarchyEP18TransformHierarchy
5421:__ZN23TransformChangeDispatch24RemoveTransformHierarchyER18TransformHierarchy
5422:__ZN23TransformChangeDispatch32QueueTransformChangeIfHasChangedER18TransformHierarchy
5423:__ZN17TransformInternal12InitLocalTRSE15TransformAccessRKN4math7_float3ERKNS1_7_float4ES4_
5424:__ZN32TransformHierarchyChangeDispatch19GetSystemInterestedE23TransformAccessReadOnly36TransformHierarchyChangeSystemHandle
5425:__ZN23TransformChangeDispatch29RecalculatePermanentInterestsE15TransformAccess
5426:__ZN14BatchAllocator16AllocateInternalEPPvijjj
5427:__ZN14BatchAllocator6CommitERK10MemLabelId
5428:__ZN23TransformChangeDispatch37InitTransformHierarchyTRSChangedMasksER18TransformHierarchy
5429:__ZN14BatchAllocatorC2Ev
5430:__ZN17PersistentManager17IsObjectAvailableEi
5431:__ZN15SharedLightData5ResetEv
5432:__ZN14ShadowSettings5ResetEv
5433:__ZN12BaseRendererD2Ev
5434:__ZN12BaseRenderer23RendererCullingCallbackEv
5435:__ZN12BaseRenderer17GetSortingGroupIDEj
5436:__ZN12BaseRenderer17SetSortingGroupIDEjj
5437:__ZN12BaseRenderer20GetSortingGroupOrderEj
5438:__ZN12BaseRenderer20SetSortingGroupOrderEjj
5439:__ZNK12BaseRenderer21GetGlobalLayeringDataEj
5440:__ZN12BaseRenderer21SetGlobalLayeringDataE18GlobalLayeringDataj
5441:__Z16GetRenderManagerv
5442:__ZN13RenderManager19GetCurrentCameraPtrEv
5443:__ZNK6Camera22GetWorldToCameraMatrixEv
5444:__ZN33RendererCullingCallbackPropertiesC2ERK6CameraRK10Matrix4x4f
5445:__ZNK6Camera33CalculateFarPlaneWorldSpaceLengthEv
5446:__ZNK6Camera6GetFarEv
5447:__ZNK6Camera16GetCullingMatrixEv
5448:__ZNK6Camera20GetWorldToClipMatrixEv
5449:__ZNK6Camera19GetProjectionMatrixEv
5450:__ZN10Matrix4x4f8SetScaleERK8Vector3f
5451:__ZNK9Transform28GetWorldToLocalMatrixNoScaleEv
5452:__ZN10Matrix4x4fmLERKS_
5453:__Z22MultiplyMatrices4x4REFPK10Matrix4x4fS1_PS_
5454:__ZNK6Camera22ShouldUseVRFieldOfViewEv
5455:__ZN10Matrix4x4f14SetPerspectiveEffff
5456:__ZN10Matrix4x4f8SetOrthoEffffff
5457:__Z23IsWorldPlayingThisFramev
5458:__Z16GetScreenManagerv
5459:__ZNK6Camera13GetCameraRectEbb
5460:__ZNK6Camera18ScreenToWorldPointERK8Vector3f21MonoOrStereoscopicEye
5461:__Z14RectfToRectIntRK5RectTIfE
5462:__ZNK6Camera19GetStereoViewMatrixE15StereoscopicEye
5463:__Z25InvertMatrix4x4_General3DPKfPf
5464:__ZNK6Camera25GetStereoProjectionMatrixE15StereoscopicEye
5465:__Z20InvertMatrix4x4_FullPKfPf
5466:__Z15CameraUnProjectRK8Vector3fRK10Matrix4x4fS4_RK5RectTIiERS_b
5467:__ZL19GetCameraTargetRectRK6Camerabbb
5468:__ZNK13RenderTexture14GetScaledWidthEv
5469:__ZNK13RenderTexture15GetScaledHeightEv
5470:__ZN21ScalableBufferManager11GetInstanceEv
5471:__ZN21ScalableBufferManager19GetWidthScaleFactorEv
5472:__ZN21ScalableBufferManager20GetHeightScaleFactorEv
5473:__ZN13RuntimeStaticI21ScalableBufferManagerLb0EE10InitializeEv
5474:__Z18GetQualitySettingsv
5475:__ZN6CameraD2Ev
5476:__ZN6CameraD0Ev
5477:__ZN6Camera17MainThreadCleanupEv
5478:__ZN6Camera13AwakeFromLoadE17AwakeFromLoadMode
5479:__ZN6Camera16CheckConsistencyEv
5480:__ZN6Camera5ResetEv
5481:__ZNK6Camera22GetTypeVirtualInternalEv
5482:__ZN6Camera23VirtualRedirectTransferER19StreamedBinaryWrite
5483:__ZN6Camera23VirtualRedirectTransferER18StreamedBinaryRead
5484:__ZN6Camera23VirtualRedirectTransferER17RemapPPtrTransfer
5485:__ZN6Camera23VirtualRedirectTransferER24GenerateTypeTreeTransfer
5486:__ZN6Camera23VirtualRedirectTransferER14SafeBinaryRead
5487:__ZN6Camera12AddToManagerEv
5488:__ZN6Camera17RemoveFromManagerEv
5489:__Z30GetIntermediateRendererManagerv
5490:__ZN27IntermediateRendererManager26ClearIntermediateRenderersEij
5491:__ZN13RenderManager12RemoveCameraEP6Camera
5492:__ZNSt3__24listI4PPtrI6CameraENS_9allocatorIS3_EEE6removeERKS3_
5493:__ZN13RenderManager9AddCameraEP6Camera
5494:__ZN6Camera38InitializePreviousViewProjectionMatrixEv
5495:__ZNK6Camera16GetTargetTextureEv
5496:__ZN6Camera8TransferI14SafeBinaryReadEEvRT_
5497:__ZN15SerializeTraitsI10ColorRGBAfE8TransferI14SafeBinaryReadEEvRS0_RT_
5498:__ZN14SafeBinaryRead8TransferI8BitFieldEEvRT_PKc17TransferMetaFlags
5499:__ZN6Camera8TransferI24GenerateTypeTreeTransferEEvRT_
5500:__ZN10ColorRGBAf8TransferI24GenerateTypeTreeTransferEEvRT_
5501:__ZN6Camera8TransferI18StreamedBinaryReadEEvRT_
5502:__ZN6Camera8TransferI19StreamedBinaryWriteEEvRT_
5503:__Z19GetGraphicsSettingsv
5504:__ZN13MonoBehaviour33AddImageEffectCallbacksToManagersEv
5505:__Z30scripting_method_has_attribute18ScriptingMethodPtr17ScriptingClassPtr
5506:__ZN13MonoBehaviour17RenderImageFilterEPN5Unity9ComponentEP13RenderTextureS4_
5507:__ZN6Camera14AddImageFilterERK11ImageFilter
5508:__Z25GetRenderLoopImageFiltersR10RenderLoop
5509:__ZN12ImageFilters14AddImageFilterERK11ImageFilter
5510:__ZN12ImageFilters17RemoveImageFilterERK11ImageFilter
5511:__ZNSt3__26vectorI11ImageFilterNS_9allocatorIS1_EEE6insertENS_11__wrap_iterIPKS1_EERS6_
5512:__ZN13MonoBehaviour30InvokeMethodOrCoroutineCheckedE18ScriptingMethodPtr18ScriptingObjectPtr
5513:__Z26profiler_get_info_for_namePKctN9profiling6Marker5FlagsE
5514:__ZN9Scripting19ScriptingWrapperForEP6Object
5515:__ZN9Scripting34ScriptingWrapperClassForNativeTypeEPKN5Unity4TypeE
5516:__Z33scripting_unity_engine_object_new17ScriptingClassPtrP6Object
5517:__ZN19ScriptingInvocationC2E18ScriptingObjectPtr18ScriptingMethodPtr
5518:__ZN13MonoBehaviour30InvokeMethodOrCoroutineCheckedE18ScriptingMethodPtr18ScriptingObjectPtrP21ScriptingExceptionPtr
5519:__Z11IsCoroutine18ScriptingMethodPtrRK22CommonScriptingClasses
5520:__ZN13MonoBehaviour24TryCreateAndRunCoroutineE18ScriptingObjectPtr18ScriptingMethodPtrPP9Coroutine
5521:__Z35scripting_object_get_virtual_method18ScriptingObjectPtr18ScriptingMethodPtr
5522:__ZN9Coroutine17SetMoveNextMethodE18ScriptingMethodPtr
5523:__ZN9Coroutine16SetCurrentMethodE18ScriptingMethodPtr
5524:__ZN9Coroutine3RunEPb
5525:__ZN9Coroutine16CleanupCoroutineEPv
5526:__ZN14AsyncOperation20SetCoroutineCallbackEPF15CallObjectStateP6ObjectPvES2_S3_PFS0_S3_E
5527:__ZN9Coroutine14InvokeMoveNextEP21ScriptingExceptionPtr
5528:__ZN9Coroutine23ProcessCoroutineCurrentEv
5529:__Z28scripting_class_is_valuetype17ScriptingClassPtr
5530:__Z22scripting_object_unbox18ScriptingObjectPtr
5531:__ZN9Coroutine17ContinueCoroutineEP6ObjectPv
5532:__Z11CallDelayedPF15CallObjectStateP6ObjectPvE4PPtrIS0_EfS2_fPFS_S2_EN18DelayedCallManager15DelayedCallModeE
5533:__ZN9Coroutine35HandleIEnumerableCurrentReturnValueE18ScriptingObjectPtr
5534:__ZN9CoroutineC2Ev
5535:__Z23scripting_type_get_type16ScriptingTypePtr
5536:__Z24scripting_class_get_type17ScriptingClassPtr
5537:__Z20scripting_object_new17ScriptingClassPtr
5538:__ZN19RenderEventsContext23RemoveAllCommandBuffersEv
5539:__ZN13RenderTexture7ReleaseEv
5540:__ZN6Camera21CleanupAfterRenderingEPK11CullResults
5541:__Z19GetCoreCameraValuesRK6CameraR16CoreCameraValues
5542:__ZN15LODGroupManager26CollectAllLODGroupManagersERK16CoreCameraValuesR13dynamic_arrayIPS_Lj0EEb
5543:__ZN15LODGroupManager20DestroyCameraLODDataEi
5544:__Z22CleanupAfterRenderLoopR10RenderLoop
5545:__Z22GetRenderBufferManagerv
5546:__ZN19RenderBufferManager8Textures17ReleaseTempBufferEP13RenderTexture
5547:__Z19ClearShadowMapCacheP14ShadowMapCache
5548:__ZNSt3__26__treeINS_12__value_typeIi17ShadowCachingDataEENS_19__map_value_compareIiS3_NS_4lessIiEELb1EEE13stl_allocatorIS3_L18MemLabelIdentifier66ELi16EEE7destroyEPNS_11__tree_nodeIS3_PvEE
5549:__ZN4core8hash_mapI17RenderTextureDescPN19RenderBufferManager8Textures12TextureEntryENS3_9KeyHasherENSt3__28equal_toIS1_EEE6insertERKS1_RKS5_
5550:__ZN13RenderTexture21SwitchOutOfFastMemoryEb
5551:__ZN9ShaderLab23ClearGrabPassFrameStateEv
5552:__ZN17RenderLoopContextD2Ev
5553:__ZN19SharedRendererSceneD2Ev
5554:__ZNK15RenderNodeQueue17SyncDependentJobsEv
5555:__ZN27PerObjectLightCullingOutputD2Ev
5556:__ZN12ActiveLightsD2Ev
5557:__ZN19RenderEventsContextD2Ev
5558:__ZN19RenderEventsContext20RemoveCommandBuffersEi
5559:__ZN22RenderingCommandBufferD2Ev
5560:__ZN22RenderingCommandBuffer13ClearCommandsEv
5561:__ZN14GrowableBufferD2Ev
5562:__ZN17GPUFenceInternals7ReleaseEv
5563:__ZNK17ScriptingGCHandle7ReleaseEv
5564:__ZN9GfxDevice15ReleaseGPUFenceEPv
5565:__ZN16RenderTextureMap5QueryEPK17RenderSurfaceBase
5566:__ZN13RenderTexture21MakeRenderTargetSetupEiP12ObjectHandleI17RenderSurface_TagP17RenderSurfaceBaseES4_i11CubemapFaceiNS_14SetActiveFlagsE
5567:__ZN13RenderTexture9SetActiveERK20GfxRenderTargetSetupPPS_NS_14SetActiveFlagsE
5568:__ZN13RenderTexture15DestroySurfacesEv
5569:__ZN16RenderTextureMap6RemoveEPK17RenderSurfaceBase
5570:__ZN6Camera24OnRenderSurfaceDestroyedE12ObjectHandleI17RenderSurface_TagP17RenderSurfaceBaseEP13RenderTexture
5571:__ZN13RenderTexture25ResolveAntiAliasedSurfaceEv
5572:__ZN9GfxDevice16SetRenderTargetsERK20GfxRenderTargetSetup
5573:__Z15gpu_time_samplev
5574:__ZNK6Camera20IsCurrentlyRenderingEv
5575:__ZNK6Camera25GetNormalizedViewportRectEP13RenderTextureb
5576:__ZN9profiling8Profiler14BeginGPUSampleE10GpuSection
5577:__ZN9profiling17PerThreadProfiler14BeginGPUSampleE10GpuSection
5578:__ZN9profiling17PerThreadProfiler36EmitLocalAsyncMetadataAnchorInternalEv
5579:__Z22CalculateMipMapCount3Diii
5580:__Z16DeleteRenderLoopP10RenderLoop
5581:__Z21DestroyShadowMapCacheP14ShadowMapCache
5582:__ZN12FlareManager8AddFlareENS_9OwnerTypeE
5583:__ZN12FlareManager11UpdateFlareEiP5FlareR9TransformbfRK10ColorRGBAffjj
5584:__ZNSt3__26vectorIN12FlareManager10FlareEntryENS_9allocatorIS2_EEE21__push_back_slow_pathIS2_EEvOT_
5585:__ZN10FlareLayerD0Ev
5586:__ZNK10FlareLayer22GetTypeVirtualInternalEv
5587:__ZN10FlareLayer12AddToManagerEv
5588:__ZN10FlareLayer17RemoveFromManagerEv
5589:__ZN12FlareManager12RemoveCameraER6Camera
5590:__ZN12FlareManager9AddCameraER6Camera
5591:__ZNSt3__26vectorIfNS_9allocatorIfEEE8__appendEjRKf
5592:__ZN20IntermediateRendererD2Ev
5593:__ZN20IntermediateRendererD0Ev
5594:__ZN20IntermediateRenderer15AddAsRenderNodeER15RenderNodeQueueRK20DeprecatedSourceData
5595:__ZNK20IntermediateRenderer8GetLayerEv
5596:__ZNK20IntermediateRenderer11GetMaterialEi
5597:__ZN12BaseRenderer16FlattenBasicDataERKS_fR10RenderNode
5598:__ZN12BaseRenderer18FlattenCustomPropsEPKPK19ShaderPropertySheetiR22PerThreadPageAllocatorR10RenderNode
5599:__ZN12BaseRenderer21FlattenEmptyProbeDataER10RenderNode
5600:__ZN12BaseRenderer25FlattenSharedMaterialDataILb0EEEbRKS_R22PerThreadPageAllocatorR10RenderNode
5601:__ZN22PerThreadPageAllocator14AcquireNewPageEj
5602:__ZN8Material25AcquireSharedMaterialDataEv
5603:__ZN8Material10GetDefaultEv
5604:__ZN8Material15BuildPropertiesEv
5605:__ZNK9ShaderLab4Pass21ComputePassValuesHashERK16ShaderKeywordSetPK19ShaderPropertySheetP6Shader
5606:__ZN9ShaderLab27ComputeStateBlockValuesHashERK13dynamic_arrayIiLj0EEPK19ShaderPropertySheetS6_
5607:__ZN9ShaderLab9IntShader23CreateStateBlocksForKeyEjPK19ShaderPropertySheetS3_
5608:__ZN9ShaderLab11ShaderState15AddDeviceStatesEjPK19ShaderPropertySheetS3_
5609:__ZNK9ShaderLab11ShaderState17BuildDeviceStatesER9GfxDevicePK19ShaderPropertySheetS5_RNS0_12DeviceStatesE
5610:__ZNK9ShaderLab20ShaderBlendStateDesc15ToGfxBlendStateEPK19ShaderPropertySheetS3_R13GfxBlendState
5611:__ZN9ShaderLab11shaderprops8GetFloatEPK19ShaderPropertySheetS3_NS_16FastPropertyNameE
5612:__ZNK9ShaderLab21ShaderRasterStateDesc16ToGfxRasterStateEPK19ShaderPropertySheetS3_R14GfxRasterState
5613:__ZNK9ShaderLab22ShaderStencilStateDesc17ToGfxStencilStateEPK19ShaderPropertySheetS3_RK14GfxRasterStateR15GfxStencilState
5614:__Z30GetBuiltinVectorParamArraySize24BuiltinShaderVectorParam
5615:__Z30GetBuiltinMatrixParamArraySize24BuiltinShaderMatrixParam
5616:__ZNK9ShaderLab7Program21GetMatchingSubProgramEPK6ShaderPKNS_4PassERK16ShaderKeywordSetjPS7_R19ShaderSnippetResult
5617:__ZNK20GpuProgramParameters23PrepareOverridingValuesERK19ShaderPropertySheetR13dynamic_arrayIhLj4EE
5618:__ZL22PrepareValueParametersI27OverridingParameterPreparerEvRK13dynamic_arrayIN20GpuProgramParameters14ValueParameterELj0EEjjjRS1_IhLj4EERKT_
5619:__ZNK9ShaderLab6TexEnv11PrepareDataEiibP15GfxTextureParam
5620:__ZN10builtintex17GetDefaultTextureE16TextureDimension
5621:__Z35UnityShaderExtPluginKeywordsEnabledRK16ShaderKeywordSet
5622:__Z41UnityShaderExtIsCustomPluginVariantNeededjj
5623:__ZN24dense_hashtable_iteratorINSt3__24pairIKN9ShaderLab7Program23ShaderKeywordSetAndHashEPKNS2_10SubProgramEEES4_NS3_24ShaderKeywordHashFunctorEN14dense_hash_mapIS4_S8_SA_NS0_8equal_toIS4_EE13stl_allocatorIS9_L18MemLabelIdentifier67ELi16EEE9SelectKeyESD_SG_E30advance_past_empty_and_deletedEv
5624:__ZNK15dense_hashtableINSt3__24pairIKN9ShaderLab7Program23ShaderKeywordSetAndHashEPKNS2_10SubProgramEEES4_NS3_24ShaderKeywordHashFunctorEN14dense_hash_mapIS4_S8_SA_NS0_8equal_toIS4_EE13stl_allocatorIS9_L18MemLabelIdentifier67ELi16EEE9SelectKeyESD_SG_E23find_position_with_hashERS5_j
5625:__ZN9ShaderLab32FindBestMatchingShaderKeywordSetERK16ShaderKeywordSetRK13dynamic_arrayIS0_Lj0EEPS5_
5626:__ZN9ShaderLab10SubProgram7CompileEv
5627:__ZNK9ShaderLab7Program24MarkVariantAsUnsupportedERK16ShaderKeywordSet
5628:__ZN15dense_hashtableINSt3__24pairIKN9ShaderLab7Program23ShaderKeywordSetAndHashEPKNS2_10SubProgramEEES4_NS3_24ShaderKeywordHashFunctorEN14dense_hash_mapIS4_S8_SA_NS0_8equal_toIS4_EE13stl_allocatorIS9_L18MemLabelIdentifier67ELi16EEE9SelectKeyESD_SG_E12resize_deltaEjj
5629:__ZN15dense_hashtableINSt3__24pairIKN9ShaderLab7Program23ShaderKeywordSetAndHashEPKNS2_10SubProgramEEES4_NS3_24ShaderKeywordHashFunctorEN14dense_hash_mapIS4_S8_SA_NS0_8equal_toIS4_EE13stl_allocatorIS9_L18MemLabelIdentifier67ELi16EEE9SelectKeyESD_SG_E15insert_noresizeERKS9_
5630:__ZN15dense_hashtableINSt3__24pairIKN9ShaderLab7Program23ShaderKeywordSetAndHashEPKNS2_10SubProgramEEES4_NS3_24ShaderKeywordHashFunctorEN14dense_hash_mapIS4_S8_SA_NS0_8equal_toIS4_EE13stl_allocatorIS9_L18MemLabelIdentifier67ELi16EEE9SelectKeyESD_SG_E12maybe_shrinkEv
5631:__ZN15dense_hashtableINSt3__24pairIKN9ShaderLab7Program23ShaderKeywordSetAndHashEPKNS2_10SubProgramEEES4_NS3_24ShaderKeywordHashFunctorEN14dense_hash_mapIS4_S8_SA_NS0_8equal_toIS4_EE13stl_allocatorIS9_L18MemLabelIdentifier67ELi16EEE9SelectKeyESD_SG_E9copy_fromERKSJ_j
5632:__ZN20GpuProgramParametersaSERKS_
5633:__Z34UnityShaderExtCanCompileGPUProgramRK16ShaderKeywordSet20ShaderGpuProgramType
5634:__ZN16PropertyNamesSet6insertERKS_
5635:__ZN22CreateGpuProgramOutputD2Ev
5636:__ZN20GpuProgramParametersD2Ev
5637:__ZNSt3__213__vector_baseIN20GpuProgramParameters14ConstantBufferENS_9allocatorIS2_EEED2Ev
5638:__ZNSt3__26vectorIN20GpuProgramParameters16TextureParameterENS_9allocatorIS2_EEE6assignIPS2_EENS_9enable_ifIXaasr21__is_forward_iteratorIT_EE5valuesr16is_constructibleIS2_NS_15iterator_traitsIS9_E9referenceEEE5valueEvE4typeES9_S9_
5639:__ZNSt3__26vectorIN20GpuProgramParameters12UAVParameterENS_9allocatorIS2_EEE6assignIPS2_EENS_9enable_ifIXaasr21__is_forward_iteratorIT_EE5valuesr16is_constructibleIS2_NS_15iterator_traitsIS9_E9referenceEEE5valueEvE4typeES9_S9_
5640:__ZNSt3__26vectorIN20GpuProgramParameters14ConstantBufferENS_9allocatorIS2_EEE6assignIPS2_EENS_9enable_ifIXaasr21__is_forward_iteratorIT_EE5valuesr16is_constructibleIS2_NS_15iterator_traitsIS9_E9referenceEEE5valueEvE4typeES9_S9_
5641:__ZNSt3__26vectorIN20GpuProgramParameters15StructParameterENS_9allocatorIS2_EEE6assignIPS2_EENS_9enable_ifIXaasr21__is_forward_iteratorIT_EE5valuesr16is_constructibleIS2_NS_15iterator_traitsIS9_E9referenceEEE5valueEvE4typeES9_S9_
5642:__ZN20GpuProgramParameters14ConstantBufferC2ERKS0_
5643:__ZNSt3__26vectorIN20GpuProgramParameters14ConstantBufferENS_9allocatorIS2_EEE10deallocateEv
5644:__ZNSt3__26vectorIN20GpuProgramParameters15StructParameterENS_9allocatorIS2_EEE18__construct_at_endIPS2_EENS_9enable_ifIXsr21__is_forward_iteratorIT_EE5valueEvE4typeES9_S9_j
5645:__ZN22CreateGpuProgramOutputC2Ev
5646:__ZN6Shader10GetDefaultEv
5647:__ZN19ShaderPropertySheet8CopyFromERKS_
5648:__ZN18UnityPropertySheet20AddNewShaderlabPropsERK19ShaderPropertySheet
5649:__ZN18UnityPropertySheet25AssignDefinedPropertiesToER19ShaderPropertySheet
5650:__ZN8Material10SetTextureEN9ShaderLab16FastPropertyNameEP7Texture
5651:__ZN24MaterialDisplayListCache22InvalidateDisplayListsER18SharedMaterialData
5652:__ZN19ShaderPropertySheet10SetTextureERK23FastTexturePropertyNameP7Texture
5653:__ZN8Material28UpdateHashesOnPropertyChangeEN9ShaderLab16FastPropertyNameE
5654:__Z26GetTextureStreamingManagerv
5655:__ZN23TextureStreamingManager14UpdateMaterialER8Material
5656:__ZN20TextureStreamingData15FreeTextureInfoEP17StreamingRenderer
5657:__ZN19ShaderPropertySheet18AddTextureFromInfoERK23FastTexturePropertyNamePKN9ShaderLab25SerializedTexturePropertyE
5658:__ZN19ShaderPropertySheet17UpdateTextureInfoEiRK23FastTexturePropertyNameP7Textureb9TextureID
5659:__ZN9ShaderLab6TexEnv14SetTextureInfoE9TextureID16TextureDimension14VRTextureUsage19TextureSamplingTypeRKNS_16FastPropertyNameE
5660:__Z19GetActiveColorSpacev
5661:__Z22GetTextureDecodeValues16TextureUsageMode17TextureColorSpace
5662:__ZN19ShaderPropertySheet37CreateTextureAuxPropertyUninitializedEN9ShaderLab16FastPropertyNameES1_PKc
5663:__ZNK9ShaderLab16FastPropertyName7GetNameEv
5664:__ZN19ShaderPropertySheet27AddNewPropertyUninitializedEN9ShaderLab16FastPropertyNameENS_12PropertyTypeEj
5665:__ZN13dynamic_arrayIN9ShaderLab16FastPropertyNameELj0EE6insertEPS1_jRKS1_
5666:__ZN13dynamic_arrayIjLj0EE6insertEPjjRKj
5667:__Z25GetBuiltinVectorParamNamei
5668:__Z25GetBuiltinMatrixParamNamei
5669:__Z25GetBuiltinTexEnvParamNamei
5670:__Z20GetPlayerSettingsPtrv
5671:__ZNK14PlayerSettings13GetColorSpaceEv
5672:__ZN9ShaderLab6TexEnvC2ERKNS_25SerializedTexturePropertyE
5673:__ZN24MaterialDisplayListCache16CachedShaderPass10ReleaseAllEv
5674:__ZN19ShaderPropertySheet8SetFloatEN9ShaderLab16FastPropertyNameEfNS_8SetFlagsE
5675:__ZN19ShaderPropertySheet9SetVectorEN9ShaderLab16FastPropertyNameERK8Vector4fNS_8SetFlagsE
5676:__ZN19ShaderPropertySheet23SetTextureWithPlacementERK23FastTexturePropertyNameP7Texture8Vector2fS5_
5677:__ZNK19ShaderPropertySheet24GetFloatValueInsRGBSpaceEi
5678:__ZNK19ShaderPropertySheet25GetVectorValueInsRGBSpaceEi
5679:__Z25GetBuiltinResourceManagerv
5680:__ZNK22BuiltinResourceManager11GetResourceEPKN5Unity4TypeERKN4core12basic_stringIcNS4_20StringStorageDefaultIcEEEE
5681:__ZNK13sorted_vectorIN22BuiltinResourceManager8ResourceENSt3__24lessIS1_EENS2_9allocatorIS1_EEE4findIS1_EENS2_11__wrap_iterIPKS1_EERKT_
5682:__ZN19AtomicPageAllocator12AllocatePageEj
5683:__Z11FormatBytesx
5684:__ZN4Mesh10CreateMeshEv
5685:__Z31GetLightProbeProxyVolumeManagerv
5686:__ZN12BaseRenderer16FlattenProbeDataE4PPtrI9TransformERisRK17LightProbeContextR10RenderNode
5687:__ZN17MeshRenderingData4InitEP4MeshS1_iP9GfxBufferS3_
5688:__Z20RenderMultipleMeshesRK15RenderNodeQueueRK18RenderMultipleData16VertexInputMasks
5689:__ZN8DrawUtil24DrawMeshRawFromNodeQueueERK15RenderNodeQueuej16VertexInputMasksi
5690:__ZN8DrawUtil31CleanupDrawMeshRawFromNodeQueueER15RenderNodeQueuej
5691:__ZN17MeshRenderingData7ReleaseEv
5692:__Z30ExtractMeshBuffersAndDrawRangeR11MeshBuffersR16DrawBuffersRangeRK9GfxDeviceRK17MeshRenderingData16VertexInputMasksib
5693:__ZN9GfxDevice11DrawBuffersEP9GfxBufferPK18VertexStreamSourceiPK16DrawBuffersRangeiP17VertexDeclaration
5694:__Z18ExtractMeshBuffersR11MeshBuffersP14SharedMeshDataS2_P23SharedMeshRenderingDataS4_16VertexInputMasksP9GfxBufferb
5695:__ZNK16MeshVertexFormat28CalculateRequiredStreamCountE17ShaderChannelMask
5696:__Z30AddDefaultStreamsToMeshBuffersR9GfxDeviceR11MeshBuffersj17ShaderChannelMaskS3_
5697:__ZN16MeshVertexFormat20GetVertexDeclarationER9GfxDevice16VertexInputMasksPKS_
5698:__ZNK16MeshVertexFormat28GetVertexDeclarationInternalER9GfxDevice17ShaderChannelMaskPKS_
5699:__ZN9GfxDevice20GetVertexDeclarationERK18VertexChannelsInfoNS_30VertexDeclarationMRUCacheIndexE
5700:__ZN25VertexDeclarationMRUCache13GetVertexDeclER9GfxDeviceRK18VertexChannelsInfo
5701:__ZNK18VertexChannelsInfoneERKS_
5702:__ZL13MeshExtractorPv16VertexInputMasksiR11MeshBuffersR16DrawBuffersRangeRiS5_
5703:__ZNK17InstancingBatcher15RenderInstancesERK15RenderNodeQueuePK17BatchInstanceDataj16VertexInputMasksPFbPvS6_iR11MeshBuffersR16DrawBuffersRangeRiSC_E
5704:__ZN8DrawUtil26ApplySharedNodeCustomPropsER9GfxDeviceRK10RenderNodei
5705:__Z18ExtractMeshBuffersR11MeshBuffersRK17MeshRenderingData16VertexInputMasksbb
5706:__ZN9GfxDevice24GetMaxStaticBatchIndicesEv
5707:__Z17RenderStaticBatchR9GfxDevice10Matrix4x4fR13dynamic_arrayI7SubMeshLj0EERK11MeshBuffersPK17BatchInstanceDataj16VertexInputMasks
5708:__ZNK14VertexDataInfo17GetChannelsLayoutEv
5709:__ZN9GfxDevice13GetDynamicVBOEv
5710:__Z29CalculateDefaultChannelsToAdd17ShaderChannelMaskS_
5711:__Z40BuildSingleStreamChannelInfoWithDefaultsP11ChannelInfoRK20VertexChannelsLayout17ShaderChannelMaskS4_S4_
5712:__Z19GetVertexFormatSize12VertexFormat
5713:__Z30ProcessDynamicBatchGeometryJobP25DynamicVBOGeometryJobDataj
5714:__Z30CleanupDynamicBatchGeometryJobP25DynamicVBOGeometryJobData
5715:__Z17SetupObjectMatrixRK10Matrix4x4fi
5716:__Z27TransformVerticesStridedREFPhRK10Matrix4x4fjPKhiS4_ii25GfxTransformVerticesFlagsj
5717:__ZN10Matrix3x3f15InvertTransposeEv
5718:__Z26TransformVerticesInnerLoopILb0ELb0ELb0EEvPhRK10Matrix4x4fRK10Matrix3x3fjPKhiS8_ii25GfxTransformVerticesFlagsj
5719:__Z26TransformVerticesInnerLoopILb1ELb0ELb0EEvPhRK10Matrix4x4fRK10Matrix3x3fjPKhiS8_ii25GfxTransformVerticesFlagsj
5720:__Z26TransformVerticesInnerLoopILb0ELb1ELb0EEvPhRK10Matrix4x4fRK10Matrix3x3fjPKhiS8_ii25GfxTransformVerticesFlagsj
5721:__Z26TransformVerticesInnerLoopILb1ELb1ELb0EEvPhRK10Matrix4x4fRK10Matrix3x3fjPKhiS8_ii25GfxTransformVerticesFlagsj
5722:__Z26TransformVerticesInnerLoopILb0ELb0ELb1EEvPhRK10Matrix4x4fRK10Matrix3x3fjPKhiS8_ii25GfxTransformVerticesFlagsj
5723:__Z26TransformVerticesInnerLoopILb1ELb0ELb1EEvPhRK10Matrix4x4fRK10Matrix3x3fjPKhiS8_ii25GfxTransformVerticesFlagsj
5724:__Z26TransformVerticesInnerLoopILb0ELb1ELb1EEvPhRK10Matrix4x4fRK10Matrix3x3fjPKhiS8_ii25GfxTransformVerticesFlagsj
5725:__Z26TransformVerticesInnerLoopILb1ELb1ELb1EEvPhRK10Matrix4x4fRK10Matrix3x3fjPKhiS8_ii25GfxTransformVerticesFlagsj
5726:__ZN10Matrix4x4f5ScaleERK8Vector3f
5727:__ZN10Matrix4x4fC2ERK10Matrix3x3f
5728:__ZN10Matrix3x3fC2ERK10Matrix4x4f
5729:__ZNK17InstancingBatcher18MapConstantBuffersER9GfxDeviceR13dynamic_arrayIPvLj0EERS2_I5CbKeyLj0EERS2_IjLj0EEj
5730:__ZNK17InstancingBatcher25FillInstanceBufferWithJobIN10Instancing14RenderLoopArgsEEEvR8JobFenceR13dynamic_arrayIPvLj0EEjjRKT_
5731:__ZNK15RenderNodeQueue15AddDependentJobER8JobFence
5732:__ZL17InstanceBufferJobIN10Instancing14RenderLoopArgsEEvP21InstanceBufferJobDataIT_E
5733:__Z19ScheduleJobInternalR8JobFencePFvPvES1_11JobPriority
5734:__ZNK15InstancingProps35FillInstanceBufferDispatchConstantsIN10Instancing14RenderLoopArgsEEEvPPvjjRK19ShaderPropertySheetRKT_
5735:__Z26DrawSpriteRawFromNodeQueueRK15RenderNodeQueuej16VertexInputMasksi
5736:__ZN10DynamicVBO8GetChunkEjjj16GfxPrimitiveTypeP21DynamicVBOChunkHandle
5737:__Z20GetSpriteDeviceColorRK10ColorRGBAf
5738:__Z16TransformIndicesPtPKvjjjjb
5739:__Z17TransformVerticesPhRK10Matrix4x4fPKhjj26GfxTransformVerticesParams25GfxTransformVerticesFlagsj
5740:__Z24SetupMaskingStencilStateR9GfxDevicePK18DeviceStencilState
5741:__ZN19ShaderPropertySheetD2Ev
5742:__ZN19ShaderPropertySheetD0Ev
5743:__ZN4Mesh21AcquireSharedMeshDataEv
5744:__ZN4Mesh30AcquireSharedMeshRenderingDataEv
5745:__ZNK28ReflectionProbeAnchorManager35FindCachedReflectionProbeFromAnchorEPK9TransformRK4AABBRS3_RsS7_
5746:__ZNK28ReflectionProbeAnchorManager28GetCachedProbeAnchorPositionERK9Transform
5747:__Z38CalculateLightProbeSamplingCoordinatesRK17LightProbeContextRK8Vector3fiR29LightProbeSamplingCoordinates
5748:__Z38CalculateExplicitLightProbeCoordinatesiR29LightProbeSamplingCoordinates
5749:__ZNK11LightProbes14LightProbeData33GetLightProbeInterpolationWeightsERK8Vector3fRiR8Vector4f
5750:__Z37GetBarycentricCoordinatesForOuterCellPPK8Vector3fRK13dynamic_arrayIS_Lj0EERS0_RK11TetrahedronR8Vector4f
5751:__ZN15LightProbeUtils32BarycentricCoordinates3DTriangleEPK8Vector3fRS1_
5752:__ZN28ReflectionProbeAnchorManager37FindReflectionProbeFromAnchorInternalEPK9Transform8Vector3fRK4AABBRS4_RsS8_
5753:__ZNK10GameObject25QueryComponentByExactTypeEPKN5Unity4TypeE
5754:__ZN4Mesh5ClearEb
5755:__ZN4Mesh15UnshareMeshDataEv
5756:__Z27ConvertSubMeshesToTrianglesIjEvR13dynamic_arrayI7SubMeshLj0EERS0_IhLj0EE
5757:__Z27ConvertSubMeshesToTrianglesItEvR13dynamic_arrayI7SubMeshLj0EERS0_IhLj0EE
5758:__ZNK14SharedMeshData14HasBoneWeightsEv
5759:__ZN23SharedMeshRenderingData25CreateOrUpdateIndexBufferERK13GfxBufferDescPKv20GfxUpdateBufferFlags
5760:__ZN18VertexChannelsInfoC2ERA14_K11ChannelInfo
5761:__ZN13MemoryManager27GetCorrespondingThreadLabelE10MemLabelId
5762:__ZN14SharedMeshDataC2ERKS_
5763:__ZN10VertexDataC2ERK10MemLabelIdRKS_17ShaderChannelMask
5764:__ZN14VertexDataInfo12UpdateFormatEj17ShaderChannelMaskS0_RK19VertexStreamsLayoutRK20VertexChannelsLayout
5765:__ZL12CopyChannelsj17ShaderChannelMaskRA4_K10StreamInfoRA14_K11ChannelInfoPKhS3_S7_Ph
5766:__ZN14VertexDataInfo18UpdateImplicitDataEv
5767:__Z43IsVertexFormatCompatibleWithDynamicBatchingRK14VertexDataInfo
5768:__ZN13dynamic_arrayI7SubMeshLj0EE9push_backERKS0_
5769:__Z16ClearBlendShapesR14BlendShapeData
5770:__ZN4Mesh14ResizeVerticesEj17ShaderChannelMaskS0_RK20VertexChannelsLayout
5771:__ZN14VertexDataInfoC2Ev
5772:__Z4swapR10VertexDataS0_
5773:__ZN14SharedMeshData22ClearCachedBoneWeightsEv
5774:__ZN17CollisionMeshData20VertexDataHasChangedEv
5775:__Z17SendMessageDirectR6ObjectRK17MessageIdentifierR11MessageData
5776:__ZN10VertexDataD2Ev
5777:__ZN10VertexData4SwapERS_
5778:__ZNK14VertexDataInfo16GetStreamsLayoutEv
5779:__ZN10VertexData6ResizeEj17ShaderChannelMaskS0_RK19VertexStreamsLayoutRK20VertexChannelsLayout
5780:__Z16GetRendererScenev
5781:__ZN18ShadowMapJobHeaderD2Ev
5782:__ZN18ShadowMapJobHeaderD0Ev
5783:__ZN15SharedLightDataD2Ev
5784:__ZN16GraphicsSettingsD2Ev
5785:__ZN16GraphicsSettingsD0Ev
5786:__ZN16GraphicsSettings10SmartResetEv
5787:__ZNK16GraphicsSettings22GetTypeVirtualInternalEv
5788:__ZN16GraphicsSettings23VirtualRedirectTransferER19StreamedBinaryWrite
5789:__ZN16GraphicsSettings23VirtualRedirectTransferER18StreamedBinaryRead
5790:__ZN16GraphicsSettings23VirtualRedirectTransferER17RemapPPtrTransfer
5791:__ZN16GraphicsSettings23VirtualRedirectTransferER24GenerateTypeTreeTransfer
5792:__ZN16GraphicsSettings23VirtualRedirectTransferER14SafeBinaryRead
5793:__ZN16GraphicsSettings8TransferI14SafeBinaryReadEEvRT_
5794:__ZN21BuiltinShaderSettings8TransferI14SafeBinaryReadEEvRT_
5795:__ZN14SafeBinaryRead21TransferSTLStyleArrayINSt3__26vectorI4PPtrI6ShaderE13stl_allocatorIS5_L18MemLabelIdentifier53ELi16EEEEEEvRT_17TransferMetaFlags
5796:__ZN14SafeBinaryRead21TransferSTLStyleArrayINSt3__26vectorI4PPtrI23ShaderVariantCollectionE13stl_allocatorIS5_L18MemLabelIdentifier53ELi16EEEEEEvRT_17TransferMetaFlags
5797:__ZN20TierGraphicsSettings8TransferI14SafeBinaryReadEEvRT_
5798:__ZN14SafeBinaryRead21TransferSTLStyleArrayI13dynamic_arrayI21PlatformShaderDefinesLj0EEEEvRT_17TransferMetaFlags
5799:__Z20UpdateAllLightColorsb
5800:__ZN5Light17PrecalcLightColorEb
5801:__ZN15SharedLightData17PrecalcLightColorEb
5802:__Z31CorrelatedColorTemperatureToRGBf
5803:__ZN15SharedLightDataC2ERKS_
5804:__ZN19RenderEventsContextC2ERKS_
5805:__ZN22RenderingCommandBufferC2ERK10MemLabelIdRKS_
5806:__ZN14GrowableBufferC2ERKS_
5807:__ZN15SerializeTraitsI21PlatformShaderDefinesE8TransferI14SafeBinaryReadEEvRS0_RT_
5808:__Z14resize_trimmedINSt3__26vectorI4PPtrI23ShaderVariantCollectionE13stl_allocatorIS4_L18MemLabelIdentifier53ELi16EEEEEvRT_j
5809:__ZNSt3__26vectorI4PPtrI23ShaderVariantCollectionE13stl_allocatorIS3_L18MemLabelIdentifier53ELi16EEE6assignINS_11__wrap_iterIPS3_EEEENS_9enable_ifIXaasr21__is_forward_iteratorIT_EE5valuesr16is_constructibleIS3_NS_15iterator_traitsISD_E9referenceEEE5valueEvE4typeESD_SD_
5810:__ZNSt3__26vectorI4PPtrI23ShaderVariantCollectionE13stl_allocatorIS3_L18MemLabelIdentifier53ELi16EEE8__appendEj
5811:__ZN16GraphicsSettings8TransferI24GenerateTypeTreeTransferEEvRT_
5812:__ZN24GenerateTypeTreeTransfer8TransferI21BuiltinShaderSettingsEEvRT_PKc17TransferMetaFlags
5813:__ZN20TierGraphicsSettings8TransferI24GenerateTypeTreeTransferEEvRT_
5814:__ZN21PlatformShaderDefines8TransferI24GenerateTypeTreeTransferEEvRT_
5815:__ZN15SerializeTraitsI12fixed_bitsetILi28EjEE8TransferI24GenerateTypeTreeTransferEEvRS1_RT_
5816:__ZN16GraphicsSettings8TransferI17RemapPPtrTransferEEvRT_
5817:__ZN16GraphicsSettings8TransferI18StreamedBinaryReadEEvRT_
5818:__ZN20TierGraphicsSettings8TransferI18StreamedBinaryReadEEvRT_
5819:__ZN18StreamedBinaryRead21TransferSTLStyleArrayI13dynamic_arrayI21PlatformShaderDefinesLj0EEEEvRT_17TransferMetaFlags
5820:__ZN21PlatformShaderDefines8TransferI18StreamedBinaryReadEEvRT_
5821:__ZN16GraphicsSettings8TransferI19StreamedBinaryWriteEEvRT_
5822:__ZN20TierGraphicsSettings8TransferI19StreamedBinaryWriteEEvRT_
5823:__ZN15SerializeTraitsI12fixed_bitsetILi28EjEE8TransferI19StreamedBinaryWriteEEvRS1_RT_
5824:__ZN21LightProbeProxyVolume27ValidateBoundingBoxSettingsEv
5825:__ZNK9Transform21GetWorldToLocalMatrixEv
5826:__ZN26LightProbeProxyVolumeUtilsL27ComputeLocalAABBOnHierarchyERK10Matrix4x4fR9TransformR10MinMaxAABB
5827:__ZN8Renderer29GetTransformInfoAndUpdateSlowEv
5828:__ZNK4AABB17CalculateVerticesEP8Vector3f
5829:__ZN21RendererUpdateManager20UpdateSingleRendererER8RendererR13RendererScene
5830:__ZN23TransformChangeDispatch19GetSystemInterestedE23TransformAccessReadOnly27TransformChangeSystemHandle
5831:__Z28CalculateGlobalMatrixInverse23TransformAccessReadOnly
5832:__ZN15ReflectionProbe13AwakeFromLoadE17AwakeFromLoadMode
5833:__ZN15ReflectionProbe16CheckConsistencyEv
5834:__ZN15ReflectionProbe5ResetEv
5835:__ZNK15ReflectionProbe22GetTypeVirtualInternalEv
5836:__ZN15ReflectionProbe23VirtualRedirectTransferER19StreamedBinaryWrite
5837:__ZN15ReflectionProbe23VirtualRedirectTransferER18StreamedBinaryRead
5838:__ZN15ReflectionProbe23VirtualRedirectTransferER17RemapPPtrTransfer
5839:__ZN15ReflectionProbe23VirtualRedirectTransferER24GenerateTypeTreeTransfer
5840:__ZN15ReflectionProbe23VirtualRedirectTransferER14SafeBinaryRead
5841:__ZN15ReflectionProbe12AddToManagerEv
5842:__ZN15ReflectionProbe17RemoveFromManagerEv
5843:__ZN16ReflectionProbes11RemoveProbeE4PPtrI15ReflectionProbeE
5844:__ZNK15ReflectionProbe10GetTextureEv
5845:__ZN16ReflectionProbes22ForceProbeToUseTextureER15ReflectionProbeP7Texture
5846:__ZN10builtintex21GetBlackCubeTextureIDEv
5847:__Z35GetTextureDecodeValuesWithIntensity16TextureUsageMode17TextureColorSpace10ColorSpacef
5848:__Z18transfer_ownershipPvRK10MemLabelId22AllocationRootWithSalt
5849:__ZNSt3__25dequeI18ReflectionProbeJobNS_9allocatorIS1_EEE19__add_back_capacityEv
5850:__ZNSt3__212__deque_baseI18ReflectionProbeJobNS_9allocatorIS1_EEED2Ev
5851:__ZNSt3__214__split_bufferIP18ReflectionProbeJobNS_9allocatorIS2_EEE9push_backEOS2_
5852:__ZNSt3__214__split_bufferIP18ReflectionProbeJobNS_9allocatorIS2_EEE10push_frontEOS2_
5853:__ZN14MemoryProfiler17TransferOwnershipEPvjRK10MemLabelId22AllocationRootWithSalt
5854:__ZN16ReflectionProbes8AddProbeE4PPtrI15ReflectionProbeE
5855:__ZN16ReflectionProbes8ScheduleEN18ReflectionProbeJob7JobTypeEP15ReflectionProbei
5856:__ZN15ReflectionProbe8TransferI14SafeBinaryReadEEvRT_
5857:__ZN15ReflectionProbe8TransferI24GenerateTypeTreeTransferEEvRT_
5858:__ZN15ReflectionProbe8TransferI18StreamedBinaryReadEEvRT_
5859:__ZN15ReflectionProbe8TransferI19StreamedBinaryWriteEEvRT_
5860:__ZNK12GraphicsCaps17IsFormatSupportedE14GraphicsFormat11FormatUsage13FormatSupport
5861:__Z7GetDesc14GraphicsFormat
5862:__ZNK6Skybox22GetTypeVirtualInternalEv
5863:__ZN6Skybox23VirtualRedirectTransferER19StreamedBinaryWrite
5864:__ZN6Skybox23VirtualRedirectTransferER18StreamedBinaryRead
5865:__ZN6Skybox23VirtualRedirectTransferER17RemapPPtrTransfer
5866:__ZN6Skybox23VirtualRedirectTransferER24GenerateTypeTreeTransfer
5867:__ZN6Skybox23VirtualRedirectTransferER14SafeBinaryRead
5868:__ZN14SafeBinaryRead8TransferI6SkyboxEEvRT_PKc17TransferMetaFlags
5869:__ZN11HaloManager10DeleteHaloEiP6Object
5870:__ZNSt3__26vectorIN11HaloManager8HaloDataENS_9allocatorIS2_EEE21__push_back_slow_pathIS2_EEvOT_
5871:__ZN11HaloManager10UpdateHaloEiR9Transform11ColorRGBA32fjP6Object
5872:__ZN11LightProbesD2Ev
5873:__ZN11LightProbesD0Ev
5874:__ZNK11LightProbes22GetTypeVirtualInternalEv
5875:__ZN11LightProbes23VirtualRedirectTransferER19StreamedBinaryWrite
5876:__ZN11LightProbes23VirtualRedirectTransferER18StreamedBinaryRead
5877:__ZN11LightProbes23VirtualRedirectTransferER17RemapPPtrTransfer
5878:__ZN11LightProbes23VirtualRedirectTransferER24GenerateTypeTreeTransfer
5879:__ZN11LightProbes23VirtualRedirectTransferER14SafeBinaryRead
5880:__ZN11LightProbes8TransferI14SafeBinaryReadEEvRT_
5881:__ZN11LightProbes14LightProbeData8TransferI14SafeBinaryReadEEvRT_
5882:__ZN14SafeBinaryRead21TransferSTLStyleArrayI13dynamic_arrayI20SphericalHarmonicsL2Lj0EEEEvRT_17TransferMetaFlags
5883:__ZN14SafeBinaryRead21TransferSTLStyleArrayI13dynamic_arrayI19LightProbeOcclusionLj0EEEEvRT_17TransferMetaFlags
5884:__ZN13dynamic_arrayI19LightProbeOcclusionLj0EE18resize_initializedEj12ResizePolicy
5885:__ZN19LightProbeOcclusion8TransferI14SafeBinaryReadEEvRT_
5886:__ZN14SafeBinaryRead21TransferSTLStyleArrayI19StaticArrayTransferIiLi4EEEEvRT_17TransferMetaFlags
5887:__ZN14SafeBinaryRead21TransferSTLStyleArrayI19StaticArrayTransferIfLi4EEEEvRT_17TransferMetaFlags
5888:__ZN14SafeBinaryRead21TransferSTLStyleArrayI19StaticArrayTransferIaLi4EEEEvRT_17TransferMetaFlags
5889:__ZN20SphericalHarmonicsL28TransferI14SafeBinaryReadEEvRT_
5890:__ZN26ProbeSetTetrahedralization8TransferI14SafeBinaryReadEEvRT_
5891:__ZN14SafeBinaryRead21TransferSTLStyleArrayI13dynamic_arrayI13ProbeSetIndexLj0EEEEvRT_17TransferMetaFlags
5892:__ZN14SafeBinaryRead21TransferSTLStyleArrayI10vector_mapI7Hash128iNSt3__24lessIS2_EE13stl_allocatorINS3_4pairIS2_iEEL18MemLabelIdentifier82ELi16EEEEEvRT_17TransferMetaFlags
5893:__ZNSt3__26vectorINS_4pairI7Hash128iEE13stl_allocatorIS3_L18MemLabelIdentifier82ELi16EEE8__appendEj
5894:__ZN15SerializeTraitsINSt3__24pairI7Hash128iEEE8TransferI14SafeBinaryReadEEvRS3_RT_
5895:__ZN15SerializeTraitsI13ProbeSetIndexE8TransferI14SafeBinaryReadEEvRS0_RT_
5896:__ZN14SafeBinaryRead21TransferSTLStyleArrayI13dynamic_arrayI11TetrahedronLj0EEEEvRT_17TransferMetaFlags
5897:__ZN11Tetrahedron8TransferI14SafeBinaryReadEEvRT_
5898:__ZN10Matrix3x4f8TransferI14SafeBinaryReadEEvRT_
5899:__ZN15SerializeTraitsI11LightProbesE8TransferI24GenerateTypeTreeTransferEEvRS0_RT_
5900:__ZN24GenerateTypeTreeTransfer8TransferIN11LightProbes14LightProbeDataEEEvRT_PKc17TransferMetaFlags
5901:__ZN20SphericalHarmonicsL28TransferI24GenerateTypeTreeTransferEEvRT_
5902:__ZN15SerializeTraitsI19LightProbeOcclusionE8TransferI24GenerateTypeTreeTransferEEvRS0_RT_
5903:__ZN11Tetrahedron8TransferI24GenerateTypeTreeTransferEEvRT_
5904:__ZN24GenerateTypeTreeTransfer8TransferI13dynamic_arrayI8Vector3fLj0EEEEvRT_PKc17TransferMetaFlags
5905:__ZN10Matrix3x4f8TransferI24GenerateTypeTreeTransferEEvRT_
5906:__ZN11LightProbes8TransferI17RemapPPtrTransferEEvRT_
5907:__ZN11LightProbes8TransferI18StreamedBinaryReadEEvRT_
5908:__ZN18StreamedBinaryRead21TransferSTLStyleArrayI13dynamic_arrayI11TetrahedronLj0EEEEvRT_17TransferMetaFlags
5909:__ZN18StreamedBinaryRead21TransferSTLStyleArrayI13dynamic_arrayI13ProbeSetIndexLj0EEEEvRT_17TransferMetaFlags
5910:__ZN18StreamedBinaryRead21TransferSTLStyleArrayI10vector_mapI7Hash128iNSt3__24lessIS2_EE13stl_allocatorINS3_4pairIS2_iEEL18MemLabelIdentifier82ELi16EEEEEvRT_17TransferMetaFlags
5911:__ZN18StreamedBinaryRead21TransferSTLStyleArrayI13dynamic_arrayI20SphericalHarmonicsL2Lj0EEEEvRT_17TransferMetaFlags
5912:__ZN19LightProbeOcclusion8TransferI18StreamedBinaryReadEEvRT_
5913:__ZN18StreamedBinaryRead10ReadDirectEPvi
5914:__ZN12CachedReader4ReadEPvj
5915:__ZN20SphericalHarmonicsL28TransferI18StreamedBinaryReadEEvRT_
5916:__ZN11Tetrahedron8TransferI18StreamedBinaryReadEEvRT_
5917:__ZN10Matrix3x4f8TransferI18StreamedBinaryReadEEvRT_
5918:__ZN11LightProbes8TransferI19StreamedBinaryWriteEEvRT_
5919:__ZN11LightProbes14LightProbeData8TransferI19StreamedBinaryWriteEEvRT_
5920:__ZN20SphericalHarmonicsL28TransferI19StreamedBinaryWriteEEvRT_
5921:__Z13TransferArrayILi4Ei19StreamedBinaryWriteEjRAT__T0_PKcRT1_
5922:__Z13TransferArrayILi4Ea19StreamedBinaryWriteEjRAT__T0_PKcRT1_
5923:__ZN11Tetrahedron8TransferI19StreamedBinaryWriteEEvRT_
5924:__ZN15SerializeTraitsI13dynamic_arrayI13ProbeSetIndexLj0EEE8TransferI19StreamedBinaryWriteEEvRS2_RT_
5925:__ZN10Matrix3x4f8TransferI19StreamedBinaryWriteEEvRT_
5926:__ZN11LightProbes14LightProbeDataD2Ev
5927:__ZN14RenderSettingsD2Ev
5928:__ZN14RenderSettingsD0Ev
5929:__ZN14RenderSettings13AwakeFromLoadE17AwakeFromLoadMode
5930:__ZN14RenderSettings16CheckConsistencyEv
5931:__ZN14RenderSettings5ResetEv
5932:__ZNK14RenderSettings22GetTypeVirtualInternalEv
5933:__ZN14RenderSettings23VirtualRedirectTransferER19StreamedBinaryWrite
5934:__ZN14RenderSettings23VirtualRedirectTransferER18StreamedBinaryRead
5935:__ZN14RenderSettings23VirtualRedirectTransferER17RemapPPtrTransfer
5936:__ZN14RenderSettings23VirtualRedirectTransferER24GenerateTypeTreeTransfer
5937:__ZN14RenderSettings23VirtualRedirectTransferER14SafeBinaryRead
5938:__ZN14RenderSettings8TransferI14SafeBinaryReadEEvRT_
5939:__ZN14RenderSettings18TransferDeprecatedI14SafeBinaryReadEEvRT_
5940:__ZN14RenderSettings8TransferI24GenerateTypeTreeTransferEEvRT_
5941:__ZN14RenderSettings8TransferI17RemapPPtrTransferEEvRT_
5942:__ZN14RenderSettings8TransferI18StreamedBinaryReadEEvRT_
5943:__ZN14RenderSettings8TransferI19StreamedBinaryWriteEEvRT_
5944:__ZNK22BuiltinResourceManager21GetResourceInstanceIDEPKN5Unity4TypeERKN4core12basic_stringIcNS4_20StringStorageDefaultIcEEEE
5945:__ZN16ReflectionProbes28GetMinBakedCubemapResolutionEv
5946:__ZN16ReflectionProbes28GetMaxBakedCubemapResolutionEv
5947:__ZN14RenderSettings17UpdateGlobalStateEv
5948:__ZN10builtintex21GetAttenuationTextureEv
5949:__ZN10builtintex15GetWhiteTextureEv
5950:__ZN14RenderSettings23UpdateFinalAmbientProbeEv
5951:__ZN14RenderSettings14ApplyFogParamsEv
5952:__ZN10builtintex14GetHaloTextureEv
5953:__Z15GetLightManagerv
5954:__ZN5Light9SetupHaloEv
5955:__ZN5Light10SetupFlareEv
5956:__Z19GetReflectionProbesv
5957:__ZN16ReflectionProbes17SetDefaultTextureE4PPtrI7CubemapEf
5958:__ZN14RenderSettings27UpdateIndirectSpecularColorEv
5959:__ZN16ReflectionProbes16UpdateSampleDataEv
5960:__ZNK16ReflectionProbes21GenerateDefaultSampleEv
5961:__ZN16ReflectionProbes11UpdateProbeER15ReflectionProbej
5962:__ZNK9Transform28GetLocalToWorldMatrixNoScaleEv
5963:__ZNK10GameObject16GetCullSceneMaskEv
5964:__ZNK28ReflectionProbeAnchorManager14IsAnchorCachedERK9Transform
5965:__Z15GetSceneManagerv
5966:__ZN19RuntimeSceneManager14GetActiveSceneEv
5967:__Z15GetFlareManagerv
5968:__ZN12FlareManager11DeleteFlareEi
5969:__ZN12LightManager28IsLightTransformDataUpToDateEPK5Light
5970:__ZN12LightManager27UpdateAllLightTransformDataEv
5971:__ZN23TransformChangeDispatch28GetAndClearChangedTransformsE27TransformChangeSystemHandleR13dynamic_arrayI23TransformAccessReadOnlyLj0EEPN9profiling6MarkerE
5972:__ZN5Light25UpdateLightDataTransformsEv
5973:__ZN15SharedLightData15UpdateTransformERK9Transform
5974:__ZN15SharedLightData7PrecalcEv
5975:__Z24CalculateVertexLightDataRK15SharedLightDataR14GfxVertexLight
5976:__ZL31GetAndClearChangedTransformsJobP27GetChangedTransformsJobDatajPK23TransformAccessReadOnlyPKyj
5977:__ZN23TransformChangeDispatch40GetAndClearChangedAsBatchedJobs_InternalEyPFvPvjPK23TransformAccessReadOnlyPKyjES0_PFvS0_EPN9profiling6MarkerE
5978:__Z40ConfigureBlockRangesWithMinIndicesPerJobP10BlockRangeii
5979:__ZN18BlockRangeInternal16PopLastNodeIndexEP10BlockRangeji
5980:__ZN18BlockRangeInternal25GetSizeFromLastBlockRangeEP10BlockRangej
5981:__Z43GetUniqueDependenciesAndClearHierarchyFencePP18TransformHierarchyjP8JobFence
5982:__Z26ScheduleMultiDependencyJobR8JobFenceR18JobBatchDispatcherPKS_j
5983:__ZL8BatchJobP18BatchJobDataSingle
5984:__ZN18JobBatchDispatcher26ScheduleJobDependsInternalER8JobFencePFvPvES2_RKS0_
5985:__ZN18JobBatchDispatcherC2E11JobPriorityi
5986:__Z14GetHaloManagerv
5987:__ZN11HaloManager7AddHaloENS_9OwnerTypeE
5988:__ZN20SphericalHarmonicsL27SetZeroEv
5989:__ZN20SphericalHarmonicsL211AddWeightedERKS_f
5990:__ZN20SphericalHarmonicsL215AddAmbientLightERK10ColorRGBAf
5991:__ZN20SphericalHarmonicsL219AddDirectionalLightERKN4math7_float3ERKNS0_7_float4E
5992:__ZN14ImageReference10ClearImageERK11ColorRGBA3214ImageClearMode
5993:__ZN17AmbientProbeBaker29CalculateAmbientFaceProcessorclER5ImageiRK8Vector3fS5_S5_b
5994:__Z20IsFloatTextureFormat13TextureFormat
5995:__ZN6prcore10ClearImageER14ImageReferenceRK11ColorRGBA3214ImageClearMode
5996:__Z19IsHalfTextureFormat13TextureFormat
5997:__Z20GetTextureFormatInfo13TextureFormat
5998:__ZN6prcoreL11inner_clearILj1EEEvPhjjj
5999:__ZN6prcoreL11inner_clearILj2EEEvPhjjj
6000:__ZN6prcoreL11inner_clearILj3EEEvPhjjj
6001:__ZN6prcoreL11inner_clearILj4EEEvPhjjj
6002:__ZN5ImageC2Eii13TextureFormat
6003:__Z25GetBytesFromTextureFormat13TextureFormat
6004:__Z19GetMaxBytesPerPixel13TextureFormat
6005:__ZN20SphericalHarmonicsL217AddToCoefficientsEPKN4math7_float4EPKf
6006:__ZN5Light17MainThreadCleanupEv
6007:__ZN5Light13AwakeFromLoadE17AwakeFromLoadMode
6008:__ZN5Light16CheckConsistencyEv
6009:__ZN5Light5ResetEv
6010:__ZNK5Light22GetTypeVirtualInternalEv
6011:__ZN5Light23VirtualRedirectTransferER19StreamedBinaryWrite
6012:__ZN5Light23VirtualRedirectTransferER18StreamedBinaryRead
6013:__ZN5Light23VirtualRedirectTransferER17RemapPPtrTransfer
6014:__ZN5Light23VirtualRedirectTransferER24GenerateTypeTreeTransfer
6015:__ZN5Light23VirtualRedirectTransferER14SafeBinaryRead
6016:__ZN5Light12AddToManagerEv
6017:__ZN5Light17RemoveFromManagerEv
6018:__ZN12LightManager11RemoveLightEP5Light
6019:__ZN23TransformChangeDispatch19SetSystemInterestedE15TransformAccess27TransformChangeSystemHandleb
6020:__ZN12LightManager8AddLightEP5Light
6021:__ZN5Light8TransferI14SafeBinaryReadEEvRT_
6022:__ZN14ShadowSettings8TransferI14SafeBinaryReadEEvRT_
6023:__ZN17LightBakingOutput8TransferI14SafeBinaryReadEEvRT_
6024:__ZN16LightmapBakeMode8TransferI14SafeBinaryReadEEvRT_
6025:__ZN5Light8TransferI24GenerateTypeTreeTransferEEvRT_
6026:__ZN14ShadowSettings8TransferI24GenerateTypeTreeTransferEEvRT_
6027:__ZN17LightBakingOutput8TransferI24GenerateTypeTreeTransferEEvRT_
6028:__ZN5Light8TransferI17RemapPPtrTransferEEvRT_
6029:__ZN5Light8TransferI18StreamedBinaryReadEEvRT_
6030:__ZN14ShadowSettings8TransferI18StreamedBinaryReadEEvRT_
6031:__ZN17LightBakingOutput8TransferI18StreamedBinaryReadEEvRT_
6032:__ZN5Light8TransferI19StreamedBinaryWriteEEvRT_
6033:__ZN17LightBakingOutput8TransferI19StreamedBinaryWriteEEvRT_
6034:__ZN15SharedLightData16CheckConsistencyEv
6035:__ZN5Light7PrecalcEv
6036:__ZN15SharedLightData22UpdateCookieTextureRefEv
6037:__ZN12LightManager19DirtyDispatchUpdateER5Light
6038:__ZN10TextureRef4InitEP7Textureb
6039:__ZN15SharedLightData17MainThreadCleanupEv
6040:__ZN8Playable13SetInputCountEi
6041:__ZN8Playable14SetOutputCountEi
6042:__ZN8Playable14SetInputWeightEif
6043:__ZNK8Playable14GetInputWeightEi
6044:__ZN8Playable11PrepareDataERK19DirectorVisitorInfo
6045:__ZN8Playable12PrepareFrameERK19DirectorVisitorInfo
6046:__ZN8Playable11SetLeadTimeEf
6047:__ZN8Playable7SetTimeEd
6048:__ZN8Playable7SetDataEyPv
6049:__ZN8Playable13OnAdvanceTimeEd
6050:__ZN8Playable19SetOutputConnectionEPS_i
6051:__ZN8Playable20ClearInputConnectionEi
6052:__ZN8Playable21ClearOutputConnectionEi
6053:__ZN13PlayableGraph17ConnectionChangedEv
6054:__Z8WrapTimedd16DirectorWrapModed
6055:__ZN8Playable19DeallocateResourcesEv
6056:__ZN8Playable7DestroyEv
6057:__Z13GetIAnimationv
6058:__ZNK15PlayableMethods24CanInvokePlayableDestroyEv
6059:__ZNK15PlayableMethods21InvokePlayableDestroyER18ScriptingObjectPtrRK9HPlayable
6060:__ZNK8Playable11DerivesFromE17ScriptingClassPtr
6061:__Z11CopyTextureP7TextureS0_
6062:__ZL29CheckCopyTextureBaseArgumentsP7TextureS0_
6063:__ZN9Texture2D18UnshareTextureDataEv
6064:__Z28EnsureRenderTextureIsCreatedP13RenderTexture
6065:__ZN13RenderTexture6CreateERK12ObjectHandleI17RenderSurface_TagP17RenderSurfaceBaseES6_NS_11CreateFlagsE
6066:__ZN13RenderTexture25AdjustDescForGraphicsCapsER17RenderTextureDescR9GfxDeviceRK12GraphicsCapsPS_
6067:__Z12GetMSAALeveli
6068:__Z16GetMSAALevelDesc9MSAALevel
6069:__Z17GetGraphicsFormat17DepthBufferFormat
6070:__ZN9GfxDevice18AliasRenderSurfaceE9TextureIDP17RenderSurfaceBase
6071:__ZN16RenderTextureMap6UpdateEPK17RenderSurfaceBaseP13RenderTexture
6072:__ZN7Texture33SetStoredColorSpaceNoDirtyNoApplyE17TextureColorSpace
6073:__ZN21ScalableBufferManager21RegisterRenderSurfaceEP17RenderSurfaceBase
6074:__Z23GetGraphicsFormatString14GraphicsFormat
6075:__Z15IsDepthRTFormat19RenderTextureFormat
6076:__ZN4core13StringBuilder6appendEi
6077:__Z11IntToStringi
6078:__ZN19RenderBufferManager8Textures13GetTempBufferEii17DepthBufferFormat19RenderTextureFormat22RenderTextureReadWriteNS0_5FlagsE14VRTextureUsagei23RenderTextureMemoryless
6079:__ZN19RenderBufferManager8Textures13GetTempBufferE17RenderTextureDesc
6080:__ZNK6Camera24GetScreenViewportRectIntEb
6081:__ZN13RenderTexture21FixInvalidDescOptionsER17RenderTextureDesc
6082:__ZNK4core8hash_setINS_4pairIK17RenderTextureDescPN19RenderBufferManager8Textures12TextureEntryELb0EEENS_9hash_pairINS5_9KeyHasherES3_S7_EENS_10equal_pairINSt3__28equal_toIS2_EES3_S7_EEE6lookupIS2_EEPNSH_4nodeERKT_
6083:__ZN18BaseObjectInternal9NewObjectI13RenderTextureEEP6Object10MemLabelId18ObjectCreationMode
6084:__ZN6Object27AllocateAndAssignInstanceIDEPS_
6085:__ZN13RenderTexture20SetRenderTextureDescERK17RenderTextureDesc
6086:__ZN13RenderTexture18SetUseDynamicScaleEb
6087:__ZN13RenderTexture6CreateENS_11CreateFlagsE
6088:__ZN10MemoryPool8AllocateEj
6089:__ZN15TextureSettings5ResetEv
6090:__ZN13RenderTexture15DiscardContentsEbb
6091:__ZN13RenderTexture24CorrectVerticalTexelSizeEb
6092:__ZN13RenderTexture20SwitchIntoFastMemoryE11SurfaceType12SurfaceUsage15FastMemoryFlagsbf
6093:__ZN10MemoryPool14AllocNewBubbleEv
6094:__ZN13RenderTexture14SetColorFormatE19RenderTextureFormat
6095:__ZN13RenderTexture9SetMipMapEb
6096:__ZN13RenderTexture16SetBindTextureMSEb
6097:__ZN13RenderTexture12SetDimensionE16TextureDimension
6098:__ZN13RenderTextureC2E10MemLabelId18ObjectCreationMode
6099:__ZN7TextureC2E10MemLabelId18ObjectCreationMode
6100:__ZN13RenderTextureD2Ev
6101:__ZN13RenderTextureD0Ev
6102:__ZN13RenderTexture17MainThreadCleanupEv
6103:__ZN13RenderTexture13AwakeFromLoadE17AwakeFromLoadMode
6104:__ZN7Texture16CheckConsistencyEv
6105:__ZN7Texture5ResetEv
6106:__ZNK13RenderTexture22GetTypeVirtualInternalEv
6107:__ZN7Texture7SetNameEPKc
6108:__ZNK13RenderTexture20GetRuntimeMemorySizeEv
6109:__ZN13RenderTexture23VirtualRedirectTransferER19StreamedBinaryWrite
6110:__ZN13RenderTexture23VirtualRedirectTransferER18StreamedBinaryRead
6111:__ZN13RenderTexture23VirtualRedirectTransferER17RemapPPtrTransfer
6112:__ZN13RenderTexture23VirtualRedirectTransferER24GenerateTypeTreeTransfer
6113:__ZN13RenderTexture23VirtualRedirectTransferER14SafeBinaryRead
6114:__ZN13RenderTexture13ApplySettingsEv
6115:__ZNK13RenderTexture21GetShadowSamplingModeEv
6116:__ZNK13RenderTexture14IsDepthTextureEv
6117:__ZNK13RenderTexture12IsMemorylessEv
6118:__ZNK13RenderTexture19IsBoundMultisampledEv
6119:__ZNK13RenderTexture12IsUAVAllowedEv
6120:__ZNK13RenderTexture13GetDataHeightEv
6121:__ZNK13RenderTexture20GetTextureLayerCountEv
6122:__ZNK13RenderTexture10GetVRUsageEv
6123:__ZN7Texture33VerifyFileTextureUploadCompletionEv
6124:__ZNK13RenderTexture16ExtractImageImplEP14ImageReference13ImageBlitModebi
6125:__Z21GetAsyncUploadManagerv
6126:__ZN18AsyncUploadManager12HasCompletedE10AsyncFence
6127:__ZN15TextureSettings38ClearUnsupportedSettingsForColorFormatE19RenderTextureFormat
6128:__ZNK15TextureSettings5ApplyE9TextureID16TextureDimensionb17TextureColorSpace18ShadowSamplingModeb
6129:__ZNK15TextureSettings5ApplyER9GfxDevice9TextureID16TextureDimensionb17TextureColorSpace18ShadowSamplingModeb
6130:__ZNK12GraphicsCaps16FindUploadFormatE14GraphicsFormat11FormatUsage
6131:__ZN13RenderTexture8TransferI14SafeBinaryReadEEvRT_
6132:__ZN7Texture8TransferI14SafeBinaryReadEEvRT_
6133:__ZN15TextureSettings8TransferI14SafeBinaryReadEEvRT_
6134:__ZN13RenderTexture8TransferI24GenerateTypeTreeTransferEEvRT_
6135:__ZN7Texture8TransferI24GenerateTypeTreeTransferEEvRT_
6136:__ZN15TextureSettings8TransferI24GenerateTypeTreeTransferEEvRT_
6137:__ZN13RenderTexture8TransferI18StreamedBinaryReadEEvRT_
6138:__ZN7Texture8TransferI18StreamedBinaryReadEEvRT_
6139:__ZN15TextureSettings8TransferI18StreamedBinaryReadEEvRT_
6140:__ZN13RenderTexture8TransferI19StreamedBinaryWriteEEvRT_
6141:__ZN7Texture8TransferI19StreamedBinaryWriteEEvRT_
6142:__ZN15TextureSettings8TransferI19StreamedBinaryWriteEEvRT_
6143:__ZN15TextureSettings16CheckConsistencyEv
6144:__ZN6Camera24OnRenderTextureDestroyedEP13RenderTexture
6145:__ZN25CameraStackRenderingState16GetTargetTextureEv
6146:__ZN25CameraStackRenderingState25UpdateCameraTargetTextureEP13RenderTexture
6147:__ZN7Texture17MainThreadCleanupEv
6148:__ZN19ShaderPropertySheet26SetMatchingTextureIDToNoneE9TextureID
6149:__ZNK19StereoRenderTexture7IsEmptyEv
6150:__ZN25CameraStackRenderingState32GetCameraStackTempEyeTextureDescEv
6151:__ZN25CameraStackRenderingState29GetCameraStackTempTextureDescEv
6152:__ZN19StereoRenderTexture12AllocateTempER17RenderTextureDesc
6153:__ZNK19StereoRenderTexture13GetEyeTextureE15StereoscopicEye
6154:__Z27GetRenderTextureColorFormatbbb
6155:__ZNK13RenderTexture18GetUseDynamicScaleEv
6156:__ZN6Camera23SetTargetTextureBuffersEP13RenderTextureiPK12ObjectHandleI17RenderSurface_TagP17RenderSurfaceBaseES6_PS1_
6157:__ZN7TextureD2Ev
6158:__ZNK7Texture22GetTypeVirtualInternalEv
6159:__ZN7Texture23VirtualRedirectTransferER18StreamedBinaryRead
6160:__ZN7Texture23VirtualRedirectTransferER24GenerateTypeTreeTransfer
6161:__ZN7Texture23VirtualRedirectTransferER14SafeBinaryRead
6162:__ZN7Texture13ApplySettingsEv
6163:__ZN11NamedObjectC2E10MemLabelId18ObjectCreationMode
6164:__ZN6ObjectC2E10MemLabelId18ObjectCreationMode
6165:__ZN14ConstantString12create_emptyEv
6166:__ZNK15PlayableMethods21CanInvokePrepareFrameEv
6167:__ZNK15PlayableMethods18InvokePrepareFrameER18ScriptingObjectPtrRK9HPlayableP18ScriptingFrameData
6168:__ZNK15PlayableMethods20CanInvokePrepareDataEv
6169:__ZNK15PlayableMethods17InvokePrepareDataER18ScriptingObjectPtrRK9HPlayableP18ScriptingFrameData
6170:__ZN8PlayableD2Ev
6171:__ZN15DirectorManager14ConnectionPool4FreeEP14ConnectionList
6172:__ZN15DirectorManager8FreeNodeEP5HNode
6173:__ZN8PlayableD0Ev
6174:__ZN8Playable7ProcessEiRK9FrameDataPv
6175:__ZNK8Playable7GetTypeEv
6176:__ZN8Playable18SetInputConnectionEPS_ii
6177:__ZN15DirectorManager14ConnectionPool12SwitchBucketEP14ConnectionList
6178:__ZNK15PlayableMethods21CanInvokeProcessFrameEv
6179:__ZNK15PlayableMethods18InvokeProcessFrameER18ScriptingObjectPtrRK9HPlayableP18ScriptingFrameDataRK9FrameData
6180:__ZNK9Transform18GetWorldScaleLossyEv
6181:__Z25CalculateGlobalScaleLossy23TransformAccessReadOnly
6182:__ZN7Texture21GetMasterTextureLimitEv
6183:__ZN22DeviceMVPMatricesStateD2Ev
6184:__ZN29ExtractProjectionPlanesHelperILb0EE5ApplyERK10Matrix4x4fP5Plane
6185:__ZL20InitializeGUIShadersv
6186:__ZN9ShaderLab4Pass9ApplyPassEjPK19ShaderPropertySheetR17ShaderPassContextP6ShaderiPKNS_10GrabPassesEPNS_11SubProgramsEPK22DeviceRenderStateBlock
6187:__ZNK9ShaderLab11ShaderState16ApplyShaderStateEjPK19ShaderPropertySheetRK17ShaderPassContextP6ShaderPNS_4PassEPNS_11SubProgramsEPK22DeviceRenderStateBlock
6188:__ZN9ShaderLab10GrabPasses13ApplyGrabPassERKNS_16FastPropertyNameER17ShaderPassContextRKS0_
6189:__ZN9ShaderLab10GrabPasses23ApplyGrabPassMainThreadERKNS_16FastPropertyNameER17ShaderPassContext
6190:__ZN9ShaderLabL15GetSizedTextureEPK6CameraRKNS_16FastPropertyNameEbbRb
6191:__ZN13RenderTexture17SetGlobalPropertyERKN9ShaderLab16FastPropertyNameER17ShaderPassContext
6192:__ZN9ShaderLabL27GetDesiredRenderTextureDescEPK6Camera
6193:__ZN13RenderTexture9GetActiveEi
6194:__ZN13RenderTexture10GrabPixelsEiiii
6195:__ZN7Texture13SetFilterModeE17TextureFilterMode
6196:__ZN13RenderTexture10GrabPixelsE12ObjectHandleI17RenderSurface_TagP17RenderSurfaceBaseES4_iiii
6197:__ZN19ShaderPropertySheet38CopyTextureWithAuxiliaryPropertiesFromERKN9ShaderLab16FastPropertyNameERKS_
6198:__ZNK9ShaderLab11ShaderState20FindSubProgramsToUseEPK6ShaderPKNS_4PassERNS_11SubProgramsERK17ShaderPassContext
6199:__ZN14GraphicsHelper28PrepareShaderParameterBufferER13dynamic_arrayIhLj4EERA6_P10GpuProgramRA6_PK20GpuProgramParametersRA6_PKhRKN9ShaderLab11SubProgramsEPK19ShaderPropertySheetSM_
6200:__ZNK22DeviceRenderStateBlock8OverrideERN9ShaderLab11ShaderState12DeviceStatesERi
6201:__ZNK20GpuProgramParameters13PrepareValuesEPK19ShaderPropertySheetS2_R13dynamic_arrayIhLj4EEjP12GfxPatchInfoPb
6202:__ZL22PrepareValueParametersI21FullParameterPreparerEvRK13dynamic_arrayIN20GpuProgramParameters14ValueParameterELj0EEjjjRS1_IhLj4EERKT_
6203:__ZNK21FullParameterPreparer16OnPrepareTextureERPKN9ShaderLab6TexEnvERKN20GpuProgramParameters16TextureParameterEj
6204:__ZNK21FullParameterPreparer22OnPrepareComputeBufferER15ComputeBufferIDRKN20GpuProgramParameters15BufferParameterEj
6205:__ZN9ShaderLab11shaderprops16GetComputeBufferEPK19ShaderPropertySheetS3_NS_16FastPropertyNameE
6206:__ZN9ShaderLab11shaderprops9GetTexEnvEPK19ShaderPropertySheetS3_NS_16FastPropertyNameE16TextureDimensionb
6207:__ZN10builtintex16GetDefaultTexEnvE16TextureDimensionb
6208:__ZNK21FullParameterPreparer13OnPrepareImplIfEEbR12PartialArrayIT_EN8GfxPatch4TypeERKN20GpuProgramParameters14ValueParameterERKN9ShaderLab11shaderprops16PropertyLocationEj
6209:__ZN9ShaderLab11shaderprops9GetVectorEPK19ShaderPropertySheetS3_NS_16FastPropertyNameE
6210:__ZN9ShaderLab11shaderprops9GetMatrixEPK19ShaderPropertySheetS3_NS_16FastPropertyNameE
6211:__ZNK9ShaderLab11ShaderState25InsertUnsupportedVariantsEPKNS_7ProgramE
6212:__ZN9ShaderLab11ShaderState25RemoveUnsupportedProgramsEPK6Shader
6213:__ZNK9ShaderLab10SubProgram14EnsureCompiledEv
6214:__ZN6Shader27MarkShaderStateNotSupportedEPKS_
6215:__ZN6Shader19MarkShaderHasErrorsEPKS_
6216:__ZNK9ShaderLab11ShaderState34ShouldRemoveAnyUnsupportedProgramsEv
6217:__ZNK9ShaderLab7Program19HasMatchingVariantsERK13dynamic_arrayI16ShaderKeywordSetLj0EE
6218:__ZN9ShaderLab7Program14RemoveVariantsERK13dynamic_arrayI16ShaderKeywordSetLj0EE
6219:__ZNK9ShaderLab7Program11IsSupportedEPK6Shader
6220:__Z15GetScriptMapperv
6221:__ZN12ScriptMapper10FindShaderERKN4core12basic_stringIcNS0_20StringStorageDefaultIcEEEE
6222:__ZN8Material14CreateMaterialER6ShaderN6Object9HideFlagsEb
6223:__ZN8Material9GetShaderEv
6224:__ZN18BaseObjectInternal9NewObjectI8MaterialEEP6Object10MemLabelId18ObjectCreationMode
6225:__ZN8MaterialD2Ev
6226:__ZN8MaterialD0Ev
6227:__ZN8Material17MainThreadCleanupEv
6228:__ZN8Material13AwakeFromLoadE17AwakeFromLoadMode
6229:__ZN8Material5ResetEv
6230:__ZNK8Material22GetTypeVirtualInternalEv
6231:__ZNK8Material20GetRuntimeMemorySizeEv
6232:__ZN8Material23VirtualRedirectTransferER19StreamedBinaryWrite
6233:__ZN8Material23VirtualRedirectTransferER18StreamedBinaryRead
6234:__ZN8Material23VirtualRedirectTransferER17RemapPPtrTransfer
6235:__ZN8Material23VirtualRedirectTransferER24GenerateTypeTreeTransfer
6236:__ZN8Material23VirtualRedirectTransferER14SafeBinaryRead
6237:__ZN8Material8TransferI14SafeBinaryReadEEvRT_
6238:__ZN14SafeBinaryRead19TransferSTLStyleMapINSt3__23mapIN4core12basic_stringIcNS3_20StringStorageDefaultIcEEEES7_NS1_4lessIS7_EE13stl_allocatorINS1_4pairIKS7_S7_EEL18MemLabelIdentifier1ELi16EEEEEEvRT_17TransferMetaFlags
6239:__ZN14SafeBinaryRead21TransferSTLStyleArrayINSt3__26vectorIN4core12basic_stringIcNS3_20StringStorageDefaultIcEEEE13stl_allocatorIS7_L18MemLabelIdentifier1ELi16EEEEEEvRT_17TransferMetaFlags
6240:__ZN18SharedMaterialDataC2E10MemLabelId
6241:__ZNSt3__26vectorINS_4pairI11ShaderTagIDS2_EENS_9allocatorIS3_EEE6insertENS_11__wrap_iterIPKS3_EEOS3_
6242:__ZN18UnityPropertySheet8TransferI14SafeBinaryReadEEvRT_
6243:__ZNSt3__26__treeINS_12__value_typeIN4core12basic_stringIcNS2_20StringStorageDefaultIcEEEES6_EENS_19__map_value_compareIS6_S7_NS_4lessIS6_EELb1EEE13stl_allocatorIS7_L18MemLabelIdentifier1ELi16EEE7destroyEPNS_11__tree_nodeIS7_PvEE
6244:__ZN14SafeBinaryRead19TransferSTLStyleMapINSt3__23mapI39DeprecatedFastPropertyNameSerializationN18UnityPropertySheet11UnityTexEnvENS1_4lessIS3_EENS1_9allocatorINS1_4pairIKS3_S5_EEEEEEEEvRT_17TransferMetaFlags
6245:__ZN14SafeBinaryRead19TransferSTLStyleMapINSt3__23mapI39DeprecatedFastPropertyNameSerializationfNS1_4lessIS3_EENS1_9allocatorINS1_4pairIKS3_fEEEEEEEEvRT_17TransferMetaFlags
6246:__ZN14SafeBinaryRead19TransferSTLStyleMapINSt3__23mapI39DeprecatedFastPropertyNameSerialization10ColorRGBAfNS1_4lessIS3_EENS1_9allocatorINS1_4pairIKS3_S4_EEEEEEEEvRT_17TransferMetaFlags
6247:__ZN14SafeBinaryRead19TransferSTLStyleMapINSt3__23mapIN9ShaderLab16FastPropertyNameEN18UnityPropertySheet11UnityTexEnvENS1_4lessIS4_EENS1_9allocatorINS1_4pairIKS4_S6_EEEEEEEEvRT_17TransferMetaFlags
6248:__ZN14SafeBinaryRead19TransferSTLStyleMapINSt3__23mapIN9ShaderLab16FastPropertyNameEfNS1_4lessIS4_EENS1_9allocatorINS1_4pairIKS4_fEEEEEEEEvRT_17TransferMetaFlags
6249:__ZN14SafeBinaryRead19TransferSTLStyleMapINSt3__23mapIN9ShaderLab16FastPropertyNameE10ColorRGBAfNS1_4lessIS4_EENS1_9allocatorINS1_4pairIKS4_S5_EEEEEEEEvRT_17TransferMetaFlags
6250:__ZNSt3__26__treeINS_12__value_typeIN9ShaderLab16FastPropertyNameE10ColorRGBAfEENS_19__map_value_compareIS3_S5_NS_4lessIS3_EELb1EEENS_9allocatorIS5_EEE7destroyEPNS_11__tree_nodeIS5_PvEE
6251:__ZN15SerializeTraitsINSt3__24pairIN9ShaderLab16FastPropertyNameE10ColorRGBAfEEE8TransferI14SafeBinaryReadEEvRS5_RT_
6252:__ZNSt3__26__treeINS_12__value_typeIN9ShaderLab16FastPropertyNameEfEENS_19__map_value_compareIS3_S4_NS_4lessIS3_EELb1EEENS_9allocatorIS4_EEE7destroyEPNS_11__tree_nodeIS4_PvEE
6253:__ZN15SerializeTraitsINSt3__24pairIN9ShaderLab16FastPropertyNameEfEEE8TransferI14SafeBinaryReadEEvRS4_RT_
6254:__ZNSt3__26__treeINS_12__value_typeIN9ShaderLab16FastPropertyNameEN18UnityPropertySheet11UnityTexEnvEEENS_19__map_value_compareIS3_S6_NS_4lessIS3_EELb1EEENS_9allocatorIS6_EEE7destroyEPNS_11__tree_nodeIS6_PvEE
6255:__ZN15SerializeTraitsINSt3__24pairIN9ShaderLab16FastPropertyNameEN18UnityPropertySheet11UnityTexEnvEEEE8TransferI14SafeBinaryReadEEvRS6_RT_
6256:__ZN18UnityPropertySheet11UnityTexEnv8TransferI14SafeBinaryReadEEvRT_
6257:__ZN18UnityPropertySheet11UnityTexEnvC2Ev
6258:__ZNSt3__26__treeINS_12__value_typeI39DeprecatedFastPropertyNameSerialization10ColorRGBAfEENS_19__map_value_compareIS2_S4_NS_4lessIS2_EELb1EEENS_9allocatorIS4_EEE7destroyEPNS_11__tree_nodeIS4_PvEE
6259:__ZN15SerializeTraitsINSt3__24pairI39DeprecatedFastPropertyNameSerialization10ColorRGBAfEEE8TransferI14SafeBinaryReadEEvRS4_RT_
6260:__ZN39DeprecatedFastPropertyNameSerialization8TransferI14SafeBinaryReadEEvRT_
6261:__ZNSt3__26__treeINS_12__value_typeI39DeprecatedFastPropertyNameSerializationfEENS_19__map_value_compareIS2_S3_NS_4lessIS2_EELb1EEENS_9allocatorIS3_EEE7destroyEPNS_11__tree_nodeIS3_PvEE
6262:__ZNSt3__26__treeINS_12__value_typeI39DeprecatedFastPropertyNameSerializationN18UnityPropertySheet11UnityTexEnvEEENS_19__map_value_compareIS2_S5_NS_4lessIS2_EELb1EEENS_9allocatorIS5_EEE7destroyEPNS_11__tree_nodeIS5_PvEE
6263:__ZN15SerializeTraitsINSt3__24pairI39DeprecatedFastPropertyNameSerializationN18UnityPropertySheet11UnityTexEnvEEEE8TransferI14SafeBinaryReadEEvRS5_RT_
6264:__ZNSt3__214__split_bufferINS_4pairI11ShaderTagIDS2_EERNS_9allocatorIS3_EEE9push_backEOS3_
6265:__ZN18SharedMaterialDataD2Ev
6266:__ZN18SharedMaterialDataD0Ev
6267:__ZN24MaterialDisplayListCache20MaterialDisplayLists22InvalidateDisplayListsEv
6268:__Z14resize_trimmedINSt3__26vectorIN4core12basic_stringIcNS2_20StringStorageDefaultIcEEEE13stl_allocatorIS6_L18MemLabelIdentifier1ELi16EEEEEvRT_j
6269:__ZNSt3__26vectorIN4core12basic_stringIcNS1_20StringStorageDefaultIcEEEE13stl_allocatorIS5_L18MemLabelIdentifier1ELi16EEE7reserveEj
6270:__ZNSt3__26vectorIN4core12basic_stringIcNS1_20StringStorageDefaultIcEEEE13stl_allocatorIS5_L18MemLabelIdentifier1ELi16EEE6assignINS_11__wrap_iterIPS5_EEEENS_9enable_ifIXaasr21__is_forward_iteratorIT_EE5valuesr16is_constructibleIS5_NS_15iterator_traitsISF_E9referenceEEE5valueEvE4typeESF_SF_
6271:__ZNSt3__26vectorIN4core12basic_stringIcNS1_20StringStorageDefaultIcEEEE13stl_allocatorIS5_L18MemLabelIdentifier1ELi16EEE8__appendEj
6272:__ZN15SerializeTraitsINSt3__24pairIN4core12basic_stringIcNS2_20StringStorageDefaultIcEEEES6_EEE8TransferI14SafeBinaryReadEEvRS7_RT_
6273:__ZNSt3__26__treeINS_12__value_typeIN4core12basic_stringIcNS2_20StringStorageDefaultIcEEEES6_EENS_19__map_value_compareIS6_S7_NS_4lessIS6_EELb1EEE13stl_allocatorIS7_L18MemLabelIdentifier1ELi16EEE25__emplace_unique_key_argsIS6_JRNS_4pairIS6_S6_EEEEENSH_INS_15__tree_iteratorIS7_PNS_11__tree_nodeIS7_PvEEiEEbEERKT_DpOT0_
6274:__ZN8Material8TransferI24GenerateTypeTreeTransferEEvRT_
6275:__ZN24GenerateTypeTreeTransfer19TransferSTLStyleMapINSt3__23mapIN4core12basic_stringIcNS3_20StringStorageDefaultIcEEEES7_NS1_4lessIS7_EE13stl_allocatorINS1_4pairIKS7_S7_EEL18MemLabelIdentifier1ELi16EEEEEEvRT_17TransferMetaFlags
6276:__ZN18UnityPropertySheet8TransferI24GenerateTypeTreeTransferEEvRT_
6277:__ZN15SerializeTraitsIN18UnityPropertySheet11UnityTexEnvEE8TransferI24GenerateTypeTreeTransferEEvRS1_RT_
6278:__ZN15SerializeTraitsINSt3__24pairIN4core12basic_stringIcNS2_20StringStorageDefaultIcEEEES6_EEE8TransferI24GenerateTypeTreeTransferEEvRS7_RT_
6279:__ZN8Material8TransferI17RemapPPtrTransferEEvRT_
6280:__ZN8Material8TransferI18StreamedBinaryReadEEvRT_
6281:__ZN18StreamedBinaryRead19TransferSTLStyleMapINSt3__23mapIN4core12basic_stringIcNS3_20StringStorageDefaultIcEEEES7_NS1_4lessIS7_EE13stl_allocatorINS1_4pairIKS7_S7_EEL18MemLabelIdentifier1ELi16EEEEEEvRT_17TransferMetaFlags
6282:__ZN18StreamedBinaryRead19TransferSTLStyleMapINSt3__23mapIN9ShaderLab16FastPropertyNameEN18UnityPropertySheet11UnityTexEnvENS1_4lessIS4_EENS1_9allocatorINS1_4pairIKS4_S6_EEEEEEEEvRT_17TransferMetaFlags
6283:__ZN18StreamedBinaryRead19TransferSTLStyleMapINSt3__23mapIN9ShaderLab16FastPropertyNameEfNS1_4lessIS4_EENS1_9allocatorINS1_4pairIKS4_fEEEEEEEEvRT_17TransferMetaFlags
6284:__ZN18StreamedBinaryRead19TransferSTLStyleMapINSt3__23mapIN9ShaderLab16FastPropertyNameE10ColorRGBAfNS1_4lessIS4_EENS1_9allocatorINS1_4pairIKS4_S5_EEEEEEEEvRT_17TransferMetaFlags
6285:__ZN18StreamedBinaryRead8TransferINSt3__24pairIN9ShaderLab16FastPropertyNameEfEEEEvRT_PKc17TransferMetaFlags
6286:__ZN18UnityPropertySheet11UnityTexEnv8TransferI18StreamedBinaryReadEEvRT_
6287:__ZN8Material8TransferI19StreamedBinaryWriteEEvRT_
6288:__ZN9shadertag16GetShaderTagNameE11ShaderTagID
6289:__ZNSt3__26__treeINS_12__value_typeIN4core12basic_stringIcNS2_20StringStorageDefaultIcEEEES6_EENS_19__map_value_compareIS6_S7_NS_4lessIS6_EELb1EEE13stl_allocatorIS7_L18MemLabelIdentifier1ELi16EEE25__emplace_unique_key_argsIS6_JRKNS_21piecewise_construct_tENS_5tupleIJOS6_EEENSK_IJEEEEEENS_4pairINS_15__tree_iteratorIS7_PNS_11__tree_nodeIS7_PvEEiEEbEERKT_DpOT0_
6290:__ZN18UnityPropertySheet8TransferI19StreamedBinaryWriteEEvRT_
6291:__Z36UnityPropertySheet_MakeSortedTexEnvsRKNSt3__23mapIN9ShaderLab16FastPropertyNameEN18UnityPropertySheet11UnityTexEnvENS_4lessIS2_EENS_9allocatorINS_4pairIKS2_S4_EEEEEER10vector_mapIS2_S4_S6_NS7_INS8_IS2_S4_EEEEE
6292:__ZN19StreamedBinaryWrite21TransferSTLStyleArrayI10vector_mapIN9ShaderLab16FastPropertyNameEN18UnityPropertySheet11UnityTexEnvENSt3__24lessIS3_EENS6_9allocatorINS6_4pairIS3_S5_EEEEEEEvRT_17TransferMetaFlags
6293:__Z35UnityPropertySheet_MakeSortedFloatsRKNSt3__23mapIN9ShaderLab16FastPropertyNameEfNS_4lessIS2_EENS_9allocatorINS_4pairIKS2_fEEEEEER10vector_mapIS2_fS4_NS5_INS6_IS2_fEEEEE
6294:__ZN19StreamedBinaryWrite8TransferINSt3__24pairIN9ShaderLab16FastPropertyNameEfEEEEvRT_PKc17TransferMetaFlags
6295:__Z35UnityPropertySheet_MakeSortedColorsRKNSt3__23mapIN9ShaderLab16FastPropertyNameE10ColorRGBAfNS_4lessIS2_EENS_9allocatorINS_4pairIKS2_S3_EEEEEER10vector_mapIS2_S3_S5_NS6_INS7_IS2_S3_EEEEE
6296:__ZN19StreamedBinaryWrite21TransferSTLStyleArrayI10vector_mapIN9ShaderLab16FastPropertyNameE10ColorRGBAfNSt3__24lessIS3_EENS5_9allocatorINS5_4pairIS3_S4_EEEEEEEvRT_17TransferMetaFlags
6297:__ZL15SortColorByNameRKNSt3__24pairIN9ShaderLab16FastPropertyNameE10ColorRGBAfEES6_
6298:__ZNSt3__26__sortIRPFbRKNS_4pairIN9ShaderLab16FastPropertyNameE10ColorRGBAfEES7_EPS5_EEvT0_SC_T_
6299:__ZNSt3__26vectorINS_4pairIN9ShaderLab16FastPropertyNameE10ColorRGBAfEENS_9allocatorIS5_EEE21__push_back_slow_pathIS5_EEvOT_
6300:__ZNSt3__27__sort3IRPFbRKNS_4pairIN9ShaderLab16FastPropertyNameE10ColorRGBAfEES7_EPS5_EEjT0_SC_SC_T_
6301:__ZNSt3__27__sort4IRPFbRKNS_4pairIN9ShaderLab16FastPropertyNameE10ColorRGBAfEES7_EPS5_EEjT0_SC_SC_SC_T_
6302:__ZNSt3__27__sort5IRPFbRKNS_4pairIN9ShaderLab16FastPropertyNameE10ColorRGBAfEES7_EPS5_EEjT0_SC_SC_SC_SC_T_
6303:__ZNSt3__227__insertion_sort_incompleteIRPFbRKNS_4pairIN9ShaderLab16FastPropertyNameE10ColorRGBAfEES7_EPS5_EEbT0_SC_T_
6304:__ZNSt3__26__sortIRPFbRKNS_4pairIN9ShaderLab16FastPropertyNameEfEES6_EPS4_EEvT0_SB_T_
6305:__ZNSt3__27__sort3IRPFbRKNS_4pairIN9ShaderLab16FastPropertyNameEfEES6_EPS4_EEjT0_SB_SB_T_
6306:__ZNSt3__27__sort5IRPFbRKNS_4pairIN9ShaderLab16FastPropertyNameEfEES6_EPS4_EEjT0_SB_SB_SB_SB_T_
6307:__ZNSt3__227__insertion_sort_incompleteIRPFbRKNS_4pairIN9ShaderLab16FastPropertyNameEfEES6_EPS4_EEbT0_SB_T_
6308:__ZN18UnityPropertySheet11UnityTexEnv8TransferI19StreamedBinaryWriteEEvRT_
6309:__ZNSt3__26__sortIRPFbRKNS_4pairIN9ShaderLab16FastPropertyNameEN18UnityPropertySheet11UnityTexEnvEEES8_EPS6_EEvT0_SD_T_
6310:__ZNSt3__26vectorINS_4pairIN9ShaderLab16FastPropertyNameEN18UnityPropertySheet11UnityTexEnvEEENS_9allocatorIS6_EEE21__push_back_slow_pathIS6_EEvOT_
6311:__ZNSt3__27__sort3IRPFbRKNS_4pairIN9ShaderLab16FastPropertyNameEN18UnityPropertySheet11UnityTexEnvEEES8_EPS6_EEjT0_SD_SD_T_
6312:__ZNSt3__27__sort4IRPFbRKNS_4pairIN9ShaderLab16FastPropertyNameEN18UnityPropertySheet11UnityTexEnvEEES8_EPS6_EEjT0_SD_SD_SD_T_
6313:__ZNSt3__27__sort5IRPFbRKNS_4pairIN9ShaderLab16FastPropertyNameEN18UnityPropertySheet11UnityTexEnvEEES8_EPS6_EEjT0_SD_SD_SD_SD_T_
6314:__ZNSt3__227__insertion_sort_incompleteIRPFbRKNS_4pairIN9ShaderLab16FastPropertyNameEN18UnityPropertySheet11UnityTexEnvEEES8_EPS6_EEbT0_SD_T_
6315:__ZNK19ShaderPropertySheet16GetSerializeSizeEv
6316:__ZN8Material15ResetWithShaderEP6Shader
6317:__ZN19ShaderPropertySheet5ClearEb
6318:__ZN8Material17UpdateToNewShaderEb
6319:__ZN8Material14SetOverrideTagE11ShaderTagIDS0_
6320:__ZN8keywords18StringToKeywordSetERKN4core12basic_stringIcNS0_20StringStorageDefaultIcEEEER16ShaderKeywordSet
6321:__ZN15NameToObjectMapI6ShaderNSt3__23mapI4PPtrIS0_EN4core12basic_stringIcNS5_20StringStorageDefaultIcEEEENS1_4lessIS4_EENS1_9allocatorINS1_4pairIKS4_S9_EEEEEENS1_8multimapIS9_S4_NSA_IS9_EENSC_INSD_IKS9_S4_EEEEEEE4FindERSK_
6322:__ZNSt3__26__treeINS_12__value_typeIN4core12basic_stringIcNS2_20StringStorageDefaultIcEEEE4PPtrI6ShaderEEENS_19__map_value_compareIS6_SA_NS_4lessIS6_EELb1EEENS_9allocatorISA_EEE19__equal_range_multiIS6_EENS_4pairINS_15__tree_iteratorISA_PNS_11__tree_nodeISA_PvEEiEESP_EERKT_
6323:__ZN22DeviceMVPMatricesStateC2ER9GfxDevice
6324:__ZN19ShaderPropertySheet18SetTextureUnscaledERK23FastTexturePropertyNameP7Texture8Vector2fS5_
6325:__ZN19ShaderPropertySheet24SetTextureScaleAndOffsetERK23FastTexturePropertyName8Vector2fS3_
6326:__ZN19ShaderPropertySheetC2ERK10MemLabelIdRKS_
6327:__ZNK14PlayableOutput7GetTypeEv
6328:__ZNK14PlayableOutput11DerivesFromE17ScriptingClassPtr
6329:__ZN14PlayableOutput17SetSourcePlayableEP8Playable
6330:__ZNK14PlayableOutput17GetSourcePlayableEv
6331:__ZN20BaseBehaviourManagerD2Ev
6332:__ZNSt3__26__treeINS_12__value_typeIiNS_4pairIP4ListI8ListNodeI9BehaviourEES8_EEEENS_19__map_value_compareIiSA_NS_4lessIiEELb1EEENS_9allocatorISA_EEE7destroyEPNS_11__tree_nodeISA_PvEE
6333:__ZN18DelayedCallManagerD2Ev
6334:__ZN18DelayedCallManagerD0Ev
6335:__ZN18DelayedCallManager17MainThreadCleanupEv
6336:__ZNK18DelayedCallManager22GetTypeVirtualInternalEv
6337:__ZN18DelayedCallManager6UpdateEi
6338:__ZN18DelayedCallManager8ClearAllEv
6339:__ZNSt3__26__treeIN18DelayedCallManager8CallbackENS_4lessIS2_EENS_9allocatorIS2_EEE7destroyEPNS_11__tree_nodeIS2_PvEE
6340:__ZN6SpriteD2Ev
6341:__ZN6SpriteD0Ev
6342:__ZN6Sprite17MainThreadCleanupEv
6343:__ZN6Sprite13AwakeFromLoadE17AwakeFromLoadMode
6344:__ZNK6Sprite22GetTypeVirtualInternalEv
6345:__ZN6Sprite23VirtualRedirectTransferER19StreamedBinaryWrite
6346:__ZN6Sprite23VirtualRedirectTransferER18StreamedBinaryRead
6347:__ZN6Sprite23VirtualRedirectTransferER17RemapPPtrTransfer
6348:__ZN6Sprite23VirtualRedirectTransferER24GenerateTypeTreeTransfer
6349:__ZN6Sprite23VirtualRedirectTransferER14SafeBinaryRead
6350:__ZN6Sprite8TransferI14SafeBinaryReadEEvRT_
6351:__ZN16SpriteRenderData8TransferI14SafeBinaryReadEEvRT_
6352:__ZN14SafeBinaryRead21TransferSTLStyleArrayINSt3__26vectorI13dynamic_arrayI8Vector2fLj0EENS1_9allocatorIS5_EEEEEEvRT_17TransferMetaFlags
6353:__ZN14SafeBinaryRead21TransferSTLStyleArrayI13dynamic_arrayI10SpriteBoneLj0EEEEvRT_17TransferMetaFlags
6354:__ZN13dynamic_arrayI10SpriteBoneLj0EE18resize_initializedEj12ResizePolicy
6355:__ZN10SpriteBone8TransferI14SafeBinaryReadEEvRT_
6356:__Z14resize_trimmedINSt3__26vectorI13dynamic_arrayI8Vector2fLj0EENS0_9allocatorIS4_EEEEEvRT_j
6357:__ZN14SafeBinaryRead21TransferSTLStyleArrayI13dynamic_arrayI8Vector2fLj0EEEEvRT_17TransferMetaFlags
6358:__ZNSt3__26vectorI13dynamic_arrayI8Vector2fLj0EENS_9allocatorIS3_EEE7reserveEj
6359:__ZNSt3__26vectorI13dynamic_arrayI8Vector2fLj0EENS_9allocatorIS3_EEE6assignINS_11__wrap_iterIPS3_EEEENS_9enable_ifIXaasr21__is_forward_iteratorIT_EE5valuesr16is_constructibleIS3_NS_15iterator_traitsISC_E9referenceEEE5valueEvE4typeESC_SC_
6360:__ZNSt3__26vectorI13dynamic_arrayI8Vector2fLj0EENS_9allocatorIS3_EEE8__appendEj
6361:__ZNSt3__26vectorI13dynamic_arrayI8Vector2fLj0EENS_9allocatorIS3_EEE26__swap_out_circular_bufferERNS_14__split_bufferIS3_RS5_EE
6362:__ZNSt3__26vectorI13dynamic_arrayI8Vector2fLj0EENS_9allocatorIS3_EEE18__construct_at_endINS_11__wrap_iterIPS3_EEEENS_9enable_ifIXsr21__is_forward_iteratorIT_EE5valueEvE4typeESC_SC_j
6363:__ZN14SafeBinaryRead21TransferSTLStyleArrayI13dynamic_arrayI7SubMeshLj0EEEEvRT_17TransferMetaFlags
6364:__ZN14SafeBinaryRead21TransferSTLStyleArrayI13dynamic_arrayI12SpriteVertexLj0EEEEvRT_17TransferMetaFlags
6365:__ZN14SafeBinaryRead21TransferSTLStyleArrayI13dynamic_arrayItLj0EEEEvRT_17TransferMetaFlags
6366:__Z23SetSpriteMeshIndexCountP14SharedMeshDataj
6367:__Z24SetSpriteMeshVertexCountP14SharedMeshDataj
6368:__ZN10VertexData8TransferI14SafeBinaryReadEEvRT_
6369:__ZN14SafeBinaryRead21TransferSTLStyleArrayI13dynamic_arrayI10Matrix4x4fLj16EEEEvRT_17TransferMetaFlags
6370:__ZN14SafeBinaryRead21TransferSTLStyleArrayI13dynamic_arrayI12BoneWeights4Lj0EEEEvRT_17TransferMetaFlags
6371:__ZN16SpriteRenderData14SetBoneWeightsEPK12BoneWeights4i
6372:__ZN12BoneWeights48TransferI14SafeBinaryReadEEvRT_
6373:__ZN10Matrix4x4f8TransferI14SafeBinaryReadEEvRT_
6374:__ZN14SafeBinaryRead21TransferSTLStyleArrayI13dynamic_arrayI11ChannelInfoLj0EEEEvRT_17TransferMetaFlags
6375:__Z33BuildLegacyShaderChannelsFromMaskR13dynamic_arrayI11ChannelInfoLj0EEj
6376:__ZN10VertexData27ConvertLegacyShaderChannelsERK13dynamic_arrayI11ChannelInfoLj0EE
6377:__ZN14SafeBinaryRead16TransferTypelessEPjPKc17TransferMetaFlags
6378:__ZN14SafeBinaryRead20TransferTypelessDataEjPvi
6379:__ZN10VertexDataC2ERK10MemLabelIdRKS_17ShaderChannelMaskRK19VertexStreamsLayoutRK20VertexChannelsLayout
6380:__ZN15SerializeTraitsI11ChannelInfoE8TransferI14SafeBinaryReadEEvRS0_RT_
6381:__ZN14SafeBinaryRead8TransferItEEvRT_PKc17TransferMetaFlags
6382:__ZN12SpriteVertex8TransferI14SafeBinaryReadEEvRT_
6383:__ZN13dynamic_arrayI7SubMeshLj0EE18resize_initializedEj12ResizePolicy
6384:__ZN7SubMesh8TransferI14SafeBinaryReadEEvRT_
6385:__ZN6Sprite8TransferI24GenerateTypeTreeTransferEEvRT_
6386:__ZN16SpriteRenderData8TransferI24GenerateTypeTreeTransferEEvRT_
6387:__ZN24GenerateTypeTreeTransfer21TransferSTLStyleArrayINSt3__26vectorI13dynamic_arrayI8Vector2fLj0EENS1_9allocatorIS5_EEEEEEvRT_17TransferMetaFlags
6388:__ZN24GenerateTypeTreeTransfer8TransferI13dynamic_arrayI10SpriteBoneLj0EEEEvRT_PKc17TransferMetaFlags
6389:__ZN10SpriteBone8TransferI24GenerateTypeTreeTransferEEvRT_
6390:__ZN7SubMesh8TransferI24GenerateTypeTreeTransferEEvRT_
6391:__ZN10VertexData8TransferI24GenerateTypeTreeTransferEEvRT_
6392:__ZN10Matrix4x4f8TransferI24GenerateTypeTreeTransferEEvRT_
6393:__ZN11ChannelInfo8TransferI24GenerateTypeTreeTransferEEvRT_
6394:__ZN24GenerateTypeTreeTransfer16TransferTypelessEPjPKc17TransferMetaFlags
6395:__ZN24GenerateTypeTreeTransfer20TransferTypelessDataEjPvi
6396:__ZN16SpriteRenderData8TransferI17RemapPPtrTransferEEvRT_
6397:__ZN10VertexData8TransferI17RemapPPtrTransferEEvRT_
6398:__ZN6Sprite8TransferI18StreamedBinaryReadEEvRT_
6399:__ZN16SpriteRenderData8TransferI18StreamedBinaryReadEEvRT_
6400:__ZN18StreamedBinaryRead21TransferSTLStyleArrayI13dynamic_arrayI8Vector2fLj0EEEEvRT_17TransferMetaFlags
6401:__ZN10SpriteBone8TransferI18StreamedBinaryReadEEvRT_
6402:__ZN7SubMesh8TransferI18StreamedBinaryReadEEvRT_
6403:__ZN10VertexData8TransferI18StreamedBinaryReadEEvRT_
6404:__ZN18StreamedBinaryRead21TransferSTLStyleArrayI13dynamic_arrayI10Matrix4x4fLj16EEEEvRT_17TransferMetaFlags
6405:__ZN10Matrix4x4f8TransferI18StreamedBinaryReadEEvRT_
6406:__ZN18StreamedBinaryRead21TransferSTLStyleArrayI13dynamic_arrayI11ChannelInfoLj0EEEEvRT_17TransferMetaFlags
6407:__ZN18StreamedBinaryRead16TransferTypelessEPjPKc17TransferMetaFlags
6408:__ZN18StreamedBinaryRead20TransferTypelessDataEjPvi
6409:__ZN12CachedReader4SkipEj
6410:__ZN11ChannelInfo8TransferI18StreamedBinaryReadEEvRT_
6411:__ZN6Sprite8TransferI19StreamedBinaryWriteEEvRT_
6412:__ZN16SpriteRenderData8TransferI19StreamedBinaryWriteEEvRT_
6413:__ZN19StreamedBinaryWrite8TransferI13dynamic_arrayI8Vector2fLj0EEEEvRT_PKc17TransferMetaFlags
6414:__ZN10SpriteBone8TransferI19StreamedBinaryWriteEEvRT_
6415:__ZN7SubMesh8TransferI19StreamedBinaryWriteEEvRT_
6416:__ZN10VertexData8TransferI19StreamedBinaryWriteEEvRT_
6417:__ZN10Matrix4x4f8TransferI19StreamedBinaryWriteEEvRT_
6418:__ZN11ChannelInfo8TransferI19StreamedBinaryWriteEEvRT_
6419:__ZN19StreamedBinaryWrite16TransferTypelessEPjPKc17TransferMetaFlags
6420:__ZN19StreamedBinaryWrite20TransferTypelessDataEjPvi
6421:__ZN12CachedWriter5WriteEPKvj
6422:__ZN6Sprite19LoadAtlasRenderDataEb
6423:__Z21GetSpriteAtlasManagerv
6424:__ZN18SpriteAtlasManager8GetAtlasERK4PPtrI6SpriteE
6425:__ZNK11SpriteAtlas20GetRuntimeRenderDataEPK6Sprite
6426:__ZNK6Sprite16GetRenderDataKeyEv
6427:__ZNK4core8hash_setINS_4pairIKNSt3__24pairI9UnityGUIDxEE15SpriteAtlasDataLb0EEENS_9hash_pairI23SpriteRenderDataKeyHashS6_S7_EENS_10equal_pairINS2_8equal_toIS5_EES6_S7_EEE6lookupIS5_EEPNSG_4nodeERKT_
6428:__ZN13sorted_vectorI4PPtrI11SpriteAtlasENSt3__24lessIS2_EE13stl_allocatorIS2_L18MemLabelIdentifier1ELi16EEE21sort_clear_duplicatesEv
6429:__ZNK4core8hash_setINS_4pairIKNS_12basic_stringIcNS_20StringStorageDefaultIcEEEE10vector_setI4PPtrI11SpriteAtlasENSt3__24lessISA_EE13stl_allocatorISA_L18MemLabelIdentifier81ELi16EEELb1EEENS_9hash_pairINS_4hashIS5_EES6_SH_EENS_10equal_pairINSB_8equal_toIS5_EES6_SH_EEE6lookupIS5_EEPNSR_4nodeERKT_
6430:__ZN18SpriteAtlasManager19AddRequestingSpriteE4PPtrI6SpriteE
6431:__ZNK4core8hash_setINS_4pairIKNS_12basic_stringIcNS_20StringStorageDefaultIcEEEE13dynamic_arrayI4PPtrI6SpriteELj0EELb1EEENS_9hash_pairINS_4hashIS5_EES6_SB_EENS_10equal_pairINSt3__28equal_toIS5_EES6_SB_EEE6lookupIS5_EEPNSM_4nodeERKT_
6432:__ZN4core8hash_mapINS_12basic_stringIcNS_20StringStorageDefaultIcEEEE13dynamic_arrayI4PPtrI6SpriteELj0EENS_4hashIS4_EENSt3__28equal_toIS4_EEEixERKS4_
6433:__ZN13sorted_vectorIN4core12basic_stringIcNS0_20StringStorageDefaultIcEEEENSt3__24lessIS4_EE13stl_allocatorIS4_L18MemLabelIdentifier81ELi16EEE4findIS4_EENS5_11__wrap_iterIPS4_EERKT_
6434:__ZNSt3__26vectorIN4core12basic_stringIcNS1_20StringStorageDefaultIcEEEE13stl_allocatorIS5_L18MemLabelIdentifier81ELi16EEE21__push_back_slow_pathIRKS5_EEvOT_
6435:__ZN4core8hash_setINS_4pairIKNS_12basic_stringIcNS_20StringStorageDefaultIcEEEE13dynamic_arrayI4PPtrI6SpriteELj0EELb1EEENS_9hash_pairINS_4hashIS5_EES6_SB_EENS_10equal_pairINSt3__28equal_toIS5_EES6_SB_EEE4growEi
6436:__ZN4core9base_pairIKNS_12basic_stringIcNS_20StringStorageDefaultIcEEEE13dynamic_arrayI4PPtrI6SpriteELj0EELb1ELb1EEC2ERS5_RKSA_RK10MemLabelId
6437:__ZNSt3__213__stable_sortIRNS_4lessI4PPtrI11SpriteAtlasEEENS_11__wrap_iterIPS4_EEEEvT0_SA_T_NS_15iterator_traitsISA_E15difference_typeEPNSD_10value_typeEi
6438:__ZNSt3__218__stable_sort_moveIRNS_4lessI4PPtrI11SpriteAtlasEEENS_11__wrap_iterIPS4_EEEEvT0_SA_T_NS_15iterator_traitsISA_E15difference_typeEPNSD_10value_typeE
6439:__ZNSt3__215__inplace_mergeIRNS_4lessI4PPtrI11SpriteAtlasEEENS_11__wrap_iterIPS4_EEEEvT0_SA_SA_T_NS_15iterator_traitsISA_E15difference_typeESE_PNSD_10value_typeEi
6440:__ZN16SpriteRenderData17MainThreadCleanupEv
6441:__ZN23SharedMeshRenderingData6UnloadEv
6442:__ZN16SpriteRenderDataD2Ev
6443:__ZN12CubemapArrayD2Ev
6444:__ZN12CubemapArrayD0Ev
6445:__ZN12CubemapArray17MainThreadCleanupEv
6446:__ZN12CubemapArray13AwakeFromLoadE17AwakeFromLoadMode
6447:__ZN12CubemapArray21AwakeFromLoadThreadedEv
6448:__ZN12CubemapArray5ResetEv
6449:__ZNK12CubemapArray22GetTypeVirtualInternalEv
6450:__ZNK12CubemapArray20GetRuntimeMemorySizeEv
6451:__ZN12CubemapArray23VirtualRedirectTransferER19StreamedBinaryWrite
6452:__ZN12CubemapArray23VirtualRedirectTransferER18StreamedBinaryRead
6453:__ZN12CubemapArray23VirtualRedirectTransferER17RemapPPtrTransfer
6454:__ZN12CubemapArray23VirtualRedirectTransferER24GenerateTypeTreeTransfer
6455:__ZN12CubemapArray23VirtualRedirectTransferER14SafeBinaryRead
6456:__ZNK12CubemapArray26CanReuploadDataToGfxDeviceEv
6457:__ZNK12CubemapArray20GetTextureLayerCountEv
6458:__ZNK12CubemapArray12GetDimensionEv
6459:__ZN12CubemapArray34UpdateFileTextureUploadInstructionEP24TextureUploadInstructionj
6460:__ZNK12CubemapArray13GetIsReadableEv
6461:__ZN12CubemapArray19UnloadFromGfxDeviceEb
6462:__ZN12CubemapArray17UploadToGfxDeviceEv
6463:__ZNK12CubemapArray16ExtractImageImplEP14ImageReference13ImageBlitModebi
6464:__ZN14ImageReference9BlitImageERKS_13ImageBlitMode
6465:__ZL13BlitImageImplR14ImageReferenceiiRKS_17TextureColorSpace13ImageBlitModeb
6466:__ZN6prcore14BlitImageFlipYERK14ImageReferenceRS0_ii
6467:__ZN6prcore9BlitImageERK14ImageReferenceRS0_ii
6468:__ZN6prcore14BlitImageFlipYERK14ImageReferenceRS0_13ImageBlitMode
6469:__ZN6prcore9BlitImageERK14ImageReferenceRS0_13ImageBlitMode
6470:__Z21HasAlphaTextureFormat13TextureFormat
6471:__ZL21BlitScaleStbImageImplRK14ImageReferenceRS_17TextureColorSpace
6472:__ZN6prcore10FlipImageYER14ImageReference
6473:__ZN6prcoreL10inner_flipILj2EEEvPhS1_j
6474:__ZN6prcoreL10inner_flipILj3EEEvPhS1_j
6475:__ZN6prcoreL10inner_flipILj4EEEvPhS1_j
6476:__ZN6prcoreL10inner_flipILj1EEEvPhS1_j
6477:__Z11IsHDRFormat13TextureFormat
6478:__ZL8StbAllocjPv
6479:__ZL7StbFreePvS_
6480:_stbir_resize
6481:__ZL23stbir__resize_arbitraryPvPKviiiS_iiiffffPfiij14stbir_datatype12stbir_filterS4_10stbir_edgeS5_16stbir_colorspace
6482:__ZL23stbir__calculate_memoryP11stbir__info
6483:__ZL24stbir__calculate_filtersP19stbir__contributorsPf12stbir_filterffii
6484:__ZL22stbir__decode_scanlineP11stbir__infoi
6485:__ZL35stbir__resample_horizontal_upsampleP11stbir__infoPf
6486:__ZL37stbir__resample_horizontal_downsampleP11stbir__infoPf
6487:__ZL22stbir__encode_scanlineP11stbir__infoiPvPfiii
6488:__ZL19stbir__support_zerof
6489:__ZL23stbir__filter_trapezoidff
6490:__ZL24stbir__support_trapezoidf
6491:__ZL22stbir__filter_triangleff
6492:__ZL18stbir__support_onef
6493:__ZL19stbir__filter_cubicff
6494:__ZL18stbir__support_twof
6495:__ZL24stbir__filter_catmullromff
6496:__ZL22stbir__filter_mitchellff
6497:__ZL31stbir__filter_mitchell_modifiedff
6498:__ZN6prcore14BlitImageFloatERK14ImageReferenceRS0_13ImageBlitMode
6499:__ZN6prcore21BlitImageRemapNoScaleERK14ImageReferenceRS0_
6500:__ZN6prcore17GetIntegerBlitterE13TextureFormatS0_13ImageBlitMode
6501:__ZN6prcoreL29BlitFuncExecuteFromSelectInfoEPKNS_9InnerInfoEPKv
6502:__ZN6prcoreL21CreateRemapAnyBlitterE13TextureFormatS0_
6503:__ZN6prcoreL18BlitIntegerToFloatERK14ImageReferenceRS0_
6504:__ZN6prcoreL17BlitBilinearFloatERK14ImageReferenceRS0_
6505:__ZN6prcoreL18BlitFloatToIntegerERK14ImageReferenceRS0_
6506:__ZN6prcore16BlitFuncInfoSIMD19BlitFuncExecuteSIMDEPKNS_9InnerInfoEPKv
6507:__ZN14ImageReferenceC2Eiii13TextureFormatPv
6508:__ZN7Texture25ReloadFromStorageIfNeededEPvb
6509:__ZN12CubemapArray13UploadTextureEv
6510:__ZN17PersistentManager14ReloadFromDiskER6Object
6511:__Z21CalculateMipMapOffsetii13TextureFormati
6512:__Z18CalculateImageSizeii13TextureFormat
6513:__Z29GetRowBytesFromWidthAndFormati13TextureFormat
6514:__ZNK7Texture41QueryPersistentManagerForDataAvailabilityEv
6515:__ZN12CubemapArray8TransferI14SafeBinaryReadEEvRT_
6516:__ZN14SafeBinaryRead21TransferResourceImageE19ActiveResourceImagePKcR13StreamingInfoPvjiPKN5Unity4TypeE
6517:__ZN13StreamingInfo8TransferI14SafeBinaryReadEEvRT_
6518:__ZN12CubemapArray8TransferI24GenerateTypeTreeTransferEEvRT_
6519:__ZN24GenerateTypeTreeTransfer21TransferResourceImageE19ActiveResourceImagePKcR13StreamingInfoPvjiPKN5Unity4TypeE
6520:__ZN29SerializeTraitsForStringTypesIN4core12basic_stringIcNS0_20StringStorageDefaultIcEEEEE8TransferI24GenerateTypeTreeTransferEEvRS4_RT_
6521:__ZN12CubemapArray8TransferI18StreamedBinaryReadEEvRT_
6522:__ZN18StreamedBinaryRead21TransferResourceImageE19ActiveResourceImagePKcR13StreamingInfoPvjiPKN5Unity4TypeE
6523:__ZN12CubemapArray8TransferI19StreamedBinaryWriteEEvRT_
6524:__ZN19StreamedBinaryWrite21TransferResourceImageE19ActiveResourceImagePKcR13StreamingInfoPvjiPKN5Unity4TypeE
6525:__ZN7Texture16BeginAsyncUploadEj
6526:__Z18UploadAsyncTextureR7Texturej
6527:__ZN7Texture38InitializeFileTextureUploadInstructionER24TextureUploadInstructionj
6528:__ZL26CalculateAsyncTextureSizesPK24TextureUploadInstructionRjS2_S2_
6529:__ZL32AsyncTextureReadCompleteCallbackbRK23AsyncUploadCallbackInfo
6530:__ZL38AsyncTextureProcessingCompleteCallbackR9GfxDeviceRK23AsyncUploadCallbackInfo
6531:__ZN18AsyncUploadManager16QueueUploadAssetEPKcjjjRK18AsyncUploadHandler
6532:__ZN15TextureSettings38ClearUnsupportedSettingsForColorFormatE13TextureFormat
6533:__Z19UploadTexture2DDataRK23UploadTextureDataParams
6534:__Z17UploadCubemapData9TextureIDPhjiiii14GraphicsFormat18TextureUploadFlagsR9GfxDevice
6535:__Z16DecompressCrunchPKhRjR13TextureFormatiiii10MemLabelId
6536:__ZN4crnd17crnd_unpack_beginEPKvj
6537:__ZN4crnd21crnd_get_texture_infoEPKvjPNS_16crn_texture_infoE
6538:__Z24CalculateImageMipMapSizeii13TextureFormat
6539:__ZN4crnd17crnd_unpack_levelEPvPS0_jjj
6540:__ZN4crnd12crn_unpackerD2Ev
6541:__ZN4crndL20crnd_default_reallocEPvjPjbS0_
6542:__ZN4crnd11crnd_deleteINS_13prefix_coding14decoder_tablesEEEvPT_
6543:__ZN4crnd12crn_unpacker12unpack_levelEPKvjPPvjjj
6544:__ZN4crnd12crn_unpacker11unpack_dxt1EPPhjjj
6545:__ZN4crnd12crn_unpacker11unpack_dxt5EPPhjjj
6546:__ZN4crnd12crn_unpacker12unpack_dxt5aEPPhjjj
6547:__ZN4crnd12crn_unpacker10unpack_dxnEPPhjjj
6548:__ZN4crnd12crn_unpacker11unpack_etc1EPPhjjj
6549:__ZN4crnd12crn_unpacker12unpack_etc2aEPPhjjj
6550:__ZN4crnd16elemental_vector17increase_capacityEjbjPFvPvS1_jE
6551:__ZN4crnd12symbol_codec6decodeERKNS_25static_huffman_data_modelE
6552:__ZN4crnd11crnd_mallocEjPj
6553:__ZN4crnd12crn_unpacker11init_tablesEv
6554:__ZN4crnd12crn_unpacker15decode_palettesEv
6555:__ZN4crnd12crn_unpacker22decode_color_endpointsEv
6556:__ZN4crnd12crn_unpacker22decode_color_selectorsEv
6557:__ZN4crnd12crn_unpacker22decode_alpha_endpointsEv
6558:__ZN4crnd12crn_unpacker26decode_alpha_selectors_etcEv
6559:__ZN4crnd12crn_unpacker22decode_alpha_selectorsEv
6560:__ZN4crnd12symbol_codec32decode_receive_static_data_modelERNS_25static_huffman_data_modelE
6561:__ZN4crnd12symbol_codec11decode_bitsEj
6562:__ZN4crnd25static_huffman_data_model22prepare_decoder_tablesEv
6563:__ZN4crnd13prefix_coding14decoder_tables4initEjPKhj
6564:__Z29SkipMipLevelsForTextureUploadi13TextureFormatiPPKhPiS3_S3_b
6565:__Z19GetBytesForOnePixel13TextureFormat
6566:__ZL17DoScaledPaddedJobP24TextureUploadInstruction
6567:__ZN9TextureOpI11TextureDataE15ExtractMipLevelEPS0_S2_iibb
6568:__ZL18DoCubemapMipmapJobP24TextureUploadInstruction
6569:__ZL15DoDeCruncherJobP24TextureUploadInstruction
6570:__Z21SourceMipLevelForBlitiiii
6571:__Z23BlitCopyCompressedImage13TextureFormatPKhiiPhiib
6572:__ZN9TextureOpI11TextureDataE12ExtractImageEPS0_P14ImageReference13ImageBlitModebi
6573:__ZN17SharedTextureData32GetCrunchDecompressedTextureDataI11TextureDataEEbRKT_
6574:__ZN9TextureOpI17SharedTextureDataE12ExtractImageEPS0_P14ImageReference13ImageBlitModebi
6575:__Z26GetDecompressTextureFormat13TextureFormat
6576:__ZN5Image8SetImageERK14ImageReferenceb
6577:__Z41DecompressNativeTextureFormatWithMipLevel13TextureFormatS_iiiPKjiiPj
6578:__ZNK14ImageReference9ClipImageEiiii
6579:__Z14PadImageBorderR14ImageReferenceii
6580:__Z29DecompressNativeTextureFormat13TextureFormatS_iiPKjiiPj
6581:__Z19GetColorBlockColorsPK11DXTColBlockP9Color8888
6582:__Z16DecodeColorBlockPjRK11DXTColBlockiPKj
6583:__Z19DecodeAlphaExplicitPjRK21DXTAlphaBlockExplicitij
6584:__Z21DecodeAlpha3BitLinearPjRK23DXTAlphaBlock3BitLineariji
6585:__Z14DecompressBC6HiiiPKjPj13TextureFormat
6586:__Z13DecompressBC7iiiPKjPj
6587:__Z14DecodeBC7BlockP9HDRColorAPKh
6588:__Z15DecodeBC6HBlockP9HDRColorAPKh
6589:__ZN5Image8SetImageEii13TextureFormatb
6590:__ZN17SharedTextureData32GetCrunchDecompressedTextureDataIS_EEbRKT_
6591:__ZN11TextureData5ResetEv
6592:__ZN7CubemapD2Ev
6593:__ZN7CubemapD0Ev
6594:__ZN9Texture2D17MainThreadCleanupEv
6595:__ZN9Texture2D13AwakeFromLoadE17AwakeFromLoadMode
6596:__ZN9Texture2D21AwakeFromLoadThreadedEv
6597:__ZN9Texture2D5ResetEv
6598:__ZNK7Cubemap22GetTypeVirtualInternalEv
6599:__ZNK9Texture2D20GetRuntimeMemorySizeEv
6600:__ZN7Cubemap23VirtualRedirectTransferER19StreamedBinaryWrite
6601:__ZN7Cubemap23VirtualRedirectTransferER18StreamedBinaryRead
6602:__ZN7Cubemap23VirtualRedirectTransferER17RemapPPtrTransfer
6603:__ZN7Cubemap23VirtualRedirectTransferER24GenerateTypeTreeTransfer
6604:__ZN7Cubemap23VirtualRedirectTransferER14SafeBinaryRead
6605:__ZN9Texture2D13ApplySettingsEv
6606:__ZNK9Texture2D20GetUnscaledTextureIDEv
6607:__ZNK9Texture2D16GetNpotTexelSizeEv
6608:__ZNK9Texture2D13IsNPOTAllowedEv
6609:__ZNK9Texture2D26CanReuploadDataToGfxDeviceEv
6610:__ZNK7Cubemap12GetDimensionEv
6611:__ZN7Cubemap34UpdateFileTextureUploadInstructionEP24TextureUploadInstructionj
6612:__ZN9Texture2D33VerifyFileTextureUploadCompletionEv
6613:__ZNK9Texture2D13GetIsReadableEv
6614:__ZNK9Texture2D20GetStorageMemorySizeEv
6615:__ZN9Texture2D19UnloadFromGfxDeviceEb
6616:__ZN9Texture2D17UploadToGfxDeviceEv
6617:__ZNK9Texture2D16ExtractImageImplEP14ImageReference13ImageBlitModebi
6618:__ZN7Cubemap13UploadTextureEi
6619:__ZNK9Texture2D13GetDataFormatEv
6620:__ZN7Cubemap11InitTextureEii13TextureFormat20TextureCreationFlagsiii16TextureDimension
6621:__ZN9Texture2D15UpdateImageDataEv
6622:__ZN9Texture2D30UpdateImageDataDontTouchMipmapEv
6623:__ZN7Cubemap13RebuildMipMapEv
6624:__Z12CreateMipMapPhiii13TextureFormat
6625:__Z20IsNPOTTextureAllowedb
6626:__ZN9Texture2D11InitTextureEii13TextureFormat20TextureCreationFlagsiii16TextureDimension
6627:__Z20IsValidTextureFormat13TextureFormat
6628:__Z25GetNextAllowedTextureSizeib13TextureFormat
6629:__Z30CalculateImageSizeWithMipCountii13TextureFormatj
6630:__ZN9Texture2D19InitTextureInternalEii13TextureFormati20TextureCreationFlagsii
6631:__ZN23TextureStreamingManager13RemoveTextureER9Texture2D
6632:__ZN9Texture2D16DeleteGfxTextureEv
6633:__ZN23TextureStreamingManager10AddTextureER9Texture2D
6634:__ZN23TextureStreamingManager14AddTextureDataER9Texture2D
6635:__ZN20TextureStreamingData10AddTextureEii13TextureFormatiii
6636:__ZN9Texture2D17SetStreamingIndexEj
6637:__ZN20TextureStreamingData15ReserveTexturesEj
6638:__Z32ConvertToDeCrunchedTextureFormat13TextureFormat
6639:__ZN17SharedTextureDataC2E10MemLabelIdii13TextureFormatjiibb
6640:__ZN23TextureStreamingManager21RemoveTextureInternalER9Texture2D
6641:__ZN20TextureStreamingData13RemoveTextureEi
6642:__Z29GetTextureSizeAllowedMultiple13TextureFormat
6643:__ZN23TextureStreamingManager20GetLoadedMipmapLevelERK9Texture2D
6644:__ZN14SafeBinaryRead22TransferWithTypeStringI7CubemapEEvRT_PKcS5_17TransferMetaFlags
6645:__ZN9Texture2D8TransferI14SafeBinaryReadEEvRT_
6646:__ZN14SafeBinaryRead21TransferSTLStyleArrayINSt3__26vectorI4PPtrI9Texture2DENS1_9allocatorIS5_EEEEEEvRT_17TransferMetaFlags
6647:__Z14resize_trimmedINSt3__26vectorI4PPtrI9Texture2DENS0_9allocatorIS4_EEEEEvRT_j
6648:__ZNSt3__26vectorI4PPtrI9Texture2DENS_9allocatorIS3_EEE6assignINS_11__wrap_iterIPS3_EEEENS_9enable_ifIXaasr21__is_forward_iteratorIT_EE5valuesr16is_constructibleIS3_NS_15iterator_traitsISC_E9referenceEEE5valueEvE4typeESC_SC_
6649:__ZNSt3__26vectorI4PPtrI9Texture2DENS_9allocatorIS3_EEE8__appendEj
6650:__ZN9Texture2D8TransferI24GenerateTypeTreeTransferEEvRT_
6651:__ZN9Texture2D8TransferI17RemapPPtrTransferEEvRT_
6652:__ZN7Cubemap8TransferI18StreamedBinaryReadEEvRT_
6653:__ZN9Texture2D8TransferI18StreamedBinaryReadEEvRT_
6654:__ZN7Cubemap8TransferI19StreamedBinaryWriteEEvRT_
6655:__ZN9Texture2D8TransferI19StreamedBinaryWriteEEvRT_
6656:__ZNK23TextureStreamingManager17IsCalculatingMipsEv
6657:__ZN9Texture2DD2Ev
6658:__ZN9Texture2D15ThreadedCleanupEv
6659:__ZN9Texture2DD0Ev
6660:__ZNK9Texture2D22GetTypeVirtualInternalEv
6661:__ZN9Texture2D23VirtualRedirectTransferER19StreamedBinaryWrite
6662:__ZN9Texture2D23VirtualRedirectTransferER18StreamedBinaryRead
6663:__ZN9Texture2D23VirtualRedirectTransferER24GenerateTypeTreeTransfer
6664:__ZN9Texture2D23VirtualRedirectTransferER14SafeBinaryRead
6665:__ZN9Texture2D34UpdateFileTextureUploadInstructionEP24TextureUploadInstructionj
6666:__ZN9Texture2D13UploadTextureEi
6667:__ZN9Texture2D13RebuildMipMapEv
6668:__ZN9Texture2D25CreateScaledAndPaddedDataEPP17SharedTextureDataS2_
6669:__ZN9Texture2D26AllocateScaledOrPaddedDataE13TextureFormat
6670:__ZN17SharedTextureData17GetImageReferenceEii
6671:__ZN9TextureOpI17SharedTextureDataE15ExtractMipLevelEPS0_S2_iibb
6672:__ZN9TextureOpI17SharedTextureDataE22ExtractCompressedImageEPS0_Phiii
6673:__ZN17SharedTextureData17GetImageReferenceEP14ImageReferenceii
6674:__ZN15QualitySettingsD2Ev
6675:__ZN15QualitySettingsD0Ev
6676:__ZN15QualitySettings13AwakeFromLoadE17AwakeFromLoadMode
6677:__ZN15QualitySettings16CheckConsistencyEv
6678:__ZN15QualitySettings5ResetEv
6679:__ZNK15QualitySettings22GetTypeVirtualInternalEv
6680:__ZN15QualitySettings23VirtualRedirectTransferER19StreamedBinaryWrite
6681:__ZN15QualitySettings23VirtualRedirectTransferER18StreamedBinaryRead
6682:__ZN15QualitySettings23VirtualRedirectTransferER24GenerateTypeTreeTransfer
6683:__ZN15QualitySettings23VirtualRedirectTransferER14SafeBinaryRead
6684:__ZN15QualitySettings8TransferI14SafeBinaryReadEEvRT_
6685:__ZN14SafeBinaryRead21TransferSTLStyleArrayINSt3__26vectorIN15QualitySettings14QualitySettingENS1_9allocatorIS4_EEEEEEvRT_17TransferMetaFlags
6686:__ZL32InitializeDefaultQualitySettingsPN15QualitySettings14QualitySettingE
6687:__ZN15QualitySettings14QualitySetting8TransferI14SafeBinaryReadEEvRT_
6688:__ZNSt3__26vectorIN15QualitySettings14QualitySettingENS_9allocatorIS2_EEE6assignIPS2_EENS_9enable_ifIXaasr21__is_forward_iteratorIT_EE5valuesr16is_constructibleIS2_NS_15iterator_traitsIS9_E9referenceEEE5valueEvE4typeES9_S9_
6689:__Z14resize_trimmedINSt3__26vectorIN15QualitySettings14QualitySettingENS0_9allocatorIS3_EEEEEvRT_j
6690:__ZNSt3__26vectorIN15QualitySettings14QualitySettingENS_9allocatorIS2_EEE7reserveEj
6691:__ZNSt3__26vectorIN15QualitySettings14QualitySettingENS_9allocatorIS2_EEE6assignINS_11__wrap_iterIPS2_EEEENS_9enable_ifIXaasr21__is_forward_iteratorIT_EE5valuesr16is_constructibleIS2_NS_15iterator_traitsISB_E9referenceEEE5valueEvE4typeESB_SB_
6692:__ZNSt3__26vectorIN15QualitySettings14QualitySettingENS_9allocatorIS2_EEE8__appendEj
6693:__ZN15QualitySettings8TransferI24GenerateTypeTreeTransferEEvRT_
6694:__ZN24GenerateTypeTreeTransfer21TransferSTLStyleArrayINSt3__26vectorIN15QualitySettings14QualitySettingENS1_9allocatorIS4_EEEEEEvRT_17TransferMetaFlags
6695:__ZN15QualitySettings14QualitySetting8TransferI24GenerateTypeTreeTransferEEvRT_
6696:__ZN15QualitySettings8TransferI18StreamedBinaryReadEEvRT_
6697:__ZN15QualitySettings14QualitySetting8TransferI18StreamedBinaryReadEEvRT_
6698:__ZN15QualitySettings8TransferI19StreamedBinaryWriteEEvRT_
6699:__ZN15QualitySettings14QualitySetting8TransferI19StreamedBinaryWriteEEvRT_
6700:__ZNSt3__26vectorIN15QualitySettings14QualitySettingENS_9allocatorIS2_EEE21__push_back_slow_pathIRKS2_EEvOT_
6701:__ZN11PlayerPrefs6GetIntERKN4core12basic_stringIcNS0_20StringStorageDefaultIcEEEEi
6702:__ZN15QualitySettings13ApplySettingsEib
6703:__ZN7Texture13SetAnisoLimitENS_20AnisotropicFilteringE
6704:__ZN7Texture21SetMasterTextureLimitEib
6705:__Z21GetLODGroupManagerPtrv
6706:__ZN23TextureStreamingManager17SetFeatureEnabledEb
6707:__ZN23TextureStreamingManager15SetMemoryBudgetEf
6708:__ZN23TextureStreamingManager20SetRendererBatchSizeEi
6709:__ZN23TextureStreamingResults20SetRendererBatchSizeEi
6710:__ZN23TextureStreamingResults25UpdateWorkingBufferMemoryEv
6711:__ZN23TextureStreamingResults15ReserveTexturesEj
6712:__ZN13dynamic_arrayI24StreamingTextureMipLevelLj0EE18resize_initializedEjRKS0_12ResizePolicy
6713:__ZN23TextureStreamingManager30ResetDesiredMipLevelsToLargestEv
6714:__ZN23TextureStreamingManager14AddAllTexturesEv
6715:__ZN23TextureStreamingManager20AddAllSceneRenderersEv
6716:__ZN23TextureStreamingResults6ResizeEii
6717:__ZN13dynamic_arrayIS_I24StreamingTextureMipLevelLj0EELj0EE18resize_initializedEj12ResizePolicy
6718:__ZN13dynamic_arrayIiLj0EE18resize_initializedEjRKi12ResizePolicy
6719:__ZN23TextureStreamingManager15AddRendererDataER8Renderer
6720:__ZN23TextureStreamingManager7CompactEf
6721:__ZN20TextureStreamingData11AddRendererEv
6722:__ZNK20TextureStreamingData13ShouldCompactEf
6723:__ZN20TextureStreamingData7CompactEPS_
6724:__ZN23TextureStreamingResults7CompactEPS_
6725:__ZN23TextureStreamingResultsD2Ev
6726:__ZN20TextureStreamingDataD2Ev
6727:__ZN20TextureStreamingData19AllocateTextureInfoEP17StreamingRendererj
6728:__Z16ReloadAllSpritesv
6729:__ZN6Sprite6ReloadEv
6730:__ZL21SetAnisoLimitEnumImplN7Texture20AnisotropicFilteringEb
6731:__ZN15TextureSettings14SetAnisoLimitsEii
6732:__ZL18InitializeIfNeededv
6733:__ZNSt3__26__treeINS_12__value_typeIN4core12basic_stringIcNS2_20StringStorageDefaultIcEEEE9PrefValueEENS_19__map_value_compareIS6_S8_NS_4lessIS6_EELb1EEENS_9allocatorIS8_EEE25__emplace_unique_key_argsIS6_JRKNS_21piecewise_construct_tENS_5tupleIJRKS6_EEENSK_IJEEEEEENS_4pairINS_15__tree_iteratorIS8_PNS_11__tree_nodeIS8_PvEEiEEbEERKT_DpOT0_
6734:__Z14AppendPathNameRKN4core12basic_stringIcNS_20StringStorageDefaultIcEEEES5_
6735:__Z18ReadStringFromFilePN4core17string_with_labelILi1EEERKNS_12basic_stringIcNS_20StringStorageDefaultIcEEEE
6736:__ZL11DecodeValuePPKcS0_
6737:__ZN12FileAccessor4ReadEyPvPy
6738:__ZL18AppendPathNameImplRKN4core12basic_stringIcNS_20StringStorageDefaultIcEEEES5_cRS3_
6739:__ZN9Texture3DD2Ev
6740:__ZN9Texture3DD0Ev
6741:__ZN9Texture3D13AwakeFromLoadE17AwakeFromLoadMode
6742:__ZN9Texture3D5ResetEv
6743:__ZNK9Texture3D22GetTypeVirtualInternalEv
6744:__ZNK9Texture3D20GetRuntimeMemorySizeEv
6745:__ZN9Texture3D23VirtualRedirectTransferER19StreamedBinaryWrite
6746:__ZN9Texture3D23VirtualRedirectTransferER18StreamedBinaryRead
6747:__ZN9Texture3D23VirtualRedirectTransferER24GenerateTypeTreeTransfer
6748:__ZN9Texture3D23VirtualRedirectTransferER14SafeBinaryRead
6749:__ZNK9Texture3D26CanReuploadDataToGfxDeviceEv
6750:__ZNK9Texture3D12GetDimensionEv
6751:__ZN9Texture3D34UpdateFileTextureUploadInstructionEP24TextureUploadInstructionj
6752:__ZN9Texture3D17UploadToGfxDeviceEv
6753:__ZNK9Texture3D16ExtractImageImplEP14ImageReference13ImageBlitModebi
6754:__ZN9Texture3D13UploadTextureEi
6755:__ZN9Texture3D8TransferI14SafeBinaryReadEEvRT_
6756:__ZN9Texture3D8TransferI24GenerateTypeTreeTransferEEvRT_
6757:__ZN9Texture3D8TransferI18StreamedBinaryReadEEvRT_
6758:__ZN9Texture3D8TransferI19StreamedBinaryWriteEEvRT_
6759:__ZN13ScreenManager17RequestResolutionEii14FullscreenModei
6760:__ZN13ScreenManager22SetRequestedResolutionEv
6761:__ZN13ScreenManager14GetResolutionsER13dynamic_arrayI10ResolutionLj0EE
6762:__ZNK13ScreenManager19GetSystemResolutionEv
6763:__ZNK13ScreenManager20GetCurrentResolutionEv
6764:__ZNK13ScreenManager16GetScreenTimeoutEv
6765:__ZNK13ScreenManager21GetCursorInsideWindowEv
6766:__ZN13ScreenManager21SetCursorInsideWindowEb
6767:__ZNK13ScreenManager11GetSafeAreaEv
6768:__ZN13ScreenManager26ReapplyRequestedResolutionEv
6769:__ZNK13ScreenManager6GetDPIEv
6770:__ZNK13ScreenManager17GetFullscreenModeEv
6771:__ZN13ScreenManager23SetIsOrientationEnabledE18EnabledOrientationb
6772:__ZN14Texture2DArrayD2Ev
6773:__ZN14Texture2DArrayD0Ev
6774:__ZN14Texture2DArray17MainThreadCleanupEv
6775:__ZN14Texture2DArray13AwakeFromLoadE17AwakeFromLoadMode
6776:__ZN14Texture2DArray5ResetEv
6777:__ZNK14Texture2DArray22GetTypeVirtualInternalEv
6778:__ZN14Texture2DArray23VirtualRedirectTransferER19StreamedBinaryWrite
6779:__ZN14Texture2DArray23VirtualRedirectTransferER18StreamedBinaryRead
6780:__ZN14Texture2DArray23VirtualRedirectTransferER24GenerateTypeTreeTransfer
6781:__ZN14Texture2DArray23VirtualRedirectTransferER14SafeBinaryRead
6782:__ZNK14Texture2DArray12GetDimensionEv
6783:__ZN14Texture2DArray34UpdateFileTextureUploadInstructionEP24TextureUploadInstructionj
6784:__ZNK14Texture2DArray13GetIsReadableEv
6785:__ZN14Texture2DArray19UnloadFromGfxDeviceEb
6786:__ZN14Texture2DArray17UploadToGfxDeviceEv
6787:__ZN14Texture2DArray13UploadTextureEv
6788:__ZN14Texture2DArray8TransferI14SafeBinaryReadEEvRT_
6789:__ZN14Texture2DArray8TransferI24GenerateTypeTreeTransferEEvRT_
6790:__ZN14Texture2DArray8TransferI18StreamedBinaryReadEEvRT_
6791:__ZN14Texture2DArray8TransferI19StreamedBinaryWriteEEvRT_
6792:__ZN16LightmapSettingsD2Ev
6793:__ZN16LightmapSettingsD0Ev
6794:__ZN16LightmapSettings13AwakeFromLoadE17AwakeFromLoadMode
6795:__ZN16LightmapSettings5ResetEv
6796:__ZNK16LightmapSettings22GetTypeVirtualInternalEv
6797:__ZN16LightmapSettings23VirtualRedirectTransferER19StreamedBinaryWrite
6798:__ZN16LightmapSettings23VirtualRedirectTransferER18StreamedBinaryRead
6799:__ZN16LightmapSettings23VirtualRedirectTransferER17RemapPPtrTransfer
6800:__ZN16LightmapSettings23VirtualRedirectTransferER24GenerateTypeTreeTransfer
6801:__ZN16LightmapSettings23VirtualRedirectTransferER14SafeBinaryRead
6802:__ZN16LightmapSettings8TransferI14SafeBinaryReadEEvRT_
6803:__ZN21EnlightenSceneMapping8TransferI14SafeBinaryReadEEvRT_
6804:__ZN14SafeBinaryRead21TransferSTLStyleArrayI13dynamic_arrayI12LightmapDataLj0EEEEvRT_17TransferMetaFlags
6805:__ZN10GISettings8TransferI14SafeBinaryReadEEvRT_
6806:__ZN16LightmapSettings18TransferDeprecatedI14SafeBinaryReadEEvRT_
6807:__ZN12LightmapData8TransferI14SafeBinaryReadEEvRT_
6808:__ZN14SafeBinaryRead21TransferSTLStyleArrayI13dynamic_arrayI28EnlightenRendererInformationLj0EEEEvRT_17TransferMetaFlags
6809:__ZN14SafeBinaryRead21TransferSTLStyleArrayI13dynamic_arrayI26EnlightenSystemInformationLj0EEEEvRT_17TransferMetaFlags
6810:__ZN14SafeBinaryRead21TransferSTLStyleArrayI13dynamic_arrayI7Hash128Lj0EEEEvRT_17TransferMetaFlags
6811:__ZN14SafeBinaryRead21TransferSTLStyleArrayI13dynamic_arrayI31EnlightenSystemAtlasInformationLj0EEEEvRT_17TransferMetaFlags
6812:__ZN14SafeBinaryRead21TransferSTLStyleArrayI13dynamic_arrayI33EnlightenTerrainChunksInformationLj0EEEEvRT_17TransferMetaFlags
6813:__ZN21EnlightenSceneMapping16BuildRemapTablesEv
6814:__ZN15SerializeTraitsI33EnlightenTerrainChunksInformationE8TransferI14SafeBinaryReadEEvRS0_RT_
6815:__ZN15SerializeTraitsI31EnlightenSystemAtlasInformationE8TransferI14SafeBinaryReadEEvRS0_RT_
6816:__ZN26EnlightenSystemInformation8TransferI14SafeBinaryReadEEvRT_
6817:__ZN28EnlightenRendererInformation8TransferI14SafeBinaryReadEEvRT_
6818:__ZN16LightmapSettings8TransferI24GenerateTypeTreeTransferEEvRT_
6819:__ZN21EnlightenSceneMapping8TransferI24GenerateTypeTreeTransferEEvRT_
6820:__ZN15SerializeTraitsI12LightmapDataE8TransferI24GenerateTypeTreeTransferEEvRS0_RT_
6821:__ZN10GISettings8TransferI24GenerateTypeTreeTransferEEvRT_
6822:__ZN28EnlightenRendererInformation8TransferI24GenerateTypeTreeTransferEEvRT_
6823:__ZN26EnlightenSystemInformation8TransferI24GenerateTypeTreeTransferEEvRT_
6824:__ZN24GenerateTypeTreeTransfer8TransferI13dynamic_arrayI33EnlightenTerrainChunksInformationLj0EEEEvRT_PKc17TransferMetaFlags
6825:__ZN16LightmapSettings8TransferI17RemapPPtrTransferEEvRT_
6826:__ZN16LightmapSettings8TransferI18StreamedBinaryReadEEvRT_
6827:__ZN21EnlightenSceneMapping8TransferI18StreamedBinaryReadEEvRT_
6828:__ZN18StreamedBinaryRead21TransferSTLStyleArrayI13dynamic_arrayI12LightmapDataLj0EEEEvRT_17TransferMetaFlags
6829:__ZN10GISettings8TransferI18StreamedBinaryReadEEvRT_
6830:__ZN18StreamedBinaryRead21TransferSTLStyleArrayI13dynamic_arrayI28EnlightenRendererInformationLj0EEEEvRT_17TransferMetaFlags
6831:__ZN18StreamedBinaryRead21TransferSTLStyleArrayI13dynamic_arrayI26EnlightenSystemInformationLj0EEEEvRT_17TransferMetaFlags
6832:__ZN18StreamedBinaryRead21TransferSTLStyleArrayI13dynamic_arrayI7Hash128Lj0EEEEvRT_17TransferMetaFlags
6833:__ZN18StreamedBinaryRead21TransferSTLStyleArrayI13dynamic_arrayI31EnlightenSystemAtlasInformationLj0EEEEvRT_17TransferMetaFlags
6834:__ZN18StreamedBinaryRead21TransferSTLStyleArrayI13dynamic_arrayI33EnlightenTerrainChunksInformationLj0EEEEvRT_17TransferMetaFlags
6835:__ZN26EnlightenSystemInformation8TransferI18StreamedBinaryReadEEvRT_
6836:__ZN16LightmapSettings8TransferI19StreamedBinaryWriteEEvRT_
6837:__ZN21EnlightenSceneMapping8TransferI19StreamedBinaryWriteEEvRT_
6838:__ZN10GISettings8TransferI19StreamedBinaryWriteEEvRT_
6839:__ZN19StreamedBinaryWrite21TransferSTLStyleArrayI13dynamic_arrayI28EnlightenRendererInformationLj0EEEEvRT_17TransferMetaFlags
6840:__ZN26EnlightenSystemInformation8TransferI19StreamedBinaryWriteEEvRT_
6841:__ZN15SerializeTraitsI13dynamic_arrayI31EnlightenSystemAtlasInformationLj0EEE8TransferI19StreamedBinaryWriteEEvRS2_RT_
6842:__ZN10GISettings5ResetEv
6843:__ZN21EnlightenSceneMappingD2Ev
6844:__Z29GetCustomRenderTextureManagerv
6845:__ZN13RenderTexture14SetDepthFormatE17DepthBufferFormat
6846:__ZNK6Shader11IsSupportedEv
6847:__ZN8Material14SetVectorArrayEN9ShaderLab16FastPropertyNameEPK8Vector4fj
6848:__ZN8Material13SetFloatArrayEN9ShaderLab16FastPropertyNameEPKfj
6849:__ZN19ShaderPropertySheet16SetArrayPropertyEN9ShaderLab16FastPropertyNameENS_12PropertyTypeEPKvj
6850:__ZN19CustomRenderTexture22ClearChildDependenciesEv
6851:__ZNSt3__26__treeI4PPtrI19CustomRenderTextureENS_4lessIS3_EENS_9allocatorIS3_EEE7destroyEPNS_11__tree_nodeIS3_PvEE
6852:__ZN8RendererD2Ev
6853:__ZN8RendererD0Ev
6854:__ZN8Renderer17MainThreadCleanupEv
6855:__ZN8Renderer13AwakeFromLoadE17AwakeFromLoadMode
6856:__ZN8Renderer16CheckConsistencyEv
6857:__ZN8Renderer10SmartResetEv
6858:__ZNK8Renderer22GetTypeVirtualInternalEv
6859:__ZN8Renderer23VirtualRedirectTransferER19StreamedBinaryWrite
6860:__ZN8Renderer23VirtualRedirectTransferER18StreamedBinaryRead
6861:__ZN8Renderer23VirtualRedirectTransferER17RemapPPtrTransfer
6862:__ZN8Renderer23VirtualRedirectTransferER24GenerateTypeTreeTransfer
6863:__ZN8Renderer23VirtualRedirectTransferER14SafeBinaryRead
6864:__ZN8Renderer26SupportedMessagesDidChangeEj
6865:__ZN8Renderer10DeactivateE19DeactivateOperation
6866:__ZNK8Renderer10GetEnabledEv
6867:__ZN8Renderer10SetEnabledEb
6868:__ZN8Renderer21RendererBecameVisibleEv
6869:__ZN8Renderer23RendererBecameInvisibleEv
6870:__ZN8Renderer20RendererAddedToSceneEv
6871:__ZN8Renderer24RendererRemovedFromSceneEv
6872:__ZN8Renderer15AddAsRenderNodeER15RenderNodeQueueRK20DeprecatedSourceData
6873:__ZNK8Renderer8GetLayerEv
6874:__ZNK8Renderer16GetMaterialCountEv
6875:__ZNK8Renderer11GetMaterialEi
6876:__ZN8Renderer15SetIsRenderableEb
6877:__ZN8Renderer23UpdatePreviousFrameDataEv
6878:__ZN8Renderer20SetupSortingOverrideEv
6879:__ZThn48_N8RendererD1Ev
6880:__ZThn48_N8RendererD0Ev
6881:__ZThn48_N8Renderer15AddAsRenderNodeER15RenderNodeQueueRK20DeprecatedSourceData
6882:__ZThn48_NK8Renderer8GetLayerEv
6883:__ZThn48_NK8Renderer16GetMaterialCountEv
6884:__ZThn48_NK8Renderer11GetMaterialEi
6885:__Z35UpdateSortingGroupStatusForRendererP8Renderer
6886:__ZN8Renderer10AddToSceneEv
6887:__ZN8Renderer15RemoveFromSceneEv
6888:__ZN23TextureStreamingManager14RemoveRendererER8Renderer
6889:__ZN21RendererUpdateManager14RemoveRendererER8Renderer
6890:__ZN20TextureStreamingData14RemoveRendererEi
6891:__ZN13RendererScene11AddRendererEP8Renderer
6892:__ZN8LODGroup23GetLODGroupIndexAndMaskEPK8RendererPjPh
6893:__ZN23TextureStreamingManager11AddRendererER8Renderer
6894:__ZN21RendererUpdateManager11AddRendererER8Renderer
6895:__ZN13RendererScene19AddRendererInternalEP8Rendereri
6896:__ZNK8Renderer29FlattenPerMaterialCustomPropsER22PerThreadPageAllocatorR10RenderNode
6897:__Z30GetLightProbeProxyVolumeHandleRK28LightProbeProxyVolumeContextRK8Renderer
6898:__ZN28ReflectionProbeAnchorManager18RemoveCachedAnchorERK4PPtrI9TransformE
6899:__ZN28ReflectionProbeAnchorManager15AddCachedAnchorERK4PPtrI9TransformE
6900:__ZN4core8hash_mapIiN28ReflectionProbeAnchorManager16CachedAnchorDataENS_4hashIiEENSt3__28equal_toIiEEEixERKi
6901:__ZN4core8hash_setIiNS_4hashIiEENSt3__28equal_toIiEEE6insertERKi
6902:__ZN6Object11InvokeEventEi
6903:__ZN13RendererScene30RemoveRendererFromPendingNodesEP8Renderer
6904:__ZN8Renderer8TransferI14SafeBinaryReadEEvRT_
6905:__ZN14SafeBinaryRead21TransferSTLStyleArrayI13dynamic_arrayI4PPtrI8MaterialELj0EEEEvRT_17TransferMetaFlags
6906:__ZN15StaticBatchInfo8TransferI14SafeBinaryReadEEvRT_
6907:__ZN8Renderer8TransferI24GenerateTypeTreeTransferEEvRT_
6908:__ZN8Renderer8TransferI17RemapPPtrTransferEEvRT_
6909:__ZN8Renderer8TransferI18StreamedBinaryReadEEvRT_
6910:__ZN8Renderer8TransferI19StreamedBinaryWriteEEvRT_
6911:__ZN8Renderer16SetMaterialCountEi
6912:__ZN21RendererUpdateManager19DirtyDispatchUpdateER8Renderer
6913:__ZN8Renderer24SetupNewRendererForSceneEv
6914:__ZN8LODGroup25RemoveFromCachedRenderersEP8Renderer
6915:__ZN14SafeBinaryRead21TransferSTLStyleArrayI13dynamic_arrayI8Vector4fLj0EEEEvRT_17TransferMetaFlags
6916:__ZN18StreamedBinaryRead21TransferSTLStyleArrayI13dynamic_arrayI8Vector4fLj0EEEEvRT_17TransferMetaFlags
6917:__ZN18StreamedBinaryRead21TransferSTLStyleArrayI13dynamic_arrayItLj0EEEEvRT_17TransferMetaFlags
6918:__ZN8Renderer13BoundsChangedEv
6919:__ZN19ShaderPropertySheet20ReservePropertyCountEj
6920:__ZN13RenderTexture9SetActiveEPS_i11CubemapFaceiNS_14SetActiveFlagsE
6921:__Z25LoadFullScreenOrthoMatrixffR9GfxDevice
6922:__ZN8Material8SetFloatEN9ShaderLab16FastPropertyNameEf
6923:__ZN12ImageFilters4BlitER17ShaderPassContextP7TextureP13RenderTextureiP8MaterialiNS_9BlitFlagsE11CubemapFaceRK8Vector2fSC_
6924:__ZN8Material12UpdateHashesEv
6925:__ZN8Material11HasPropertyEN9ShaderLab16FastPropertyNameE
6926:__ZN12ImageFilters4BlitER17ShaderPassContextP7TextureP13RenderTextureiPK18SharedMaterialDataPKcP6ShaderiNS_9BlitFlagsE11CubemapFaceRK8Vector2fSH_
6927:__ZN16BlitStereoHelperC2ER9GfxDeviceR17ShaderPassContextP13RenderTexture
6928:__ZL22SetCurrentRenderTargetP13RenderTextureiNS_14SetActiveFlagsE11CubemapFace
6929:__ZN19ShaderPropertySheet18ReserveValueBufferEj
6930:__ZN14GraphicsHelper15CreateQuadChunkER9GfxDevicebRK5RectTIfEP21DynamicVBOChunkHandle
6931:__ZN16BlitStereoHelper16PrepareEyeRenderEiRK19ShaderPropertySheetRS0_bRK8Vector2fS6_14VRTextureUsage
6932:__ZN14GraphicsHelper15RenderQuadChunkER9GfxDevice16VertexInputMasksRK21DynamicVBOChunkHandle
6933:__ZN13RenderTexture9SetActiveEiP12ObjectHandleI17RenderSurface_TagP17RenderSurfaceBaseES4_PPS_i11CubemapFaceiNS_14SetActiveFlagsE
6934:__ZNK9GfxDevice26GetSinglePassStereoEyeMaskEv
6935:__ZNK19ShaderPropertySheet11HasPropertyERKN9ShaderLab16FastPropertyNameE
6936:__ZN13RenderTexture21MakeRenderTargetSetupEPS_i11CubemapFaceiNS_14SetActiveFlagsE
6937:__ZN12ImageFilters4BlitER17ShaderPassContextP7TextureP13RenderTextureiRK8Vector2fS8_NS_9BlitFlagsE
6938:__ZNK6Camera18GetRenderRectangleEv
6939:__ZN12ImageFilters19GetBlitCopyMaterialENS_12BlitCopyModeE
6940:__Z29PluginsIssueRenderingExtQuery26UnityRenderingExtQueryType32GfxDeviceRenderingExtQueryMethod
6941:__ZNK9Transform14TransformPointERK8Vector3f
6942:__ZN15LODGroupManager24UpdateLODGroupParametersEjR8LODGroupRK8Vector3ff
6943:__Z14TransformPoint23TransformAccessReadOnlyRKN4math7_float3E
6944:__ZN10DynamicVBOD2Ev
6945:__ZN10DynamicVBO8GetChunkEjjjj16GfxPrimitiveTypeP21DynamicVBOChunkHandle
6946:__ZN10DynamicVBO12ReleaseChunkER21DynamicVBOChunkHandlejj
6947:__ZN10DynamicVBO9DrawChunkERK21DynamicVBOChunkHandleP17VertexDeclarationPKNS_10DrawParamsEi
6948:__ZN10DynamicVBO11SwapBuffersEj
6949:__ZN10DynamicVBO13HandleToChunkERK21DynamicVBOChunkHandleb
6950:__ZN16GeometryJobTasks29PutDynamicVBOGeometryJobFenceER9GfxDevice
6951:__ZNK10DynamicVBO13IsHandleValidERK21DynamicVBOChunkHandle
6952:__ZN10DynamicVBO19FillQuadIndexBufferER21DynamicVBOChunkHandle
6953:__ZN17GenericDynamicVBOD2Ev
6954:__ZN17GenericDynamicVBOD0Ev
6955:__ZN17GenericDynamicVBO11SwapBuffersEj
6956:__ZN17GenericDynamicVBO13HandleToChunkERK21DynamicVBOChunkHandleb
6957:__ZN17GenericDynamicVBO10AllocateVBEjR21DynamicVBOChunkHandle
6958:__ZN17GenericDynamicVBO10AllocateIBEjR21DynamicVBOChunkHandle
6959:__ZN17GenericDynamicVBO17DrawChunkInternalERK21DynamicVBOChunkHandleP17VertexDeclarationPK16DrawBuffersRangeijj
6960:__ZN17GenericDynamicVBO20ReleaseChunkInternalERK21DynamicVBOChunkHandlejj
6961:__ZN17GenericDynamicVBO12EnsureBufferEjj15GfxBufferTargetR13dynamic_arrayIP9GfxBufferLj0EE
6962:__ZN10MeshFilterD0Ev
6963:__ZN10MeshFilter13AwakeFromLoadE17AwakeFromLoadMode
6964:__ZNK10MeshFilter22GetTypeVirtualInternalEv
6965:__ZN10MeshFilter23VirtualRedirectTransferER19StreamedBinaryWrite
6966:__ZN10MeshFilter23VirtualRedirectTransferER18StreamedBinaryRead
6967:__ZN10MeshFilter23VirtualRedirectTransferER17RemapPPtrTransfer
6968:__ZN10MeshFilter23VirtualRedirectTransferER24GenerateTypeTreeTransfer
6969:__ZN10MeshFilter23VirtualRedirectTransferER14SafeBinaryRead
6970:__ZN10MeshFilter20WillDestroyComponentEv
6971:__ZNK12MeshRenderer13GetSharedMeshEv
6972:__ZN12MeshRenderer13SetSharedMeshE4PPtrI4MeshE
6973:__ZN12MeshRenderer16UpdateCachedMeshEv
6974:__ZN8Renderer20ResetStaticBatchInfoEv
6975:__ZN12MeshRenderer18CalculateLocalAABBER4AABBRKS_RK4Mesh
6976:__ZN14SafeBinaryRead8TransferI10MeshFilterEEvRT_PKc17TransferMetaFlags
6977:__ZNK6Sprite9GetBoundsEbbb
6978:__ZNK6Sprite13GetRenderDataE20SpriteRenderDataMode
6979:__ZN16SpriteRenderDataC2Ev
6980:__ZN14SharedMeshDataC2ERK10MemLabelId
6981:__ZN23SharedMeshRenderingDataC2E10MemLabelId
6982:__ZNK9Transform13GetLocalScaleEv
6983:__ZN9Transform13SetLocalScaleERK8Vector3f
6984:__ZN8Renderer39GetCustomPropertiesRememberToUpdateHashEv
6985:__ZN19ShaderPropertySheet35SetTextureWithNoAuxiliaryPropertiesEN9ShaderLab16FastPropertyNameE9TextureID16TextureDimension14VRTextureUsage
6986:__ZN19ShaderPropertySheet11ComputeHashEv
6987:__ZN19ShaderPropertySheet15UnshareForWriteERPS_RK10MemLabelId
6988:__ZN8Renderer11SetMaterialE4PPtrI8MaterialEi
6989:__ZN24ScriptableRenderPipeline18GetDefaultMaterialENS_22DefaultSRPMaterialTypeE
6990:__Z22FindUnityObjectFromSRPI8MaterialEPT_N4core12basic_stringIcNS3_20StringStorageDefaultIcEEEE
6991:__ZNK16GraphicsSettings17GetRenderPipelineEv
6992:__ZN13MonoBehaviour10FindMethodEPKc
6993:__ZN9Scripting26GetMethodWithSearchOptionsE17ScriptingClassPtrPKcN24ScriptingMethodFiltering18MethodSearchFilterE
6994:__ZN4MeshD2Ev
6995:__ZN4MeshD0Ev
6996:__ZN4Mesh17MainThreadCleanupEv
6997:__ZN4Mesh13AwakeFromLoadE17AwakeFromLoadMode
6998:__ZN4Mesh21AwakeFromLoadThreadedEv
6999:__ZNK4Mesh22GetTypeVirtualInternalEv
7000:__ZNK4Mesh20GetRuntimeMemorySizeEv
7001:__ZN4Mesh23VirtualRedirectTransferER19StreamedBinaryWrite
7002:__ZN4Mesh23VirtualRedirectTransferER18StreamedBinaryRead
7003:__ZN4Mesh23VirtualRedirectTransferER17RemapPPtrTransfer
7004:__ZN4Mesh23VirtualRedirectTransferER24GenerateTypeTreeTransfer
7005:__ZN4Mesh23VirtualRedirectTransferER14SafeBinaryRead
7006:__ZN4Mesh8TransferI14SafeBinaryReadEEvRT_
7007:__ZN14BlendShapeData8TransferI14SafeBinaryReadEEvRT_
7008:__ZN14SafeBinaryRead21TransferSTLStyleArrayI13dynamic_arrayI11ColorRGBA32Lj0EEEEvRT_17TransferMetaFlags
7009:__ZN10VertexData13SwapEndianessEv
7010:__ZN4Mesh22SetBoneWeightsInternalEPK12BoneWeights4i
7011:__ZN14CompressedMesh8TransferI14SafeBinaryReadEEvRT_
7012:__ZN14CompressedMesh10DecompressER4Mesh
7013:__ZN14CompressedMeshD2Ev
7014:__ZN17CollisionMeshData8TransferI14SafeBinaryReadEEvRT_R4Mesh
7015:__Z11GetIPhysicsv
7016:__ZN17PackedFloatVector12UnpackFloatsEPfiiii
7017:__ZN14CompressedMeshC2Ev
7018:__ZN13VertexUtility13SwapEndianessERK14VertexDataInfoPh
7019:__ZN14SafeBinaryRead21TransferSTLStyleArrayI13dynamic_arrayI16BlendShapeVertexLj0EEEEvRT_17TransferMetaFlags
7020:__ZN14SafeBinaryRead21TransferSTLStyleArrayI13dynamic_arrayI10BlendShapeLj0EEEEvRT_17TransferMetaFlags
7021:__ZN14SafeBinaryRead21TransferSTLStyleArrayINSt3__26vectorI17BlendShapeChannelNS1_9allocatorIS3_EEEEEEvRT_17TransferMetaFlags
7022:__ZN14SafeBinaryRead21TransferSTLStyleArrayI13dynamic_arrayIfLj0EEEEvRT_17TransferMetaFlags
7023:__Z14resize_trimmedINSt3__26vectorI17BlendShapeChannelNS0_9allocatorIS2_EEEEEvRT_j
7024:__ZN15SerializeTraitsI17BlendShapeChannelE8TransferI14SafeBinaryReadEEvRS0_RT_
7025:__ZNSt3__26vectorI17BlendShapeChannelNS_9allocatorIS1_EEE7reserveEj
7026:__ZNSt3__26vectorI17BlendShapeChannelNS_9allocatorIS1_EEE6assignINS_11__wrap_iterIPS1_EEEENS_9enable_ifIXaasr21__is_forward_iteratorIT_EE5valuesr16is_constructibleIS1_NS_15iterator_traitsISA_E9referenceEEE5valueEvE4typeESA_SA_
7027:__ZNSt3__26vectorI17BlendShapeChannelNS_9allocatorIS1_EEE8__appendEj
7028:__ZN14ConstantString6assignERKS_
7029:__ZN15SerializeTraitsI10BlendShapeE8TransferI14SafeBinaryReadEEvRS0_RT_
7030:__ZN13dynamic_arrayI16BlendShapeVertexLj0EE18resize_initializedEj12ResizePolicy
7031:__ZN16BlendShapeVertex8TransferI14SafeBinaryReadEEvRT_
7032:__ZN4Mesh8TransferI24GenerateTypeTreeTransferEEvRT_
7033:__ZN14BlendShapeData8TransferI24GenerateTypeTreeTransferEEvRT_
7034:__ZN14CompressedMesh8TransferI24GenerateTypeTreeTransferEEvRT_
7035:__ZN17CollisionMeshData8TransferI24GenerateTypeTreeTransferEEvRT_R4Mesh
7036:__ZN10BlendShape8TransferI24GenerateTypeTreeTransferEEvRT_
7037:__ZN17BlendShapeChannel8TransferI24GenerateTypeTreeTransferEEvRT_
7038:__ZN4Mesh8TransferI17RemapPPtrTransferEEvRT_
7039:__ZN4Mesh8TransferI18StreamedBinaryReadEEvRT_
7040:__ZN14BlendShapeData8TransferI18StreamedBinaryReadEEvRT_
7041:__ZN14CompressedMesh8TransferI18StreamedBinaryReadEEvRT_
7042:__ZN17CollisionMeshData8TransferI18StreamedBinaryReadEEvRT_R4Mesh
7043:__ZN16BlendShapeVertex8TransferI18StreamedBinaryReadEEvRT_
7044:__ZN18StreamedBinaryRead21TransferSTLStyleArrayI13dynamic_arrayI10BlendShapeLj0EEEEvRT_17TransferMetaFlags
7045:__ZN17BlendShapeChannel8TransferI18StreamedBinaryReadEEvRT_
7046:__ZN10BlendShape8TransferI18StreamedBinaryReadEEvRT_
7047:__ZN4Mesh8TransferI19StreamedBinaryWriteEEvRT_
7048:__ZN14BlendShapeData8TransferI19StreamedBinaryWriteEEvRT_
7049:__ZN14CompressedMesh10GetQualityE15MeshCompression
7050:__ZN14CompressedMesh8CompressERK4MeshRK21CompressedMeshQuality
7051:__ZN14CompressedMesh8TransferI19StreamedBinaryWriteEEvRT_
7052:__ZN17CollisionMeshData8TransferI19StreamedBinaryWriteEEvRT_R4Mesh
7053:__ZN17PackedFloatVector10PackFloatsEPKfiiiib
7054:__ZN15PackedIntVector8PackIntsItEEvPT_i
7055:__ZNK4Mesh14ExtractUvArrayEiPfi
7056:__ZN15PackedIntVector8PackIntsIjEEvPT_i
7057:__ZNK4Mesh17ExtractColorArrayEP10ColorRGBAf
7058:__ZN14SharedMeshData14GetBoneWeightsEi
7059:__ZN14VertexDataInfo18SetAsSingleChannelEj13ShaderChannelRK24VertexFormatAndDimension
7060:__ZN13VertexUtility12CopyChannelsEj17ShaderChannelMaskRK14VertexDataInfoPKhRS1_Ph
7061:__ZN16BlendShapeVertex8TransferI19StreamedBinaryWriteEEvRT_
7062:__ZN10BlendShape8TransferI19StreamedBinaryWriteEEvRT_
7063:__ZN17BlendShapeChannel8TransferI19StreamedBinaryWriteEEvRT_
7064:__ZN17CollisionMeshData21AwakeFromLoadThreadedER4Mesh
7065:__ZN4Mesh14UploadMeshDataEb
7066:__ZN4Mesh18UpdateVertexFormatEv
7067:__ZN13VertexUtility24CalcChannelLayoutForCapsERK12GraphicsCapsRK14VertexDataInfoR20VertexChannelsLayoutR17ShaderChannelMask
7068:__ZN17CollisionMeshData7CleanupEv
7069:__Z18TransformPoints3x3RK10Matrix4x4fPK8Vector3fjPS2_ji
7070:__ZNK9Transform13GetWorldScaleEv
7071:__ZN8Renderer12GetTransformEv
7072:__Z26ScheduleJobDependsInternalR8JobFencePFvPvES1_RKS_11JobPriority
7073:__ZNK9Transform21GetLocalToWorldMatrixER10Matrix4x4f
7074:__Z21CalculateGlobalMatrix23TransformAccessReadOnly
7075:__ZN6Object11RemoveEventEPFvPvS0_iES0_
7076:__ZN6Object8AddEventEPFvPvS0_iES0_
7077:__ZN12EventManager8AddEventEPFvPvS0_iES0_P10EventEntry
7078:__ZN10MemoryPool8AllocateEv
7079:__ZN12EventManager11RemoveEventEP10EventEntryPFvPvS2_iES2_
7080:__ZN13HandleManager4FreeEi
7081:__ZN13HandleManager8AllocateEv
7082:__ZN13BitSetUtility17GetNumberOfBlocksEj
7083:__ZN12MeshRendererD2Ev
7084:__ZN12MeshRendererD0Ev
7085:__ZN12MeshRenderer17MainThreadCleanupEv
7086:__ZN12MeshRenderer13AwakeFromLoadE17AwakeFromLoadMode
7087:__ZNK12MeshRenderer22GetTypeVirtualInternalEv
7088:__ZN12MeshRenderer23VirtualRedirectTransferER19StreamedBinaryWrite
7089:__ZN12MeshRenderer23VirtualRedirectTransferER18StreamedBinaryRead
7090:__ZN12MeshRenderer23VirtualRedirectTransferER17RemapPPtrTransfer
7091:__ZN12MeshRenderer23VirtualRedirectTransferER24GenerateTypeTreeTransfer
7092:__ZN12MeshRenderer23VirtualRedirectTransferER14SafeBinaryRead
7093:__ZN12MeshRenderer10DeactivateE19DeactivateOperation
7094:__ZN12MeshRenderer20RendererAddedToSceneEv
7095:__ZN12MeshRenderer24RendererRemovedFromSceneEv
7096:__ZN12MeshRenderer15AddAsRenderNodeER15RenderNodeQueueRK20DeprecatedSourceData
7097:__ZNK12MeshRenderer19GetStaticBatchIndexEv
7098:__ZThn48_N12MeshRendererD1Ev
7099:__ZThn48_N12MeshRendererD0Ev
7100:__ZThn48_N12MeshRenderer15AddAsRenderNodeER15RenderNodeQueueRK20DeprecatedSourceData
7101:__ZThn48_NK12MeshRenderer19GetStaticBatchIndexEv
7102:__ZN14SafeBinaryRead8TransferI12MeshRendererEEvRT_PKc17TransferMetaFlags
7103:__ZN11TimeManagerD2Ev
7104:__ZN11TimeManagerD0Ev
7105:__ZN11TimeManager13AwakeFromLoadE17AwakeFromLoadMode
7106:__ZN11TimeManager16CheckConsistencyEv
7107:__ZN11TimeManager5ResetEv
7108:__ZNK11TimeManager22GetTypeVirtualInternalEv
7109:__ZN11TimeManager23VirtualRedirectTransferER19StreamedBinaryWrite
7110:__ZN11TimeManager23VirtualRedirectTransferER18StreamedBinaryRead
7111:__ZN11TimeManager23VirtualRedirectTransferER24GenerateTypeTreeTransfer
7112:__ZN11TimeManager23VirtualRedirectTransferER14SafeBinaryRead
7113:__ZN11TimeManager6UpdateEv
7114:__Z19GetTimeSinceStartupv
7115:__ZN15SerializeTraitsI11TimeManagerE8TransferI14SafeBinaryReadEEvRS0_RT_
7116:__ZN11TimeManager8TransferI24GenerateTypeTreeTransferEEvRT_
7117:__ZN11TimeManager8TransferI18StreamedBinaryReadEEvRT_
7118:__ZN11TimeManager8TransferI19StreamedBinaryWriteEEvRT_
7119:__ZN12InputManagerD2Ev
7120:__ZN12InputManagerD0Ev
7121:__ZN12InputManager16CheckConsistencyEv
7122:__ZN12InputManager5ResetEv
7123:__ZNK12InputManager22GetTypeVirtualInternalEv
7124:__ZN12InputManager23VirtualRedirectTransferER19StreamedBinaryWrite
7125:__ZN12InputManager23VirtualRedirectTransferER18StreamedBinaryRead
7126:__ZN12InputManager23VirtualRedirectTransferER17RemapPPtrTransfer
7127:__ZN12InputManager23VirtualRedirectTransferER24GenerateTypeTreeTransfer
7128:__ZN12InputManager23VirtualRedirectTransferER14SafeBinaryRead
7129:__ZN12InputManager8TransferI14SafeBinaryReadEEvRT_
7130:__ZN14SafeBinaryRead21TransferSTLStyleArrayI13dynamic_arrayI9InputAxisLj0EEEEvRT_17TransferMetaFlags
7131:__Z10AddGUIAxesR13dynamic_arrayI9InputAxisLj0EE
7132:__ZN13dynamic_arrayI9InputAxisLj0EE9push_backERKS0_
7133:__Z11StringToKeyRKN4core12basic_stringIcNS_20StringStorageDefaultIcEEEE
7134:__ZN15SerializeTraitsI13dynamic_arrayI9InputAxisLj0EEE19ResizeSTLStyleArrayERS2_i
7135:__ZN9InputAxis8TransferI14SafeBinaryReadEEvRT_
7136:__ZN24GenerateTypeTreeTransfer21TransferSTLStyleArrayI13dynamic_arrayI9InputAxisLj0EEEEvRT_17TransferMetaFlags
7137:__ZN9InputAxis8TransferI24GenerateTypeTreeTransferEEvRT_
7138:__ZN9InputAxis8TransferI18StreamedBinaryReadEEvRT_
7139:__ZN9InputAxis8TransferI19StreamedBinaryWriteEEvRT_
7140:__ZN12InputManager11MakeDefaultEv
7141:__ZN12InputManager14ResetInputAxesEv
7142:__ZN14PlayerSettingsD2Ev
7143:__ZN14PlayerSettingsD0Ev
7144:__ZN14PlayerSettings13AwakeFromLoadE17AwakeFromLoadMode
7145:__ZN14PlayerSettings16CheckConsistencyEv
7146:__ZN14PlayerSettings5ResetEv
7147:__ZNK14PlayerSettings22GetTypeVirtualInternalEv
7148:__ZN14PlayerSettings23VirtualRedirectTransferER19StreamedBinaryWrite
7149:__ZN14PlayerSettings23VirtualRedirectTransferER18StreamedBinaryRead
7150:__ZN14PlayerSettings23VirtualRedirectTransferER17RemapPPtrTransfer
7151:__ZN14PlayerSettings23VirtualRedirectTransferER24GenerateTypeTreeTransfer
7152:__ZN14PlayerSettings23VirtualRedirectTransferER14SafeBinaryRead
7153:__ZN14PlayerSettings8TransferI14SafeBinaryReadEEvRT_
7154:__ZN26PlayerSettingsSplashScreen8TransferI14SafeBinaryReadEEvRT_
7155:__ZN15SerializeTraitsI12AspectRatiosE8TransferI14SafeBinaryReadEEvRS0_RT_
7156:__ZN10VRSettings8TransferI14SafeBinaryReadEEvRT_
7157:__ZN10VRSettings9Cardboard8TransferI14SafeBinaryReadEEvRT_
7158:__ZN10VRSettings8Daydream8TransferI14SafeBinaryReadEEvRT_
7159:__ZN10VRSettings8HoloLens8TransferI14SafeBinaryReadEEvRT_
7160:__ZN10VRSettings6Oculus8TransferI14SafeBinaryReadEEvRT_
7161:__ZN14SafeBinaryRead21TransferSTLStyleArrayI13dynamic_arrayI16SplashScreenLogoLj0EEEEvRT_17TransferMetaFlags
7162:__ZN15SerializeTraitsI16SplashScreenLogoE8TransferI14SafeBinaryReadEEvRS0_RT_
7163:__ZN14PlayerSettings8TransferI24GenerateTypeTreeTransferEEvRT_
7164:__ZN26PlayerSettingsSplashScreen8TransferI24GenerateTypeTreeTransferEEvRT_
7165:__ZN12AspectRatios8TransferI24GenerateTypeTreeTransferEEvRT_
7166:__ZN10VRSettings8TransferI24GenerateTypeTreeTransferEEvRT_
7167:__ZN10VRSettings8Daydream8TransferI24GenerateTypeTreeTransferEEvRT_
7168:__ZN14PlayerSettings8TransferI17RemapPPtrTransferEEvRT_
7169:__ZN26PlayerSettingsSplashScreen8TransferI17RemapPPtrTransferEEvRT_
7170:__ZN14PlayerSettings8TransferI18StreamedBinaryReadEEvRT_
7171:__ZN26PlayerSettingsSplashScreen8TransferI18StreamedBinaryReadEEvRT_
7172:__ZN12AspectRatios8TransferI18StreamedBinaryReadEEvRT_
7173:__ZN10VRSettings8TransferI18StreamedBinaryReadEEvRT_
7174:__ZN10VRSettings8Daydream8TransferI18StreamedBinaryReadEEvRT_
7175:__ZN18StreamedBinaryRead21TransferSTLStyleArrayI13dynamic_arrayI16SplashScreenLogoLj0EEEEvRT_17TransferMetaFlags
7176:__ZN14PlayerSettings8TransferI19StreamedBinaryWriteEEvRT_
7177:__ZN26PlayerSettingsSplashScreen8TransferI19StreamedBinaryWriteEEvRT_
7178:__ZN12AspectRatios8TransferI19StreamedBinaryWriteEEvRT_
7179:__ZN10VRSettings8TransferI19StreamedBinaryWriteEEvRT_
7180:__ZN10VRSettings8Daydream8TransferI19StreamedBinaryWriteEEvRT_
7181:__ZN26PlayerSettingsSplashScreen5ResetEv
7182:__ZN26PlayerSettingsSplashScreen16CheckConsistencyEv
7183:__Z11IsGfxDevicev
7184:__ZN7Cursors17InitializeCursorsEP9Texture2D8Vector2f
7185:__Z20SetStackTraceLogType7LogType17StackTraceLogType
7186:__ZN7Cursors9SetCursorEP9Texture2D8Vector2f10CursorMode
7187:__Z13ConvertPixelsPKh13TextureFormatPhS1_j
7188:__ZN14AsyncOperationD2Ev
7189:__ZN14AsyncOperation15InvokeCoroutineEv
7190:__ZN13BuildSettingsD2Ev
7191:__ZN13BuildSettingsD0Ev
7192:__ZN13BuildSettings13AwakeFromLoadE17AwakeFromLoadMode
7193:__ZNK13BuildSettings22GetTypeVirtualInternalEv
7194:__ZN13BuildSettings23VirtualRedirectTransferER19StreamedBinaryWrite
7195:__ZN13BuildSettings23VirtualRedirectTransferER18StreamedBinaryRead
7196:__ZN13BuildSettings23VirtualRedirectTransferER24GenerateTypeTreeTransfer
7197:__ZN13BuildSettings23VirtualRedirectTransferER14SafeBinaryRead
7198:__ZN13BuildSettings8TransferI14SafeBinaryReadEEvRT_
7199:__ZNK12UnityVersionltERKS_
7200:__ZN14SafeBinaryRead21TransferSTLStyleArrayI10vector_mapIPKN5Unity4TypeE7Hash128NSt3__24lessIS5_EENS7_9allocatorINS7_4pairIS5_S6_EEEEEEEvRT_17TransferMetaFlags
7201:__ZNSt3__26__sortIRNS_6__lessINS_4pairIPKN5Unity4TypeE7Hash128EES8_EEPS8_EEvT0_SC_T_
7202:__ZN14SafeBinaryRead21TransferSTLStyleArrayI10vector_mapI7Hash128S2_NSt3__24lessIS2_EENS3_9allocatorINS3_4pairIS2_S2_EEEEEEEvRT_17TransferMetaFlags
7203:__ZNSt3__26vectorINS_4pairI7Hash128S2_EENS_9allocatorIS3_EEE8__appendEj
7204:__ZN15SerializeTraitsINSt3__24pairI7Hash128S2_EEE8TransferI14SafeBinaryReadEEvRS3_RT_
7205:__ZNSt3__27__sort3IRNS_6__lessINS_4pairIPKN5Unity4TypeE7Hash128EES8_EEPS8_EEjT0_SC_SC_T_
7206:__ZNSt3__27__sort4IRNS_6__lessINS_4pairIPKN5Unity4TypeE7Hash128EES8_EEPS8_EEjT0_SC_SC_SC_T_
7207:__ZNSt3__27__sort5IRNS_6__lessINS_4pairIPKN5Unity4TypeE7Hash128EES8_EEPS8_EEjT0_SC_SC_SC_SC_T_
7208:__ZNSt3__218__insertion_sort_3IRNS_6__lessINS_4pairIPKN5Unity4TypeE7Hash128EES8_EEPS8_EEvT0_SC_T_
7209:__ZNSt3__227__insertion_sort_incompleteIRNS_6__lessINS_4pairIPKN5Unity4TypeE7Hash128EES8_EEPS8_EEbT0_SC_T_
7210:__ZNSt3__26vectorINS_4pairIPKN5Unity4TypeE7Hash128EENS_9allocatorIS7_EEE8__appendEj
7211:__ZN15SerializeTraitsINSt3__24pairIPKN5Unity4TypeE7Hash128EEE8TransferI14SafeBinaryReadEEvRS7_RT_
7212:__ZN13BuildSettings8TransferI24GenerateTypeTreeTransferEEvRT_
7213:__ZN24GenerateTypeTreeTransfer8TransferINSt3__26vectorIN4core12basic_stringIcNS3_20StringStorageDefaultIcEEEENS1_9allocatorIS7_EEEEEEvRT_PKc17TransferMetaFlags
7214:__ZN13BuildSettings8TransferI18StreamedBinaryReadEEvRT_
7215:__ZN18StreamedBinaryRead21TransferSTLStyleArrayI10vector_mapIPKN5Unity4TypeE7Hash128NSt3__24lessIS5_EENS7_9allocatorINS7_4pairIS5_S6_EEEEEEEvRT_17TransferMetaFlags
7216:__ZN18StreamedBinaryRead21TransferSTLStyleArrayI10vector_mapI7Hash128S2_NSt3__24lessIS2_EENS3_9allocatorINS3_4pairIS2_S2_EEEEEEEvRT_17TransferMetaFlags
7217:__ZN13BuildSettings8TransferI19StreamedBinaryWriteEEvRT_
7218:__ZNK22GenericPropertyBinding13GetFloatValueERKN11UnityEngine9Animation10BoundCurveE
7219:__ZNK22GenericPropertyBinding13SetFloatValueERKN11UnityEngine9Animation10BoundCurveEf
7220:__ZNK22GenericPropertyBinding15GenerateBindingERKN4core12basic_stringIcNS0_20StringStorageDefaultIcEEEEbRN11UnityEngine9Animation14GenericBindingE
7221:__ZNK22GenericPropertyBinding9BindValueER6ObjectRKN11UnityEngine9Animation14GenericBindingERNS3_10BoundCurveE
7222:__ZN30RuntimeInitializeOnLoadManagerD2Ev
7223:__ZN30RuntimeInitializeOnLoadManagerD0Ev
7224:__ZNK30RuntimeInitializeOnLoadManager22GetTypeVirtualInternalEv
7225:__ZN30RuntimeInitializeOnLoadManager23VirtualRedirectTransferER19StreamedBinaryWrite
7226:__ZN30RuntimeInitializeOnLoadManager23VirtualRedirectTransferER18StreamedBinaryRead
7227:__ZN30RuntimeInitializeOnLoadManager23VirtualRedirectTransferER24GenerateTypeTreeTransfer
7228:__ZN30RuntimeInitializeOnLoadManager23VirtualRedirectTransferER14SafeBinaryRead
7229:__ZN30RuntimeInitializeOnLoadManager8TransferI14SafeBinaryReadEEvRT_
7230:__ZN14SafeBinaryRead21TransferSTLStyleArrayINSt3__26vectorIN4core12basic_stringIcNS3_20StringStorageDefaultIcEEEE13stl_allocatorIS7_L18MemLabelIdentifier13ELi16EEEEEEvRT_17TransferMetaFlags
7231:__ZN14SafeBinaryRead21TransferSTLStyleArrayINSt3__26vectorIN30RuntimeInitializeOnLoadManager9ClassInfoE13stl_allocatorIS4_L18MemLabelIdentifier13ELi16EEEEEEvRT_17TransferMetaFlags
7232:__ZN14SafeBinaryRead21TransferSTLStyleArrayINSt3__26vectorIN30RuntimeInitializeOnLoadManager15ClassMethodInfoE13stl_allocatorIS4_L18MemLabelIdentifier13ELi16EEEEEEvRT_17TransferMetaFlags
7233:__ZN14SafeBinaryRead21TransferSTLStyleArrayINSt3__26vectorIi13stl_allocatorIiL18MemLabelIdentifier13ELi16EEEEEEvRT_17TransferMetaFlags
7234:__Z14resize_trimmedINSt3__26vectorIi13stl_allocatorIiL18MemLabelIdentifier13ELi16EEEEEvRT_j
7235:__ZNSt3__26vectorIi13stl_allocatorIiL18MemLabelIdentifier13ELi16EEE6assignINS_11__wrap_iterIPiEEEENS_9enable_ifIXaasr21__is_forward_iteratorIT_EE5valuesr16is_constructibleIiNS_15iterator_traitsISA_E9referenceEEE5valueEvE4typeESA_SA_
7236:__ZNSt3__26vectorIi13stl_allocatorIiL18MemLabelIdentifier13ELi16EEE8__appendEj
7237:__Z14resize_trimmedINSt3__26vectorIN30RuntimeInitializeOnLoadManager15ClassMethodInfoE13stl_allocatorIS3_L18MemLabelIdentifier13ELi16EEEEEvRT_j
7238:__ZN30RuntimeInitializeOnLoadManager15ClassMethodInfo8TransferI14SafeBinaryReadEEvRT_
7239:__ZNSt3__26vectorIN30RuntimeInitializeOnLoadManager15ClassMethodInfoE13stl_allocatorIS2_L18MemLabelIdentifier13ELi16EEE7reserveEj
7240:__ZNSt3__26vectorIN30RuntimeInitializeOnLoadManager15ClassMethodInfoE13stl_allocatorIS2_L18MemLabelIdentifier13ELi16EEE6assignINS_11__wrap_iterIPS2_EEEENS_9enable_ifIXaasr21__is_forward_iteratorIT_EE5valuesr16is_constructibleIS2_NS_15iterator_traitsISC_E9referenceEEE5valueEvE4typeESC_SC_
7241:__ZNSt3__26vectorIN30RuntimeInitializeOnLoadManager15ClassMethodInfoE13stl_allocatorIS2_L18MemLabelIdentifier13ELi16EEE8__appendEj
7242:__Z14resize_trimmedINSt3__26vectorIN30RuntimeInitializeOnLoadManager9ClassInfoE13stl_allocatorIS3_L18MemLabelIdentifier13ELi16EEEEEvRT_j
7243:__ZN30RuntimeInitializeOnLoadManager9ClassInfo8TransferI14SafeBinaryReadEEvRT_
7244:__ZNSt3__26vectorIN30RuntimeInitializeOnLoadManager9ClassInfoE13stl_allocatorIS2_L18MemLabelIdentifier13ELi16EEE7reserveEj
7245:__ZNSt3__26vectorIN30RuntimeInitializeOnLoadManager9ClassInfoE13stl_allocatorIS2_L18MemLabelIdentifier13ELi16EEE6assignINS_11__wrap_iterIPS2_EEEENS_9enable_ifIXaasr21__is_forward_iteratorIT_EE5valuesr16is_constructibleIS2_NS_15iterator_traitsISC_E9referenceEEE5valueEvE4typeESC_SC_
7246:__ZNSt3__26vectorIN30RuntimeInitializeOnLoadManager9ClassInfoE13stl_allocatorIS2_L18MemLabelIdentifier13ELi16EEE8__appendEj
7247:__Z14resize_trimmedINSt3__26vectorIN4core12basic_stringIcNS2_20StringStorageDefaultIcEEEE13stl_allocatorIS6_L18MemLabelIdentifier13ELi16EEEEEvRT_j
7248:__ZNSt3__26vectorIN4core12basic_stringIcNS1_20StringStorageDefaultIcEEEE13stl_allocatorIS5_L18MemLabelIdentifier13ELi16EEE7reserveEj
7249:__ZNSt3__26vectorIN4core12basic_stringIcNS1_20StringStorageDefaultIcEEEE13stl_allocatorIS5_L18MemLabelIdentifier13ELi16EEE6assignINS_11__wrap_iterIPS5_EEEENS_9enable_ifIXaasr21__is_forward_iteratorIT_EE5valuesr16is_constructibleIS5_NS_15iterator_traitsISF_E9referenceEEE5valueEvE4typeESF_SF_
7250:__ZNSt3__26vectorIN4core12basic_stringIcNS1_20StringStorageDefaultIcEEEE13stl_allocatorIS5_L18MemLabelIdentifier13ELi16EEE8__appendEj
7251:__ZN30RuntimeInitializeOnLoadManager8TransferI24GenerateTypeTreeTransferEEvRT_
7252:__ZN15SerializeTraitsINSt3__26vectorIN30RuntimeInitializeOnLoadManager9ClassInfoE13stl_allocatorIS3_L18MemLabelIdentifier13ELi16EEEEE8TransferI24GenerateTypeTreeTransferEEvRS7_RT_
7253:__ZN24GenerateTypeTreeTransfer8TransferINSt3__26vectorIN30RuntimeInitializeOnLoadManager15ClassMethodInfoE13stl_allocatorIS4_L18MemLabelIdentifier13ELi16EEEEEEvRT_PKc17TransferMetaFlags
7254:__ZN30RuntimeInitializeOnLoadManager15ClassMethodInfo8TransferI24GenerateTypeTreeTransferEEvRT_
7255:__ZN30RuntimeInitializeOnLoadManager9ClassInfo8TransferI24GenerateTypeTreeTransferEEvRT_
7256:__ZN30RuntimeInitializeOnLoadManager8TransferI18StreamedBinaryReadEEvRT_
7257:__ZN30RuntimeInitializeOnLoadManager9ClassInfo8TransferI18StreamedBinaryReadEEvRT_
7258:__ZN30RuntimeInitializeOnLoadManager15ClassMethodInfo8TransferI18StreamedBinaryReadEEvRT_
7259:__ZN30RuntimeInitializeOnLoadManager8TransferI19StreamedBinaryWriteEEvRT_
7260:__ZN30RuntimeInitializeOnLoadManager9ClassInfo8TransferI19StreamedBinaryWriteEEvRT_
7261:__ZN30RuntimeInitializeOnLoadManager15ClassMethodInfo8TransferI19StreamedBinaryWriteEEvRT_
7262:__ZN27GenericSlowGarbageCollector18GenerateInstanceIDEi17TransferMetaFlags
7263:__ZN27GenericSlowGarbageCollector16ProcessReferenceEi
7264:__ZN15ResourceManagerD2Ev
7265:__ZN15ResourceManagerD0Ev
7266:__ZNK15ResourceManager22GetTypeVirtualInternalEv
7267:__ZN15ResourceManager23VirtualRedirectTransferER19StreamedBinaryWrite
7268:__ZN15ResourceManager23VirtualRedirectTransferER18StreamedBinaryRead
7269:__ZN15ResourceManager23VirtualRedirectTransferER17RemapPPtrTransfer
7270:__ZN15ResourceManager23VirtualRedirectTransferER24GenerateTypeTreeTransfer
7271:__ZN15ResourceManager23VirtualRedirectTransferER14SafeBinaryRead
7272:__ZN15ResourceManager8TransferI14SafeBinaryReadEEvRT_
7273:__ZN14SafeBinaryRead19TransferSTLStyleMapINSt3__28multimapIN4core12basic_stringIcNS3_20StringStorageDefaultIcEEEE4PPtrI6ObjectENS1_4lessIS7_EE13stl_allocatorINS1_4pairIKS7_SA_EEL18MemLabelIdentifier52ELi16EEEEEEvRT_17TransferMetaFlags
7274:__ZN14SafeBinaryRead21TransferSTLStyleArrayI13dynamic_arrayIN15ResourceManager10DependencyELj0EEEEvRT_17TransferMetaFlags
7275:__ZNSt3__26__sortIRN15ResourceManager10Dependency6SorterEPS2_EEvT0_S6_T_
7276:__ZNSt3__27__sort3IRN15ResourceManager10Dependency6SorterEPS2_EEjT0_S6_S6_T_
7277:__ZNSt3__27__sort4IRN15ResourceManager10Dependency6SorterEPS2_EEjT0_S6_S6_S6_T_
7278:__ZNSt3__27__sort5IRN15ResourceManager10Dependency6SorterEPS2_EEjT0_S6_S6_S6_S6_T_
7279:__ZNSt3__218__insertion_sort_3IRN15ResourceManager10Dependency6SorterEPS2_EEvT0_S6_T_
7280:__ZNSt3__227__insertion_sort_incompleteIRN15ResourceManager10Dependency6SorterEPS2_EEbT0_S6_T_
7281:__ZN13dynamic_arrayIN15ResourceManager10DependencyELj0EE18resize_initializedEj12ResizePolicy
7282:__ZN15ResourceManager10Dependency8TransferI14SafeBinaryReadEEvRT_
7283:__ZNSt3__26__treeINS_12__value_typeIN4core12basic_stringIcNS2_20StringStorageDefaultIcEEEE4PPtrI6ObjectEEENS_19__map_value_compareIS6_SA_NS_4lessIS6_EELb1EEE13stl_allocatorISA_L18MemLabelIdentifier52ELi16EEE7destroyEPNS_11__tree_nodeISA_PvEE
7284:__ZNSt3__26__treeINS_12__value_typeIN4core12basic_stringIcNS2_20StringStorageDefaultIcEEEE4PPtrI6ObjectEEENS_19__map_value_compareIS6_SA_NS_4lessIS6_EELb1EEE13stl_allocatorISA_L18MemLabelIdentifier52ELi16EEE15__emplace_multiIJRNS_4pairIS6_S9_EEEEENS_15__tree_iteratorISA_PNS_11__tree_nodeISA_PvEEiEEDpOT_
7285:__ZN24GenerateTypeTreeTransfer8TransferINSt3__28multimapIN4core12basic_stringIcNS3_20StringStorageDefaultIcEEEE4PPtrI6ObjectENS1_4lessIS7_EE13stl_allocatorINS1_4pairIKS7_SA_EEL18MemLabelIdentifier52ELi16EEEEEEvRT_PKc17TransferMetaFlags
7286:__ZN24GenerateTypeTreeTransfer21TransferSTLStyleArrayI13dynamic_arrayIN15ResourceManager10DependencyELj0EEEEvRT_17TransferMetaFlags
7287:__ZN15ResourceManager10Dependency8TransferI24GenerateTypeTreeTransferEEvRT_
7288:__ZN15SerializeTraitsINSt3__24pairIN4core12basic_stringIcNS2_20StringStorageDefaultIcEEEE4PPtrI6ObjectEEEE8TransferI24GenerateTypeTreeTransferEEvRSA_RT_
7289:__ZN15ResourceManager8TransferI17RemapPPtrTransferEEvRT_
7290:__ZN18StreamedBinaryRead19TransferSTLStyleMapINSt3__28multimapIN4core12basic_stringIcNS3_20StringStorageDefaultIcEEEE4PPtrI6ObjectENS1_4lessIS7_EE13stl_allocatorINS1_4pairIKS7_SA_EEL18MemLabelIdentifier52ELi16EEEEEEvRT_17TransferMetaFlags
7291:__ZN18StreamedBinaryRead8TransferI13dynamic_arrayIN15ResourceManager10DependencyELj0EEEEvRT_PKc17TransferMetaFlags
7292:__ZN15ResourceManager8TransferI19StreamedBinaryWriteEEvRT_
7293:__ZN6SocketD2Ev
7294:__ZN6SocketD0Ev
7295:__ZN12SocketStream4SendEPKvj
7296:__ZN12SocketStream4RecvEPvj
7297:__ZN12SocketStream11IsConnectedEv
7298:__ZN12SocketStream15WouldBlockErrorEv
7299:__ZN12SocketStream16InterruptedErrorEv
7300:__ZN12SocketStream8ShutdownEv
7301:__ZN12SocketStream4PollEy
7302:__ZN12SocketStream13OnSocketErrorEv
7303:__ZN12SocketStream15CheckForTimeOutEbyl
7304:__ZN6Socket24WaitForAvailableRecvDataEl
7305:__ZN6Socket26WaitForAvailableSendBufferEl
7306:__Z17TimeToNanosecondsy
7307:__ZN6Socket10CheckErrorEiPKcii
7308:__ZN20BufferedSocketStreamD2Ev
7309:__ZN20BufferedSocketStreamD0Ev
7310:__ZN20BufferedSocketStream4RecvEPvj
7311:__ZN20BufferedSocketStream11IsConnectedEv
7312:__ZNK20BufferedSocketStream23IsArtificiallyConnectedEv
7313:__ZN20BufferedSocketStream15WouldBlockErrorEv
7314:__ZN20BufferedSocketStream8ShutdownEv
7315:__ZN20BufferedSocketStream4PollEy
7316:__ZN20BufferedSocketStream13OnSocketErrorEv
7317:__ZN20BufferedSocketStream15CheckForTimeOutEbyl
7318:__ZN20BufferedSocketStream24ReadPtrUpdate_RecvBufferEPKvj
7319:__ZN23dynamic_ringbuffer_baseIhE8read_ptrERj
7320:__ZN20BufferedSocketStream15FlushSendbufferEv
7321:__ZN20BufferedSocketStream14FillRecvbufferEv
7322:__ZN17GeneralConnectionD2Ev
7323:__ZN17GeneralConnection13WaitForFinishEv
7324:__ZN17GeneralConnection4PollEv
7325:__ZN17GeneralConnection10Connection14ReceiveMessageEPNS_14NetworkMessageE
7326:__ZN12SocketStream7RecvAllEPvjl
7327:__ZN17GeneralConnection13DisconnectAllEv
7328:__ZNSt3__26__treeINS_12__value_typeI9UnityGUIDPFvR19MessageCallbackDataEEENS_19__map_value_compareIS2_S7_NS_4lessIS2_EELb1EEENS_9allocatorIS7_EEE7destroyEPNS_11__tree_nodeIS7_PvEE
7329:__ZNSt3__26__treeINS_12__value_typeIjPN17GeneralConnection10ConnectionEEENS_19__map_value_compareIjS5_NS_4lessIjEELb1EEENS_9allocatorIS5_EEE7destroyEPNS_11__tree_nodeIS5_PvEE
7330:__ZN24GeneralConnectionManagedI23PlayerConnectionManagedED2Ev
7331:__ZN23PlayerConnectionManagedD2Ev
7332:__ZN23PlayerConnectionManagedD0Ev
7333:__ZN23PlayerConnectionManaged10InitializeEv
7334:__ZN24GeneralConnectionManagedI23PlayerConnectionManagedE17ConnectedCallbackEj
7335:__ZN17GeneralConnection25RegisterConnectionHandlerEPFvjE
7336:__ZN23PlayerConnectionManaged23CleanUpPlayerConnectionEj
7337:__ZN17GeneralConnection28RegisterDisconnectionHandlerEPFvjE
7338:__ZN24GeneralConnectionManagedI23PlayerConnectionManagedE7CleanUpEv
7339:__ZL17OnPendingShutdownI23PlayerConnectionManagedEvv
7340:__ZN24GeneralConnectionManagedI23PlayerConnectionManagedE3GetEv
7341:__ZN18ScriptingArguments9AddUInt64Ey
7342:__ZN17GeneralConnection27UnregisterConnectionHandlerEPFvjE
7343:__ZN17GeneralConnection30UnregisterDisconnectionHandlerEPFvjE
7344:__ZN24GeneralConnectionManagedI23PlayerConnectionManagedE8CallbackER19MessageCallbackData
7345:__ZN17GeneralConnection24UnregisterMessageHandlerE9UnityGUIDPFvR19MessageCallbackDataE
7346:__Z12GUIDToStringRK9UnityGUID
7347:__Z12GUIDToStringRK9UnityGUIDPc
7348:__ZN13LoadOperationD2Ev
7349:__ZN13LoadOperationD0Ev
7350:__ZN23PreloadManagerOperation6IsDoneEv
7351:__ZN23PreloadManagerOperation11GetProgressEv
7352:__ZN13LoadOperation7PerformEv
7353:__ZN13LoadOperation19IntegrateTimeSlicedEi
7354:__ZN13LoadOperation19IntegrateMainThreadEv
7355:__ZN27TimeSliceAwakeFromLoadQueue19IntegrateTimeSlicedEi
7356:__ZN23dynamic_ringbuffer_baseIN27TimeSliceAwakeFromLoadQueue13AsyncInstanceEE8read_ptrERj
7357:__ZN17PersistentManager23TryLockIntegrationMutexEv
7358:__ZN17PersistentManager48IntegrateObjectAndUnlockIntegrationMutexInternalEi
7359:__ZN23dynamic_ringbuffer_baseIN27TimeSliceAwakeFromLoadQueue11SyncCommandEE8read_ptrERj
7360:__Z48AddToTimeSliceAwakeFromLoadQueueProgressCallbackR6ObjectPv
7361:__ZN17PersistentManager19LoadObjectsThreadedEPKiiR12LoadProgressb
7362:__ZN17PersistentManager34ExtractTimeSliceAwakeFromLoadQueueER27TimeSliceAwakeFromLoadQueueNS_9LockFlagsE
7363:__ZN23dynamic_ringbuffer_baseIN27TimeSliceAwakeFromLoadQueue11SyncCommandEE9write_ptrERj
7364:__ZN17PersistentManager22CheckInstanceIDsLoadedEPiiNS_9LockFlagsE
7365:__ZN6Object22CheckInstanceIDsLoadedEPii
7366:__ZN18AsyncUploadManager13GetAsyncFenceEP6Object
7367:__ZN23dynamic_ringbuffer_baseIN27TimeSliceAwakeFromLoadQueue13AsyncInstanceEE9write_ptrERj
7368:__ZN18LoadSceneOperationD2Ev
7369:__ZN18LoadSceneOperationD0Ev
7370:__ZN18LoadSceneOperation23GetAllowSceneActivationEv
7371:__ZN18LoadSceneOperation23SetAllowSceneActivationEb
7372:__ZN18LoadSceneOperation14SetFinalTimingEffff
7373:__ZN18LoadSceneOperation7PerformEv
7374:__ZN18LoadSceneOperation19IntegrateTimeSlicedEi
7375:__ZN18LoadSceneOperation19IntegrateMainThreadEv
7376:__ZN18LoadSceneOperation21MustCompleteNextFrameEv
